---
triple:          'arm64-apple-darwin'
binary-path:     TradingSystem
relocations:
  - { offsetInCU: 0x5D9B, offset: 0x5D9B, size: 0x8, addend: 0x0, symName: __ZNSt3__118__constexpr_strlenB8ue170006EPKc, symObjAddr: 0x574, symBinAddr: 0x100001024, symSize: 0x24 }
  - { offsetInCU: 0x5DC7, offset: 0x5DC7, size: 0x8, addend: 0x0, symName: __ZNSt3__122__make_exception_guardB8ue170006INS_6vectorINS_12basic_stringIcNS_11char_traitsIcEENS_9allocatorIcEEEENS5_IS7_EEE16__destroy_vectorEEENS_28__exception_guard_exceptionsIT_EESC_, symObjAddr: 0x700, symBinAddr: 0x1000011B0, symSize: 0x40 }
  - { offsetInCU: 0x5DFC, offset: 0x5DFC, size: 0x8, addend: 0x0, symName: __ZNSt3__119__allocate_at_leastB8ue170006INS_9allocatorINS_12basic_stringIcNS_11char_traitsIcEENS1_IcEEEEEEEENS_19__allocation_resultINS_16allocator_traitsIT_E7pointerEEERSA_m, symObjAddr: 0xB10, symBinAddr: 0x1000015C0, symSize: 0x40 }
  - { offsetInCU: 0x5E3F, offset: 0x5E3F, size: 0x8, addend: 0x0, symName: __ZNSt3__13minB8ue170006ImEERKT_S3_S3_, symObjAddr: 0xC68, symBinAddr: 0x100001718, symSize: 0x2C }
  - { offsetInCU: 0x606C, offset: 0x606C, size: 0x8, addend: 0x0, symName: __ZNSt3__13minB8ue170006ImNS_6__lessIvvEEEERKT_S5_S5_T0_, symObjAddr: 0xCF4, symBinAddr: 0x1000017A4, symSize: 0x54 }
  - { offsetInCU: 0x610B, offset: 0x610B, size: 0x8, addend: 0x0, symName: __ZNSt3__120__throw_length_errorB8ue170006EPKc, symObjAddr: 0xDD4, symBinAddr: 0x100001884, symSize: 0x64 }
  - { offsetInCU: 0x6135, offset: 0x6135, size: 0x8, addend: 0x0, symName: __ZNSt3__117__libcpp_allocateB8ue170006Emm, symObjAddr: 0xF48, symBinAddr: 0x1000019F8, symSize: 0x60 }
  - { offsetInCU: 0x618F, offset: 0x618F, size: 0x8, addend: 0x0, symName: __ZNSt3__124__is_overaligned_for_newB8ue170006Em, symObjAddr: 0xFA8, symBinAddr: 0x100001A58, symSize: 0x20 }
  - { offsetInCU: 0x61BD, offset: 0x61BD, size: 0x8, addend: 0x0, symName: __ZNSt3__121__libcpp_operator_newB8ue170006IJmSt11align_val_tEEEPvDpT_, symObjAddr: 0xFC8, symBinAddr: 0x100001A78, symSize: 0x2C }
  - { offsetInCU: 0x620A, offset: 0x620A, size: 0x8, addend: 0x0, symName: __ZNSt3__121__libcpp_operator_newB8ue170006IJmEEEPvDpT_, symObjAddr: 0xFF4, symBinAddr: 0x100001AA4, symSize: 0x24 }
  - { offsetInCU: 0x6243, offset: 0x6243, size: 0x8, addend: 0x0, symName: __ZNSt3__112__to_addressB8ue170006INS_12basic_stringIcNS_11char_traitsIcEENS_9allocatorIcEEEEEEPT_S8_, symObjAddr: 0x1110, symBinAddr: 0x100001BC0, symSize: 0x14 }
  - { offsetInCU: 0x6278, offset: 0x6278, size: 0x8, addend: 0x0, symName: __ZNSt3__130__uninitialized_allocator_copyB8ue170006INS_9allocatorINS_12basic_stringIcNS_11char_traitsIcEENS1_IcEEEEEEPKS6_S9_PS6_EET2_RT_T0_T1_SB_, symObjAddr: 0x11C0, symBinAddr: 0x100001C70, symSize: 0x80 }
  - { offsetInCU: 0x6315, offset: 0x6315, size: 0x8, addend: 0x0, symName: __ZNSt3__114__unwrap_rangeB8ue170006IPKNS_12basic_stringIcNS_11char_traitsIcEENS_9allocatorIcEEEES8_EENS_4pairIT0_SA_EET_SC_, symObjAddr: 0x12B8, symBinAddr: 0x100001D68, symSize: 0x60 }
  - { offsetInCU: 0x6361, offset: 0x6361, size: 0x8, addend: 0x0, symName: __ZNSt3__135__uninitialized_allocator_copy_implB8ue170006INS_9allocatorINS_12basic_stringIcNS_11char_traitsIcEENS1_IcEEEEEEPKS6_S9_PS6_EET2_RT_T0_T1_SB_, symObjAddr: 0x1318, symBinAddr: 0x100001DC8, symSize: 0xF4 }
  - { offsetInCU: 0x63FF, offset: 0x63FF, size: 0x8, addend: 0x0, symName: __ZNSt3__113__unwrap_iterB8ue170006IPNS_12basic_stringIcNS_11char_traitsIcEENS_9allocatorIcEEEENS_18__unwrap_iter_implIS7_Lb1EEELi0EEEDTclsrT0_8__unwrapclsr3stdE7declvalIT_EEEESB_, symObjAddr: 0x140C, symBinAddr: 0x100001EBC, symSize: 0x24 }
  - { offsetInCU: 0x6443, offset: 0x6443, size: 0x8, addend: 0x0, symName: __ZNSt3__113__rewrap_iterB8ue170006IPNS_12basic_stringIcNS_11char_traitsIcEENS_9allocatorIcEEEES7_NS_18__unwrap_iter_implIS7_Lb1EEEEET_SA_T0_, symObjAddr: 0x1430, symBinAddr: 0x100001EE0, symSize: 0x3C }
  - { offsetInCU: 0x6498, offset: 0x6498, size: 0x8, addend: 0x0, symName: __ZNSt3__19make_pairB8ue170006IPKNS_12basic_stringIcNS_11char_traitsIcEENS_9allocatorIcEEEES8_EENS_4pairINS_18__unwrap_ref_decayIT_E4typeENSA_IT0_E4typeEEEOSB_OSE_, symObjAddr: 0x146C, symBinAddr: 0x100001F1C, symSize: 0x38 }
  - { offsetInCU: 0x64E7, offset: 0x64E7, size: 0x8, addend: 0x0, symName: __ZNSt3__113__unwrap_iterB8ue170006IPKNS_12basic_stringIcNS_11char_traitsIcEENS_9allocatorIcEEEENS_18__unwrap_iter_implIS8_Lb1EEELi0EEEDTclsrT0_8__unwrapclsr3stdE7declvalIT_EEEESC_, symObjAddr: 0x14A4, symBinAddr: 0x100001F54, symSize: 0x24 }
  - { offsetInCU: 0x6652, offset: 0x6652, size: 0x8, addend: 0x0, symName: __ZNSt3__112__to_addressB8ue170006IKNS_12basic_stringIcNS_11char_traitsIcEENS_9allocatorIcEEEEEEPT_S9_, symObjAddr: 0x155C, symBinAddr: 0x10000200C, symSize: 0x14 }
  - { offsetInCU: 0x6687, offset: 0x6687, size: 0x8, addend: 0x0, symName: __ZNSt3__122__make_exception_guardB8ue170006INS_29_AllocatorDestroyRangeReverseINS_9allocatorINS_12basic_stringIcNS_11char_traitsIcEENS2_IcEEEEEEPS7_EEEENS_28__exception_guard_exceptionsIT_EESC_, symObjAddr: 0x1570, symBinAddr: 0x100002020, symSize: 0x4C }
  - { offsetInCU: 0x66BD, offset: 0x66BD, size: 0x8, addend: 0x0, symName: __ZNSt3__119__allocator_destroyB8ue170006INS_9allocatorINS_12basic_stringIcNS_11char_traitsIcEENS1_IcEEEEEENS_16reverse_iteratorIPS6_EESA_EEvRT_T0_T1_, symObjAddr: 0x1800, symBinAddr: 0x1000022B0, symSize: 0x70 }
  - { offsetInCU: 0x6720, offset: 0x6720, size: 0x8, addend: 0x0, symName: __ZNSt3__1neB8ue170006IPNS_12basic_stringIcNS_11char_traitsIcEENS_9allocatorIcEEEES7_EEbRKNS_16reverse_iteratorIT_EERKNS8_IT0_EE, symObjAddr: 0x18A4, symBinAddr: 0x100002354, symSize: 0x48 }
  - { offsetInCU: 0x676C, offset: 0x676C, size: 0x8, addend: 0x0, symName: __ZNSt3__112__to_addressB8ue170006INS_16reverse_iteratorIPNS_12basic_stringIcNS_11char_traitsIcEENS_9allocatorIcEEEEEEvEEu7__decayIDTclsr19__to_address_helperIT_EE6__callclsr3stdE7declvalIRKSA_EEEEESC_, symObjAddr: 0x1918, symBinAddr: 0x1000023C8, symSize: 0x24 }
  - { offsetInCU: 0x681E, offset: 0x681E, size: 0x8, addend: 0x0, symName: __ZNSt3__119__libcpp_deallocateB8ue170006EPvmm, symObjAddr: 0x1DEC, symBinAddr: 0x10000289C, symSize: 0x60 }
  - { offsetInCU: 0x6883, offset: 0x6883, size: 0x8, addend: 0x0, symName: __ZNSt3__127__do_deallocate_handle_sizeB8ue170006IJSt11align_val_tEEEvPvmDpT_, symObjAddr: 0x1E4C, symBinAddr: 0x1000028FC, symSize: 0x30 }
  - { offsetInCU: 0x68D6, offset: 0x68D6, size: 0x8, addend: 0x0, symName: __ZNSt3__127__do_deallocate_handle_sizeB8ue170006IJEEEvPvmDpT_, symObjAddr: 0x1E7C, symBinAddr: 0x10000292C, symSize: 0x28 }
  - { offsetInCU: 0x6914, offset: 0x6914, size: 0x8, addend: 0x0, symName: __ZNSt3__124__libcpp_operator_deleteB8ue170006IJPvSt11align_val_tEEEvDpT_, symObjAddr: 0x1EA4, symBinAddr: 0x100002954, symSize: 0x2C }
  - { offsetInCU: 0x695D, offset: 0x695D, size: 0x8, addend: 0x0, symName: __ZNSt3__124__libcpp_operator_deleteB8ue170006IJPvEEEvDpT_, symObjAddr: 0x1ED0, symBinAddr: 0x100002980, symSize: 0x24 }
  - { offsetInCU: 0x120F1, offset: 0x120F1, size: 0x8, addend: 0x0, symName: __ZSt28__throw_bad_array_new_lengthB8ue170006v, symObjAddr: 0xF14, symBinAddr: 0x1000019C4, symSize: 0x34 }
  - { offsetInCU: 0x148B9, offset: 0x148B9, size: 0x8, addend: 0x0, symName: __Z7Fast_IOv, symObjAddr: 0x0, symBinAddr: 0x100000AB0, symSize: 0x78 }
  - { offsetInCU: 0x1497B, offset: 0x1497B, size: 0x8, addend: 0x0, symName: __ZNSt3__19basic_iosIcNS_11char_traitsIcEEE3tieB8ue170006EPNS_13basic_ostreamIcS2_EE, symObjAddr: 0x78, symBinAddr: 0x100000B28, symSize: 0x2C }
  - { offsetInCU: 0x149C1, offset: 0x149C1, size: 0x8, addend: 0x0, symName: _main, symObjAddr: 0xA4, symBinAddr: 0x100000B54, symSize: 0x2B0 }
  - { offsetInCU: 0x14A40, offset: 0x14A40, size: 0x8, addend: 0x0, symName: __ZNSt3__112basic_stringIcNS_11char_traitsIcEENS_9allocatorIcEEEC1B8ue170006ILi0EEEPKc, symObjAddr: 0x354, symBinAddr: 0x100000E04, symSize: 0x34 }
  - { offsetInCU: 0x14A7F, offset: 0x14A7F, size: 0x8, addend: 0x0, symName: __ZNSt3__16vectorINS_12basic_stringIcNS_11char_traitsIcEENS_9allocatorIcEEEENS4_IS6_EEEC1B8ue170006ESt16initializer_listIS6_E, symObjAddr: 0x388, symBinAddr: 0x100000E38, symSize: 0x3C }
  - { offsetInCU: 0x14ABA, offset: 0x14ABA, size: 0x8, addend: 0x0, symName: __ZNSt3__16vectorINS_12basic_stringIcNS_11char_traitsIcEENS_9allocatorIcEEEENS4_IS6_EEED1B8ue170006Ev, symObjAddr: 0x3C4, symBinAddr: 0x100000E74, symSize: 0x2C }
  - { offsetInCU: 0x14AE4, offset: 0x14AE4, size: 0x8, addend: 0x0, symName: __ZNSt3__112basic_stringIcNS_11char_traitsIcEENS_9allocatorIcEEEC2B8ue170006ILi0EEEPKc, symObjAddr: 0x3F0, symBinAddr: 0x100000EA0, symSize: 0x58 }
  - { offsetInCU: 0x14B28, offset: 0x14B28, size: 0x8, addend: 0x0, symName: __ZNSt3__117__compressed_pairINS_12basic_stringIcNS_11char_traitsIcEENS_9allocatorIcEEE5__repES5_EC1B8ue170006INS_18__default_init_tagESA_EEOT_OT0_, symObjAddr: 0x448, symBinAddr: 0x100000EF8, symSize: 0x3C }
  - { offsetInCU: 0x14B80, offset: 0x14B80, size: 0x8, addend: 0x0, symName: __ZNSt3__111char_traitsIcE6lengthB8ue170006EPKc, symObjAddr: 0x484, symBinAddr: 0x100000F34, symSize: 0x34 }
  - { offsetInCU: 0x14BA3, offset: 0x14BA3, size: 0x8, addend: 0x0, symName: __ZNSt3__117__compressed_pairINS_12basic_stringIcNS_11char_traitsIcEENS_9allocatorIcEEE5__repES5_EC2B8ue170006INS_18__default_init_tagESA_EEOT_OT0_, symObjAddr: 0x4B8, symBinAddr: 0x100000F68, symSize: 0x3C }
  - { offsetInCU: 0x14BFB, offset: 0x14BFB, size: 0x8, addend: 0x0, symName: __ZNSt3__122__compressed_pair_elemINS_12basic_stringIcNS_11char_traitsIcEENS_9allocatorIcEEE5__repELi0ELb0EEC2B8ue170006ENS_18__default_init_tagE, symObjAddr: 0x4F4, symBinAddr: 0x100000FA4, symSize: 0x14 }
  - { offsetInCU: 0x14C30, offset: 0x14C30, size: 0x8, addend: 0x0, symName: __ZNSt3__122__compressed_pair_elemINS_9allocatorIcEELi1ELb1EEC2B8ue170006ENS_18__default_init_tagE, symObjAddr: 0x508, symBinAddr: 0x100000FB8, symSize: 0x2C }
  - { offsetInCU: 0x14C65, offset: 0x14C65, size: 0x8, addend: 0x0, symName: __ZNSt3__19allocatorIcEC2B8ue170006Ev, symObjAddr: 0x534, symBinAddr: 0x100000FE4, symSize: 0x2C }
  - { offsetInCU: 0x14C8F, offset: 0x14C8F, size: 0x8, addend: 0x0, symName: __ZNSt3__116__non_trivial_ifILb1ENS_9allocatorIcEEEC2B8ue170006Ev, symObjAddr: 0x560, symBinAddr: 0x100001010, symSize: 0x14 }
  - { offsetInCU: 0x14CB9, offset: 0x14CB9, size: 0x8, addend: 0x0, symName: __ZNSt3__16vectorINS_12basic_stringIcNS_11char_traitsIcEENS_9allocatorIcEEEENS4_IS6_EEEC2B8ue170006ESt16initializer_listIS6_E, symObjAddr: 0x5A4, symBinAddr: 0x100001054, symSize: 0x120 }
  - { offsetInCU: 0x14D0F, offset: 0x14D0F, size: 0x8, addend: 0x0, symName: __ZNSt3__117__compressed_pairIPNS_12basic_stringIcNS_11char_traitsIcEENS_9allocatorIcEEEENS4_IS6_EEEC1B8ue170006IDnNS_18__default_init_tagEEEOT_OT0_, symObjAddr: 0x6C4, symBinAddr: 0x100001174, symSize: 0x3C }
  - { offsetInCU: 0x14D67, offset: 0x14D67, size: 0x8, addend: 0x0, symName: __ZNSt3__16vectorINS_12basic_stringIcNS_11char_traitsIcEENS_9allocatorIcEEEENS4_IS6_EEE16__destroy_vectorC1B8ue170006ERS8_, symObjAddr: 0x740, symBinAddr: 0x1000011F0, symSize: 0x34 }
  - { offsetInCU: 0x14DA0, offset: 0x14DA0, size: 0x8, addend: 0x0, symName: __ZNKSt16initializer_listINSt3__112basic_stringIcNS0_11char_traitsIcEENS0_9allocatorIcEEEEE4sizeB8ue170006Ev, symObjAddr: 0x774, symBinAddr: 0x100001224, symSize: 0x18 }
  - { offsetInCU: 0x14DC6, offset: 0x14DC6, size: 0x8, addend: 0x0, symName: __ZNSt3__16vectorINS_12basic_stringIcNS_11char_traitsIcEENS_9allocatorIcEEEENS4_IS6_EEE11__vallocateB8ue170006Em, symObjAddr: 0x78C, symBinAddr: 0x10000123C, symSize: 0xB4 }
  - { offsetInCU: 0x14E0A, offset: 0x14E0A, size: 0x8, addend: 0x0, symName: __ZNSt3__16vectorINS_12basic_stringIcNS_11char_traitsIcEENS_9allocatorIcEEEENS4_IS6_EEE18__construct_at_endIPKS6_SB_EEvT_T0_m, symObjAddr: 0x840, symBinAddr: 0x1000012F0, symSize: 0x8C }
  - { offsetInCU: 0x14E80, offset: 0x14E80, size: 0x8, addend: 0x0, symName: __ZNKSt16initializer_listINSt3__112basic_stringIcNS0_11char_traitsIcEENS0_9allocatorIcEEEEE5beginB8ue170006Ev, symObjAddr: 0x8CC, symBinAddr: 0x10000137C, symSize: 0x18 }
  - { offsetInCU: 0x14EA6, offset: 0x14EA6, size: 0x8, addend: 0x0, symName: __ZNKSt16initializer_listINSt3__112basic_stringIcNS0_11char_traitsIcEENS0_9allocatorIcEEEEE3endB8ue170006Ev, symObjAddr: 0x8E4, symBinAddr: 0x100001394, symSize: 0x28 }
  - { offsetInCU: 0x14ECC, offset: 0x14ECC, size: 0x8, addend: 0x0, symName: __ZNSt3__128__exception_guard_exceptionsINS_6vectorINS_12basic_stringIcNS_11char_traitsIcEENS_9allocatorIcEEEENS5_IS7_EEE16__destroy_vectorEE10__completeB8ue170006Ev, symObjAddr: 0x90C, symBinAddr: 0x1000013BC, symSize: 0x1C }
  - { offsetInCU: 0x14EF2, offset: 0x14EF2, size: 0x8, addend: 0x0, symName: __ZNSt3__128__exception_guard_exceptionsINS_6vectorINS_12basic_stringIcNS_11char_traitsIcEENS_9allocatorIcEEEENS5_IS7_EEE16__destroy_vectorEED1B8ue170006Ev, symObjAddr: 0x928, symBinAddr: 0x1000013D8, symSize: 0x2C }
  - { offsetInCU: 0x14F1C, offset: 0x14F1C, size: 0x8, addend: 0x0, symName: __ZNSt3__117__compressed_pairIPNS_12basic_stringIcNS_11char_traitsIcEENS_9allocatorIcEEEENS4_IS6_EEEC2B8ue170006IDnNS_18__default_init_tagEEEOT_OT0_, symObjAddr: 0x954, symBinAddr: 0x100001404, symSize: 0x40 }
  - { offsetInCU: 0x14F74, offset: 0x14F74, size: 0x8, addend: 0x0, symName: __ZNSt3__122__compressed_pair_elemIPNS_12basic_stringIcNS_11char_traitsIcEENS_9allocatorIcEEEELi0ELb0EEC2B8ue170006IDnvEEOT_, symObjAddr: 0x994, symBinAddr: 0x100001444, symSize: 0x1C }
  - { offsetInCU: 0x14FB6, offset: 0x14FB6, size: 0x8, addend: 0x0, symName: __ZNSt3__122__compressed_pair_elemINS_9allocatorINS_12basic_stringIcNS_11char_traitsIcEENS1_IcEEEEEELi1ELb1EEC2B8ue170006ENS_18__default_init_tagE, symObjAddr: 0x9B0, symBinAddr: 0x100001460, symSize: 0x2C }
  - { offsetInCU: 0x14FEB, offset: 0x14FEB, size: 0x8, addend: 0x0, symName: __ZNSt3__19allocatorINS_12basic_stringIcNS_11char_traitsIcEENS0_IcEEEEEC2B8ue170006Ev, symObjAddr: 0x9DC, symBinAddr: 0x10000148C, symSize: 0x2C }
  - { offsetInCU: 0x15015, offset: 0x15015, size: 0x8, addend: 0x0, symName: __ZNSt3__116__non_trivial_ifILb1ENS_9allocatorINS_12basic_stringIcNS_11char_traitsIcEENS1_IcEEEEEEEC2B8ue170006Ev, symObjAddr: 0xA08, symBinAddr: 0x1000014B8, symSize: 0x14 }
  - { offsetInCU: 0x1503F, offset: 0x1503F, size: 0x8, addend: 0x0, symName: __ZNSt3__128__exception_guard_exceptionsINS_6vectorINS_12basic_stringIcNS_11char_traitsIcEENS_9allocatorIcEEEENS5_IS7_EEE16__destroy_vectorEEC1B8ue170006ESA_, symObjAddr: 0xA1C, symBinAddr: 0x1000014CC, symSize: 0x34 }
  - { offsetInCU: 0x15077, offset: 0x15077, size: 0x8, addend: 0x0, symName: __ZNSt3__128__exception_guard_exceptionsINS_6vectorINS_12basic_stringIcNS_11char_traitsIcEENS_9allocatorIcEEEENS5_IS7_EEE16__destroy_vectorEEC2B8ue170006ESA_, symObjAddr: 0xA50, symBinAddr: 0x100001500, symSize: 0x24 }
  - { offsetInCU: 0x150AF, offset: 0x150AF, size: 0x8, addend: 0x0, symName: __ZNSt3__16vectorINS_12basic_stringIcNS_11char_traitsIcEENS_9allocatorIcEEEENS4_IS6_EEE16__destroy_vectorC2B8ue170006ERS8_, symObjAddr: 0xA74, symBinAddr: 0x100001524, symSize: 0x20 }
  - { offsetInCU: 0x150E8, offset: 0x150E8, size: 0x8, addend: 0x0, symName: __ZNKSt3__16vectorINS_12basic_stringIcNS_11char_traitsIcEENS_9allocatorIcEEEENS4_IS6_EEE8max_sizeEv, symObjAddr: 0xA94, symBinAddr: 0x100001544, symSize: 0x60 }
  - { offsetInCU: 0x15110, offset: 0x15110, size: 0x8, addend: 0x0, symName: __ZNKSt3__16vectorINS_12basic_stringIcNS_11char_traitsIcEENS_9allocatorIcEEEENS4_IS6_EEE20__throw_length_errorB8ue170006Ev, symObjAddr: 0xAF4, symBinAddr: 0x1000015A4, symSize: 0x1C }
  - { offsetInCU: 0x15136, offset: 0x15136, size: 0x8, addend: 0x0, symName: __ZNSt3__16vectorINS_12basic_stringIcNS_11char_traitsIcEENS_9allocatorIcEEEENS4_IS6_EEE7__allocB8ue170006Ev, symObjAddr: 0xB50, symBinAddr: 0x100001600, symSize: 0x28 }
  - { offsetInCU: 0x1515C, offset: 0x1515C, size: 0x8, addend: 0x0, symName: __ZNSt3__16vectorINS_12basic_stringIcNS_11char_traitsIcEENS_9allocatorIcEEEENS4_IS6_EEE9__end_capB8ue170006Ev, symObjAddr: 0xB78, symBinAddr: 0x100001628, symSize: 0x28 }
  - { offsetInCU: 0x15182, offset: 0x15182, size: 0x8, addend: 0x0, symName: __ZNKSt3__16vectorINS_12basic_stringIcNS_11char_traitsIcEENS_9allocatorIcEEEENS4_IS6_EEE14__annotate_newB8ue170006Em, symObjAddr: 0xBA0, symBinAddr: 0x100001650, symSize: 0xC8 }
  - { offsetInCU: 0x151C1, offset: 0x151C1, size: 0x8, addend: 0x0, symName: __ZNSt3__116allocator_traitsINS_9allocatorINS_12basic_stringIcNS_11char_traitsIcEENS1_IcEEEEEEE8max_sizeB8ue170006IS7_vEEmRKS7_, symObjAddr: 0xC94, symBinAddr: 0x100001744, symSize: 0x24 }
  - { offsetInCU: 0x151EF, offset: 0x151EF, size: 0x8, addend: 0x0, symName: __ZNKSt3__16vectorINS_12basic_stringIcNS_11char_traitsIcEENS_9allocatorIcEEEENS4_IS6_EEE7__allocB8ue170006Ev, symObjAddr: 0xCB8, symBinAddr: 0x100001768, symSize: 0x28 }
  - { offsetInCU: 0x15215, offset: 0x15215, size: 0x8, addend: 0x0, symName: __ZNSt3__114numeric_limitsIlE3maxB8ue170006Ev, symObjAddr: 0xCE0, symBinAddr: 0x100001790, symSize: 0x14 }
  - { offsetInCU: 0x1523D, offset: 0x1523D, size: 0x8, addend: 0x0, symName: __ZNKSt3__16__lessIvvEclB8ue170006ImmEEbRKT_RKT0_, symObjAddr: 0xD48, symBinAddr: 0x1000017F8, symSize: 0x34 }
  - { offsetInCU: 0x15291, offset: 0x15291, size: 0x8, addend: 0x0, symName: __ZNKSt3__19allocatorINS_12basic_stringIcNS_11char_traitsIcEENS0_IcEEEEE8max_sizeB8ue170006Ev, symObjAddr: 0xD7C, symBinAddr: 0x10000182C, symSize: 0x18 }
  - { offsetInCU: 0x152B7, offset: 0x152B7, size: 0x8, addend: 0x0, symName: __ZNKSt3__117__compressed_pairIPNS_12basic_stringIcNS_11char_traitsIcEENS_9allocatorIcEEEENS4_IS6_EEE6secondB8ue170006Ev, symObjAddr: 0xD94, symBinAddr: 0x100001844, symSize: 0x24 }
  - { offsetInCU: 0x152DD, offset: 0x152DD, size: 0x8, addend: 0x0, symName: __ZNKSt3__122__compressed_pair_elemINS_9allocatorINS_12basic_stringIcNS_11char_traitsIcEENS1_IcEEEEEELi1ELb1EE5__getB8ue170006Ev, symObjAddr: 0xDB8, symBinAddr: 0x100001868, symSize: 0x14 }
  - { offsetInCU: 0x15303, offset: 0x15303, size: 0x8, addend: 0x0, symName: __ZNSt3__123__libcpp_numeric_limitsIlLb1EE3maxB8ue170006Ev, symObjAddr: 0xDCC, symBinAddr: 0x10000187C, symSize: 0x8 }
  - { offsetInCU: 0x15317, offset: 0x15317, size: 0x8, addend: 0x0, symName: __ZNSt12length_errorC1B8ue170006EPKc, symObjAddr: 0xE38, symBinAddr: 0x1000018E8, symSize: 0x34 }
  - { offsetInCU: 0x1534F, offset: 0x1534F, size: 0x8, addend: 0x0, symName: __ZNSt12length_errorC2B8ue170006EPKc, symObjAddr: 0xE6C, symBinAddr: 0x10000191C, symSize: 0x4C }
  - { offsetInCU: 0x15387, offset: 0x15387, size: 0x8, addend: 0x0, symName: __ZNSt3__19allocatorINS_12basic_stringIcNS_11char_traitsIcEENS0_IcEEEEE8allocateB8ue170006Em, symObjAddr: 0xEB8, symBinAddr: 0x100001968, symSize: 0x5C }
  - { offsetInCU: 0x153BB, offset: 0x153BB, size: 0x8, addend: 0x0, symName: __ZNSt3__117__compressed_pairIPNS_12basic_stringIcNS_11char_traitsIcEENS_9allocatorIcEEEENS4_IS6_EEE6secondB8ue170006Ev, symObjAddr: 0x1018, symBinAddr: 0x100001AC8, symSize: 0x24 }
  - { offsetInCU: 0x153E1, offset: 0x153E1, size: 0x8, addend: 0x0, symName: __ZNSt3__122__compressed_pair_elemINS_9allocatorINS_12basic_stringIcNS_11char_traitsIcEENS1_IcEEEEEELi1ELb1EE5__getB8ue170006Ev, symObjAddr: 0x103C, symBinAddr: 0x100001AEC, symSize: 0x14 }
  - { offsetInCU: 0x15407, offset: 0x15407, size: 0x8, addend: 0x0, symName: __ZNSt3__117__compressed_pairIPNS_12basic_stringIcNS_11char_traitsIcEENS_9allocatorIcEEEENS4_IS6_EEE5firstB8ue170006Ev, symObjAddr: 0x1050, symBinAddr: 0x100001B00, symSize: 0x24 }
  - { offsetInCU: 0x1542D, offset: 0x1542D, size: 0x8, addend: 0x0, symName: __ZNSt3__122__compressed_pair_elemIPNS_12basic_stringIcNS_11char_traitsIcEENS_9allocatorIcEEEELi0ELb0EE5__getB8ue170006Ev, symObjAddr: 0x1074, symBinAddr: 0x100001B24, symSize: 0x14 }
  - { offsetInCU: 0x15453, offset: 0x15453, size: 0x8, addend: 0x0, symName: __ZNKSt3__16vectorINS_12basic_stringIcNS_11char_traitsIcEENS_9allocatorIcEEEENS4_IS6_EEE31__annotate_contiguous_containerB8ue170006EPKvSA_SA_SA_, symObjAddr: 0x1088, symBinAddr: 0x100001B38, symSize: 0x20 }
  - { offsetInCU: 0x154A9, offset: 0x154A9, size: 0x8, addend: 0x0, symName: __ZNKSt3__16vectorINS_12basic_stringIcNS_11char_traitsIcEENS_9allocatorIcEEEENS4_IS6_EEE4dataB8ue170006Ev, symObjAddr: 0x10A8, symBinAddr: 0x100001B58, symSize: 0x28 }
  - { offsetInCU: 0x154CF, offset: 0x154CF, size: 0x8, addend: 0x0, symName: __ZNKSt3__16vectorINS_12basic_stringIcNS_11char_traitsIcEENS_9allocatorIcEEEENS4_IS6_EEE8capacityB8ue170006Ev, symObjAddr: 0x10D0, symBinAddr: 0x100001B80, symSize: 0x40 }
  - { offsetInCU: 0x154F5, offset: 0x154F5, size: 0x8, addend: 0x0, symName: __ZNKSt3__16vectorINS_12basic_stringIcNS_11char_traitsIcEENS_9allocatorIcEEEENS4_IS6_EEE9__end_capB8ue170006Ev, symObjAddr: 0x1124, symBinAddr: 0x100001BD4, symSize: 0x28 }
  - { offsetInCU: 0x1551B, offset: 0x1551B, size: 0x8, addend: 0x0, symName: __ZNKSt3__117__compressed_pairIPNS_12basic_stringIcNS_11char_traitsIcEENS_9allocatorIcEEEENS4_IS6_EEE5firstB8ue170006Ev, symObjAddr: 0x114C, symBinAddr: 0x100001BFC, symSize: 0x24 }
  - { offsetInCU: 0x15541, offset: 0x15541, size: 0x8, addend: 0x0, symName: __ZNKSt3__122__compressed_pair_elemIPNS_12basic_stringIcNS_11char_traitsIcEENS_9allocatorIcEEEELi0ELb0EE5__getB8ue170006Ev, symObjAddr: 0x1170, symBinAddr: 0x100001C20, symSize: 0x14 }
  - { offsetInCU: 0x15580, offset: 0x15580, size: 0x8, addend: 0x0, symName: __ZNSt3__16vectorINS_12basic_stringIcNS_11char_traitsIcEENS_9allocatorIcEEEENS4_IS6_EEE21_ConstructTransactionC1B8ue170006ERS8_m, symObjAddr: 0x1184, symBinAddr: 0x100001C34, symSize: 0x3C }
  - { offsetInCU: 0x155C8, offset: 0x155C8, size: 0x8, addend: 0x0, symName: __ZNSt3__16vectorINS_12basic_stringIcNS_11char_traitsIcEENS_9allocatorIcEEEENS4_IS6_EEE21_ConstructTransactionD1B8ue170006Ev, symObjAddr: 0x1240, symBinAddr: 0x100001CF0, symSize: 0x2C }
  - { offsetInCU: 0x155F2, offset: 0x155F2, size: 0x8, addend: 0x0, symName: __ZNSt3__16vectorINS_12basic_stringIcNS_11char_traitsIcEENS_9allocatorIcEEEENS4_IS6_EEE21_ConstructTransactionC2B8ue170006ERS8_m, symObjAddr: 0x126C, symBinAddr: 0x100001D1C, symSize: 0x4C }
  - { offsetInCU: 0x15658, offset: 0x15658, size: 0x8, addend: 0x0, symName: __ZNSt3__14pairIPKNS_12basic_stringIcNS_11char_traitsIcEENS_9allocatorIcEEEES8_EC1B8ue170006IS8_S8_LPv0EEEOT_OT0_, symObjAddr: 0x14C8, symBinAddr: 0x100001F78, symSize: 0x3C }
  - { offsetInCU: 0x156B6, offset: 0x156B6, size: 0x8, addend: 0x0, symName: __ZNSt3__14pairIPKNS_12basic_stringIcNS_11char_traitsIcEENS_9allocatorIcEEEES8_EC2B8ue170006IS8_S8_LPv0EEEOT_OT0_, symObjAddr: 0x1504, symBinAddr: 0x100001FB4, symSize: 0x34 }
  - { offsetInCU: 0x15714, offset: 0x15714, size: 0x8, addend: 0x0, symName: __ZNSt3__118__unwrap_iter_implIPKNS_12basic_stringIcNS_11char_traitsIcEENS_9allocatorIcEEEELb1EE8__unwrapB8ue170006ES8_, symObjAddr: 0x1538, symBinAddr: 0x100001FE8, symSize: 0x24 }
  - { offsetInCU: 0x15737, offset: 0x15737, size: 0x8, addend: 0x0, symName: __ZNSt3__129_AllocatorDestroyRangeReverseINS_9allocatorINS_12basic_stringIcNS_11char_traitsIcEENS1_IcEEEEEEPS6_EC1B8ue170006ERS7_RS8_SB_, symObjAddr: 0x15BC, symBinAddr: 0x10000206C, symSize: 0x44 }
  - { offsetInCU: 0x1578E, offset: 0x1578E, size: 0x8, addend: 0x0, symName: __ZNSt3__116allocator_traitsINS_9allocatorINS_12basic_stringIcNS_11char_traitsIcEENS1_IcEEEEEEE9constructB8ue170006IS6_JRKS6_EvEEvRS7_PT_DpOT0_, symObjAddr: 0x1600, symBinAddr: 0x1000020B0, symSize: 0x34 }
  - { offsetInCU: 0x157E5, offset: 0x157E5, size: 0x8, addend: 0x0, symName: __ZNSt3__128__exception_guard_exceptionsINS_29_AllocatorDestroyRangeReverseINS_9allocatorINS_12basic_stringIcNS_11char_traitsIcEENS2_IcEEEEEEPS7_EEE10__completeB8ue170006Ev, symObjAddr: 0x1634, symBinAddr: 0x1000020E4, symSize: 0x1C }
  - { offsetInCU: 0x1580B, offset: 0x1580B, size: 0x8, addend: 0x0, symName: __ZNSt3__128__exception_guard_exceptionsINS_29_AllocatorDestroyRangeReverseINS_9allocatorINS_12basic_stringIcNS_11char_traitsIcEENS2_IcEEEEEEPS7_EEED1B8ue170006Ev, symObjAddr: 0x1650, symBinAddr: 0x100002100, symSize: 0x2C }
  - { offsetInCU: 0x15835, offset: 0x15835, size: 0x8, addend: 0x0, symName: __ZNSt3__128__exception_guard_exceptionsINS_29_AllocatorDestroyRangeReverseINS_9allocatorINS_12basic_stringIcNS_11char_traitsIcEENS2_IcEEEEEEPS7_EEEC1B8ue170006ESA_, symObjAddr: 0x167C, symBinAddr: 0x10000212C, symSize: 0x34 }
  - { offsetInCU: 0x1586E, offset: 0x1586E, size: 0x8, addend: 0x0, symName: __ZNSt3__128__exception_guard_exceptionsINS_29_AllocatorDestroyRangeReverseINS_9allocatorINS_12basic_stringIcNS_11char_traitsIcEENS2_IcEEEEEEPS7_EEEC2B8ue170006ESA_, symObjAddr: 0x16B0, symBinAddr: 0x100002160, symSize: 0x30 }
  - { offsetInCU: 0x158A7, offset: 0x158A7, size: 0x8, addend: 0x0, symName: __ZNSt3__129_AllocatorDestroyRangeReverseINS_9allocatorINS_12basic_stringIcNS_11char_traitsIcEENS1_IcEEEEEEPS6_EC2B8ue170006ERS7_RS8_SB_, symObjAddr: 0x16E0, symBinAddr: 0x100002190, symSize: 0x38 }
  - { offsetInCU: 0x158FE, offset: 0x158FE, size: 0x8, addend: 0x0, symName: __ZNSt3__19allocatorINS_12basic_stringIcNS_11char_traitsIcEENS0_IcEEEEE9constructB8ue170006IS5_JRKS5_EEEvPT_DpOT0_, symObjAddr: 0x1718, symBinAddr: 0x1000021C8, symSize: 0x30 }
  - { offsetInCU: 0x15954, offset: 0x15954, size: 0x8, addend: 0x0, symName: __ZNSt3__128__exception_guard_exceptionsINS_29_AllocatorDestroyRangeReverseINS_9allocatorINS_12basic_stringIcNS_11char_traitsIcEENS2_IcEEEEEEPS7_EEED2B8ue170006Ev, symObjAddr: 0x1748, symBinAddr: 0x1000021F8, symSize: 0x50 }
  - { offsetInCU: 0x1597E, offset: 0x1597E, size: 0x8, addend: 0x0, symName: __ZNKSt3__129_AllocatorDestroyRangeReverseINS_9allocatorINS_12basic_stringIcNS_11char_traitsIcEENS1_IcEEEEEEPS6_EclB8ue170006Ev, symObjAddr: 0x1798, symBinAddr: 0x100002248, symSize: 0x68 }
  - { offsetInCU: 0x159A4, offset: 0x159A4, size: 0x8, addend: 0x0, symName: __ZNSt3__116reverse_iteratorIPNS_12basic_stringIcNS_11char_traitsIcEENS_9allocatorIcEEEEEC1B8ue170006ES7_, symObjAddr: 0x1870, symBinAddr: 0x100002320, symSize: 0x34 }
  - { offsetInCU: 0x159DC, offset: 0x159DC, size: 0x8, addend: 0x0, symName: __ZNSt3__116allocator_traitsINS_9allocatorINS_12basic_stringIcNS_11char_traitsIcEENS1_IcEEEEEEE7destroyB8ue170006IS6_vEEvRS7_PT_, symObjAddr: 0x18EC, symBinAddr: 0x10000239C, symSize: 0x2C }
  - { offsetInCU: 0x15A19, offset: 0x15A19, size: 0x8, addend: 0x0, symName: __ZNSt3__116reverse_iteratorIPNS_12basic_stringIcNS_11char_traitsIcEENS_9allocatorIcEEEEEppB8ue170006Ev, symObjAddr: 0x193C, symBinAddr: 0x1000023EC, symSize: 0x20 }
  - { offsetInCU: 0x15A3F, offset: 0x15A3F, size: 0x8, addend: 0x0, symName: __ZNKSt3__116reverse_iteratorIPNS_12basic_stringIcNS_11char_traitsIcEENS_9allocatorIcEEEEE4baseB8ue170006Ev, symObjAddr: 0x195C, symBinAddr: 0x10000240C, symSize: 0x18 }
  - { offsetInCU: 0x15A65, offset: 0x15A65, size: 0x8, addend: 0x0, symName: __ZNSt3__19allocatorINS_12basic_stringIcNS_11char_traitsIcEENS0_IcEEEEE7destroyB8ue170006EPS5_, symObjAddr: 0x1974, symBinAddr: 0x100002424, symSize: 0x28 }
  - { offsetInCU: 0x15A9E, offset: 0x15A9E, size: 0x8, addend: 0x0, symName: __ZNSt3__119__to_address_helperINS_16reverse_iteratorIPNS_12basic_stringIcNS_11char_traitsIcEENS_9allocatorIcEEEEEEvE6__callB8ue170006ERKS9_, symObjAddr: 0x199C, symBinAddr: 0x10000244C, symSize: 0x38 }
  - { offsetInCU: 0x15AC1, offset: 0x15AC1, size: 0x8, addend: 0x0, symName: __ZNKSt3__116reverse_iteratorIPNS_12basic_stringIcNS_11char_traitsIcEENS_9allocatorIcEEEEEptB8ue170006Ev, symObjAddr: 0x19D4, symBinAddr: 0x100002484, symSize: 0x24 }
  - { offsetInCU: 0x15AE7, offset: 0x15AE7, size: 0x8, addend: 0x0, symName: __ZNKSt3__116reverse_iteratorIPNS_12basic_stringIcNS_11char_traitsIcEENS_9allocatorIcEEEEEdeB8ue170006Ev, symObjAddr: 0x19F8, symBinAddr: 0x1000024A8, symSize: 0x28 }
  - { offsetInCU: 0x15B1C, offset: 0x15B1C, size: 0x8, addend: 0x0, symName: __ZNSt3__116reverse_iteratorIPNS_12basic_stringIcNS_11char_traitsIcEENS_9allocatorIcEEEEEC2B8ue170006ES7_, symObjAddr: 0x1A20, symBinAddr: 0x1000024D0, symSize: 0x28 }
  - { offsetInCU: 0x15B54, offset: 0x15B54, size: 0x8, addend: 0x0, symName: __ZNSt3__118__unwrap_iter_implIPNS_12basic_stringIcNS_11char_traitsIcEENS_9allocatorIcEEEELb1EE8__unwrapB8ue170006ES7_, symObjAddr: 0x1A48, symBinAddr: 0x1000024F8, symSize: 0x24 }
  - { offsetInCU: 0x15B77, offset: 0x15B77, size: 0x8, addend: 0x0, symName: __ZNSt3__118__unwrap_iter_implIPNS_12basic_stringIcNS_11char_traitsIcEENS_9allocatorIcEEEELb1EE8__rewrapB8ue170006ES7_S7_, symObjAddr: 0x1A6C, symBinAddr: 0x10000251C, symSize: 0x58 }
  - { offsetInCU: 0x15BA8, offset: 0x15BA8, size: 0x8, addend: 0x0, symName: __ZNSt3__16vectorINS_12basic_stringIcNS_11char_traitsIcEENS_9allocatorIcEEEENS4_IS6_EEE21_ConstructTransactionD2B8ue170006Ev, symObjAddr: 0x1AC4, symBinAddr: 0x100002574, symSize: 0x20 }
  - { offsetInCU: 0x15BD2, offset: 0x15BD2, size: 0x8, addend: 0x0, symName: __ZNSt3__128__exception_guard_exceptionsINS_6vectorINS_12basic_stringIcNS_11char_traitsIcEENS_9allocatorIcEEEENS5_IS7_EEE16__destroy_vectorEED2B8ue170006Ev, symObjAddr: 0x1AE4, symBinAddr: 0x100002594, symSize: 0x50 }
  - { offsetInCU: 0x15BFC, offset: 0x15BFC, size: 0x8, addend: 0x0, symName: __ZNSt3__16vectorINS_12basic_stringIcNS_11char_traitsIcEENS_9allocatorIcEEEENS4_IS6_EEE16__destroy_vectorclB8ue170006Ev, symObjAddr: 0x1B34, symBinAddr: 0x1000025E4, symSize: 0x90 }
  - { offsetInCU: 0x15C22, offset: 0x15C22, size: 0x8, addend: 0x0, symName: __ZNSt3__16vectorINS_12basic_stringIcNS_11char_traitsIcEENS_9allocatorIcEEEENS4_IS6_EEE7__clearB8ue170006Ev, symObjAddr: 0x1BC4, symBinAddr: 0x100002674, symSize: 0x28 }
  - { offsetInCU: 0x15C48, offset: 0x15C48, size: 0x8, addend: 0x0, symName: __ZNKSt3__16vectorINS_12basic_stringIcNS_11char_traitsIcEENS_9allocatorIcEEEENS4_IS6_EEE17__annotate_deleteB8ue170006Ev, symObjAddr: 0x1BEC, symBinAddr: 0x10000269C, symSize: 0xD4 }
  - { offsetInCU: 0x15C6E, offset: 0x15C6E, size: 0x8, addend: 0x0, symName: __ZNSt3__116allocator_traitsINS_9allocatorINS_12basic_stringIcNS_11char_traitsIcEENS1_IcEEEEEEE10deallocateB8ue170006ERS7_PS6_m, symObjAddr: 0x1CC0, symBinAddr: 0x100002770, symSize: 0x34 }
  - { offsetInCU: 0x15CB0, offset: 0x15CB0, size: 0x8, addend: 0x0, symName: __ZNSt3__16vectorINS_12basic_stringIcNS_11char_traitsIcEENS_9allocatorIcEEEENS4_IS6_EEE22__base_destruct_at_endB8ue170006EPS6_, symObjAddr: 0x1CF4, symBinAddr: 0x1000027A4, symSize: 0x8C }
  - { offsetInCU: 0x15CF4, offset: 0x15CF4, size: 0x8, addend: 0x0, symName: __ZNKSt3__16vectorINS_12basic_stringIcNS_11char_traitsIcEENS_9allocatorIcEEEENS4_IS6_EEE4sizeB8ue170006Ev, symObjAddr: 0x1D80, symBinAddr: 0x100002830, symSize: 0x28 }
  - { offsetInCU: 0x15D1A, offset: 0x15D1A, size: 0x8, addend: 0x0, symName: __ZNSt3__19allocatorINS_12basic_stringIcNS_11char_traitsIcEENS0_IcEEEEE10deallocateB8ue170006EPS5_m, symObjAddr: 0x1DA8, symBinAddr: 0x100002858, symSize: 0x44 }
  - { offsetInCU: 0x15D5C, offset: 0x15D5C, size: 0x8, addend: 0x0, symName: __ZNSt3__16vectorINS_12basic_stringIcNS_11char_traitsIcEENS_9allocatorIcEEEENS4_IS6_EEED2B8ue170006Ev, symObjAddr: 0x1EF4, symBinAddr: 0x1000029A4, symSize: 0x40 }
  - { offsetInCU: 0x5C, offset: 0x174BD, size: 0x8, addend: 0x0, symName: __ZNSt3__119piecewise_constructE, symObjAddr: 0xCA86, symBinAddr: 0x10001DBE0, symSize: 0x0 }
  - { offsetInCU: 0x3352, offset: 0x1A7B3, size: 0x8, addend: 0x0, symName: __ZNSt3__16chronogtB8ue170006IdNS_5ratioILl1ELl1EEEdS3_EEbRKNS0_8durationIT_T0_EERKNS4_IT1_T2_EE, symObjAddr: 0xBA2C, symBinAddr: 0x10000CF64, symSize: 0x30 }
  - { offsetInCU: 0x33B3, offset: 0x1A814, size: 0x8, addend: 0x0, symName: __ZNSt3__16chronoltB8ue170006IdNS_5ratioILl1ELl1EEEeS3_EEbRKNS0_8durationIT_T0_EERKNS4_IT1_T2_EE, symObjAddr: 0xBA98, symBinAddr: 0x10000CFD0, symSize: 0x34 }
  - { offsetInCU: 0x3414, offset: 0x1A875, size: 0x8, addend: 0x0, symName: __ZNSt3__16chrono13duration_castB8ue170006INS0_8durationIxNS_5ratioILl1ELl1000000000EEEEEdNS3_ILl1ELl1EEEEENS_9enable_ifIXsr13__is_durationIT_EE5valueES8_E4typeERKNS2_IT0_T1_EE, symObjAddr: 0xBACC, symBinAddr: 0x10000D004, symSize: 0x30 }
  - { offsetInCU: 0x345B, offset: 0x1A8BC, size: 0x8, addend: 0x0, symName: __ZNSt3__16chronoltB8ue170006IxNS_5ratioILl1ELl1000000000EEEdNS2_ILl1ELl1EEEEEbRKNS0_8durationIT_T0_EERKNS5_IT1_T2_EE, symObjAddr: 0xBAFC, symBinAddr: 0x10000D034, symSize: 0x34 }
  - { offsetInCU: 0x34BC, offset: 0x1A91D, size: 0x8, addend: 0x0, symName: __ZNSt3__16chronoltB8ue170006IdNS_5ratioILl1ELl1EEEdS3_EEbRKNS0_8durationIT_T0_EERKNS4_IT1_T2_EE, symObjAddr: 0xBB8C, symBinAddr: 0x10000D0C4, symSize: 0x34 }
  - { offsetInCU: 0x359A, offset: 0x1A9FB, size: 0x8, addend: 0x0, symName: __ZNSt3__16chrono13duration_castB8ue170006INS0_8durationIeNS_5ratioILl1ELl1EEEEEdS4_EENS_9enable_ifIXsr13__is_durationIT_EE5valueES7_E4typeERKNS2_IT0_T1_EE, symObjAddr: 0xBD34, symBinAddr: 0x10000D26C, symSize: 0x30 }
  - { offsetInCU: 0x362C, offset: 0x1AA8D, size: 0x8, addend: 0x0, symName: __ZNSt3__16chrono13duration_castB8ue170006INS0_8durationIdNS_5ratioILl1ELl1000000000EEEEExS4_EENS_9enable_ifIXsr13__is_durationIT_EE5valueES7_E4typeERKNS2_IT0_T1_EE, symObjAddr: 0xC00C, symBinAddr: 0x10000D544, symSize: 0x30 }
  - { offsetInCU: 0x36BE, offset: 0x1AB1F, size: 0x8, addend: 0x0, symName: __ZNSt3__16chrono13duration_castB8ue170006INS0_8durationIdNS_5ratioILl1ELl1000000000EEEEEdNS3_ILl1ELl1EEEEENS_9enable_ifIXsr13__is_durationIT_EE5valueES8_E4typeERKNS2_IT0_T1_EE, symObjAddr: 0xC144, symBinAddr: 0x10000D67C, symSize: 0x30 }
  - { offsetInCU: 0x8421, offset: 0x1F882, size: 0x8, addend: 0x0, symName: __ZNSt3__17advanceB8ue170006IPNS_12basic_stringIcNS_11char_traitsIcEENS_9allocatorIcEEEEllvEEvRT_T0_, symObjAddr: 0x3640, symBinAddr: 0x10000580C, symSize: 0x38 }
  - { offsetInCU: 0x85D0, offset: 0x1FA31, size: 0x8, addend: 0x0, symName: __ZNSt3__124__put_character_sequenceB8ue170006IcNS_11char_traitsIcEEEERNS_13basic_ostreamIT_T0_EES7_PKS4_m, symObjAddr: 0x4848, symBinAddr: 0x100005ED0, symSize: 0x1EC }
  - { offsetInCU: 0x1224F, offset: 0x296B0, size: 0x8, addend: 0x0, symName: __ZNSt3__1lsB8ue170006INS_11char_traitsIcEEEERNS_13basic_ostreamIcT_EES6_PKc, symObjAddr: 0x5B8, symBinAddr: 0x100002F9C, symSize: 0x48 }
  - { offsetInCU: 0x12295, offset: 0x296F6, size: 0x8, addend: 0x0, symName: __ZNSt3__14endlB8ue170006IcNS_11char_traitsIcEEEERNS_13basic_ostreamIT_T0_EES7_, symObjAddr: 0x62C, symBinAddr: 0x100003010, symSize: 0x58 }
  - { offsetInCU: 0x122D5, offset: 0x29736, size: 0x8, addend: 0x0, symName: __ZNSt3__1rsB8ue170006IcNS_11char_traitsIcEENS_9allocatorIcEEEERNS_13basic_istreamIT_T0_EES9_RNS_12basic_stringIS6_S7_T1_EE, symObjAddr: 0x6B0, symBinAddr: 0x100003094, symSize: 0x30C }
  - { offsetInCU: 0x123A4, offset: 0x29805, size: 0x8, addend: 0x0, symName: __ZNSt3__1lsB8ue170006IcNS_11char_traitsIcEENS_9allocatorIcEEEERNS_13basic_ostreamIT_T0_EES9_RKNS_12basic_stringIS6_S7_T1_EE, symObjAddr: 0xB48, symBinAddr: 0x10000352C, symSize: 0x4C }
  - { offsetInCU: 0x12401, offset: 0x29862, size: 0x8, addend: 0x0, symName: __ZNSt3__111this_thread9sleep_forB8ue170006IdNS_5ratioILl1ELl1EEEEEvRKNS_6chrono8durationIT_T0_EE, symObjAddr: 0x14D8, symBinAddr: 0x100003E90, symSize: 0xB8 }
  - { offsetInCU: 0x12486, offset: 0x298E7, size: 0x8, addend: 0x0, symName: __ZNSt3__1neB8ue170006ERKNS_19__hash_map_iteratorINS_15__hash_iteratorIPNS_11__hash_nodeINS_17__hash_value_typeINS_12basic_stringIcNS_11char_traitsIcEENS_9allocatorIcEEEEP6TraderEEPvEEEEEESJ_, symObjAddr: 0x18D8, symBinAddr: 0x100004290, symSize: 0x30 }
  - { offsetInCU: 0x124C3, offset: 0x29924, size: 0x8, addend: 0x0, symName: __ZNSt3__1eqB8ue170006IcNS_11char_traitsIcEENS_9allocatorIcEEEEbRKNS_12basic_stringIT_T0_T1_EEPKS6_, symObjAddr: 0x1964, symBinAddr: 0x10000431C, symSize: 0xAC }
  - { offsetInCU: 0x1252A, offset: 0x2998B, size: 0x8, addend: 0x0, symName: __ZNSt3__1neB8ue170006IPNS_12basic_stringIcNS_11char_traitsIcEENS_9allocatorIcEEEEEEbRKNS_11__wrap_iterIT_EESC_, symObjAddr: 0x1AC8, symBinAddr: 0x100004480, symSize: 0x34 }
  - { offsetInCU: 0x1256D, offset: 0x299CE, size: 0x8, addend: 0x0, symName: __ZNSt3__1eqB8ue170006IPNS_12basic_stringIcNS_11char_traitsIcEENS_9allocatorIcEEEEEEbRKNS_11__wrap_iterIT_EESC_, symObjAddr: 0x1C60, symBinAddr: 0x100004618, symSize: 0x48 }
  - { offsetInCU: 0x125E3, offset: 0x29A44, size: 0x8, addend: 0x0, symName: __ZNSt3__17launderB8ue170006INS_4pairIKNS_12basic_stringIcNS_11char_traitsIcEENS_9allocatorIcEEEEP6TraderEEEEPT_SD_, symObjAddr: 0x273C, symBinAddr: 0x100004FE4, symSize: 0x24 }
  - { offsetInCU: 0x1261A, offset: 0x29A7B, size: 0x8, addend: 0x0, symName: __ZNSt3__19__launderB8ue170006INS_4pairIKNS_12basic_stringIcNS_11char_traitsIcEENS_9allocatorIcEEEEP6TraderEEEEPT_SD_, symObjAddr: 0x2760, symBinAddr: 0x100005008, symSize: 0x14 }
  - { offsetInCU: 0x12651, offset: 0x29AB2, size: 0x8, addend: 0x0, symName: __ZNSt3__18distanceB8ue170006IPNS_12basic_stringIcNS_11char_traitsIcEENS_9allocatorIcEEEEEENS_15iterator_traitsIT_E15difference_typeES9_S9_, symObjAddr: 0x3288, symBinAddr: 0x100005508, symSize: 0x2C }
  - { offsetInCU: 0x12694, offset: 0x29AF5, size: 0x8, addend: 0x0, symName: __ZNSt3__14nextB8ue170006IPNS_12basic_stringIcNS_11char_traitsIcEENS_9allocatorIcEEEEEENS_9enable_ifIXsr29__has_input_iterator_categoryIT_EE5valueES9_E4typeES9_NS_15iterator_traitsIS9_E15difference_typeE, symObjAddr: 0x32B4, symBinAddr: 0x100005534, symSize: 0x34 }
  - { offsetInCU: 0x126D7, offset: 0x29B38, size: 0x8, addend: 0x0, symName: __ZNSt3__14copyB8ue170006IPNS_12basic_stringIcNS_11char_traitsIcEENS_9allocatorIcEEEES7_EET0_T_S9_S8_, symObjAddr: 0x32E8, symBinAddr: 0x100005568, symSize: 0x40 }
  - { offsetInCU: 0x12731, offset: 0x29B92, size: 0x8, addend: 0x0, symName: __ZNSt3__16__copyB8ue170006INS_17_ClassicAlgPolicyEPNS_12basic_stringIcNS_11char_traitsIcEENS_9allocatorIcEEEES8_S8_EENS_4pairIT0_T2_EESA_T1_SB_, symObjAddr: 0x33B4, symBinAddr: 0x100005634, symSize: 0x44 }
  - { offsetInCU: 0x1279D, offset: 0x29BFE, size: 0x8, addend: 0x0, symName: __ZNSt3__121__convert_to_integralB8ue170006El, symObjAddr: 0x3678, symBinAddr: 0x100005844, symSize: 0x14 }
  - { offsetInCU: 0x127C9, offset: 0x29C2A, size: 0x8, addend: 0x0, symName: __ZNSt3__19__advanceB8ue170006IPNS_12basic_stringIcNS_11char_traitsIcEENS_9allocatorIcEEEEEEvRT_NS_15iterator_traitsIS8_E15difference_typeENS_26random_access_iterator_tagE, symObjAddr: 0x368C, symBinAddr: 0x100005858, symSize: 0x30 }
  - { offsetInCU: 0x12814, offset: 0x29C75, size: 0x8, addend: 0x0, symName: __ZNSt3__130__uninitialized_allocator_copyB8ue170006INS_9allocatorINS_12basic_stringIcNS_11char_traitsIcEENS1_IcEEEEEEPS6_S8_S8_EET2_RT_T0_T1_S9_, symObjAddr: 0x36F8, symBinAddr: 0x100005888, symSize: 0x80 }
  - { offsetInCU: 0x128B1, offset: 0x29D12, size: 0x8, addend: 0x0, symName: __ZNSt3__114__unwrap_rangeB8ue170006IPNS_12basic_stringIcNS_11char_traitsIcEENS_9allocatorIcEEEES7_EENS_4pairIT0_S9_EET_SB_, symObjAddr: 0x37F0, symBinAddr: 0x100005908, symSize: 0x60 }
  - { offsetInCU: 0x128FD, offset: 0x29D5E, size: 0x8, addend: 0x0, symName: __ZNSt3__135__uninitialized_allocator_copy_implB8ue170006INS_9allocatorINS_12basic_stringIcNS_11char_traitsIcEENS1_IcEEEEEEPS6_S8_S8_EET2_RT_T0_T1_S9_, symObjAddr: 0x3850, symBinAddr: 0x100005968, symSize: 0xF4 }
  - { offsetInCU: 0x1299B, offset: 0x29DFC, size: 0x8, addend: 0x0, symName: __ZNSt3__19make_pairB8ue170006IPNS_12basic_stringIcNS_11char_traitsIcEENS_9allocatorIcEEEES7_EENS_4pairINS_18__unwrap_ref_decayIT_E4typeENS9_IT0_E4typeEEEOSA_OSD_, symObjAddr: 0x39A4, symBinAddr: 0x100005A5C, symSize: 0x38 }
  - { offsetInCU: 0x12ABE, offset: 0x29F1F, size: 0x8, addend: 0x0, symName: __ZNSt3__123__dispatch_copy_or_moveB8ue170006INS_17_ClassicAlgPolicyENS_11__copy_loopIS1_EENS_14__copy_trivialEPNS_12basic_stringIcNS_11char_traitsIcEENS_9allocatorIcEEEESB_SB_EENS_4pairIT2_T4_EESD_T3_SE_, symObjAddr: 0x3F6C, symBinAddr: 0x100005B68, symSize: 0x44 }
  - { offsetInCU: 0x12B3C, offset: 0x29F9D, size: 0x8, addend: 0x0, symName: __ZNSt3__121__unwrap_and_dispatchB8ue170006INS_10__overloadINS_11__copy_loopINS_17_ClassicAlgPolicyEEENS_14__copy_trivialEEEPNS_12basic_stringIcNS_11char_traitsIcEENS_9allocatorIcEEEESD_SD_Li0EEENS_4pairIT0_T2_EESF_T1_SG_, symObjAddr: 0x3FB0, symBinAddr: 0x100005BAC, symSize: 0xB4 }
  - { offsetInCU: 0x12C27, offset: 0x2A088, size: 0x8, addend: 0x0, symName: __ZNSt3__114__rewrap_rangeB8ue170006IPNS_12basic_stringIcNS_11char_traitsIcEENS_9allocatorIcEEEES7_EET_S8_T0_, symObjAddr: 0x40EC, symBinAddr: 0x100005CE8, symSize: 0x2C }
  - { offsetInCU: 0x12C73, offset: 0x2A0D4, size: 0x8, addend: 0x0, symName: __ZNSt3__13maxB8ue170006ImEERKT_S3_S3_, symObjAddr: 0x47A0, symBinAddr: 0x100005E28, symSize: 0x2C }
  - { offsetInCU: 0x12CB6, offset: 0x2A117, size: 0x8, addend: 0x0, symName: __ZNSt3__13maxB8ue170006ImNS_6__lessIvvEEEERKT_S5_S5_T0_, symObjAddr: 0x47CC, symBinAddr: 0x100005E54, symSize: 0x54 }
  - { offsetInCU: 0x12D10, offset: 0x2A171, size: 0x8, addend: 0x0, symName: __ZNSt3__110__distanceB8ue170006IPNS_12basic_stringIcNS_11char_traitsIcEENS_9allocatorIcEEEEEENS_15iterator_traitsIT_E15difference_typeES9_S9_NS_26random_access_iterator_tagE, symObjAddr: 0x4820, symBinAddr: 0x100005EA8, symSize: 0x28 }
  - { offsetInCU: 0x12D5E, offset: 0x2A1BF, size: 0x8, addend: 0x0, symName: __ZNSt3__116__pad_and_outputB8ue170006IcNS_11char_traitsIcEEEENS_19ostreambuf_iteratorIT_T0_EES6_PKS4_S8_S8_RNS_8ios_baseES4_, symObjAddr: 0x4A84, symBinAddr: 0x1000060D8, symSize: 0x240 }
  - { offsetInCU: 0x12E2E, offset: 0x2A28F, size: 0x8, addend: 0x0, symName: __ZNSt3__112__to_addressB8ue170006IcEEPT_S2_, symObjAddr: 0x4FEC, symBinAddr: 0x100006548, symSize: 0x14 }
  - { offsetInCU: 0x12E96, offset: 0x2A2F7, size: 0x8, addend: 0x0, symName: __ZNSt3__19use_facetB8ue170006INS_5ctypeIcEEEERKT_RKNS_6localeE, symObjAddr: 0x52A4, symBinAddr: 0x100006800, symSize: 0x2C }
  - { offsetInCU: 0x13832, offset: 0x2AC93, size: 0x8, addend: 0x0, symName: __ZNSt3__17launderB8ue170006INS_4pairIKNS_12basic_stringIcNS_11char_traitsIcEENS_9allocatorIcEEEEiEEEEPT_SB_, symObjAddr: 0x6230, symBinAddr: 0x100007768, symSize: 0x24 }
  - { offsetInCU: 0x13869, offset: 0x2ACCA, size: 0x8, addend: 0x0, symName: __ZNSt3__19__launderB8ue170006INS_4pairIKNS_12basic_stringIcNS_11char_traitsIcEENS_9allocatorIcEEEEiEEEEPT_SB_, symObjAddr: 0x6254, symBinAddr: 0x10000778C, symSize: 0x14 }
  - { offsetInCU: 0x138D7, offset: 0x2AD38, size: 0x8, addend: 0x0, symName: __ZNSt3__116forward_as_tupleB8ue170006IJRKNS_12basic_stringIcNS_11char_traitsIcEENS_9allocatorIcEEEEEEENS_5tupleIJDpOT_EEESC_, symObjAddr: 0x6A28, symBinAddr: 0x100007F60, symSize: 0x2C }
  - { offsetInCU: 0x13910, offset: 0x2AD71, size: 0x8, addend: 0x0, symName: __ZNSt3__116forward_as_tupleB8ue170006IJEEENS_5tupleIJDpOT_EEES4_, symObjAddr: 0x6A54, symBinAddr: 0x100007F8C, symSize: 0x4 }
  - { offsetInCU: 0x13934, offset: 0x2AD95, size: 0x8, addend: 0x0, symName: __ZNSt3__116__constrain_hashB8ue170006Emm, symObjAddr: 0x6B04, symBinAddr: 0x10000803C, symSize: 0x98 }
  - { offsetInCU: 0x1396E, offset: 0x2ADCF, size: 0x8, addend: 0x0, symName: __ZNSt3__116__is_hash_power2B8ue170006Em, symObjAddr: 0x6E24, symBinAddr: 0x10000835C, symSize: 0x50 }
  - { offsetInCU: 0x1399A, offset: 0x2ADFB, size: 0x8, addend: 0x0, symName: __ZNSt3__116__do_string_hashB8ue170006IPKcEEmT_S3_, symObjAddr: 0x707C, symBinAddr: 0x1000085B4, symSize: 0x3C }
  - { offsetInCU: 0x139E0, offset: 0x2AE41, size: 0x8, addend: 0x0, symName: __ZNSt3__110__loadwordB8ue170006ImEET_PKv, symObjAddr: 0x7AEC, symBinAddr: 0x100009024, symSize: 0x20 }
  - { offsetInCU: 0x13A24, offset: 0x2AE85, size: 0x8, addend: 0x0, symName: __ZNSt3__14swapB8ue170006ImEENS_9enable_ifIXaasr21is_move_constructibleIT_EE5valuesr18is_move_assignableIS2_EE5valueEvE4typeERS2_S5_, symObjAddr: 0x7CA8, symBinAddr: 0x1000091E0, symSize: 0x3C }
  - { offsetInCU: 0x13A76, offset: 0x2AED7, size: 0x8, addend: 0x0, symName: __ZNSt3__110__loadwordB8ue170006IjEET_PKv, symObjAddr: 0x7D38, symBinAddr: 0x100009270, symSize: 0x20 }
  - { offsetInCU: 0x13ABA, offset: 0x2AF1B, size: 0x8, addend: 0x0, symName: __ZNSt3__112__to_addressB8ue170006IKcEEPT_S3_, symObjAddr: 0x7EA0, symBinAddr: 0x1000093D8, symSize: 0x14 }
  - { offsetInCU: 0x13B22, offset: 0x2AF83, size: 0x8, addend: 0x0, symName: __ZNSt3__1eqB8ue170006INS_9allocatorIcEEEEbRKNS_12basic_stringIcNS_11char_traitsIcEET_EES9_, symObjAddr: 0x8150, symBinAddr: 0x100009688, symSize: 0x148 }
  - { offsetInCU: 0x13B95, offset: 0x2AFF6, size: 0x8, addend: 0x0, symName: __ZNSt3__17launderB8ue170006IKNS_4pairIKNS_12basic_stringIcNS_11char_traitsIcEENS_9allocatorIcEEEEiEEEEPT_SC_, symObjAddr: 0x82CC, symBinAddr: 0x100009804, symSize: 0x24 }
  - { offsetInCU: 0x13BCC, offset: 0x2B02D, size: 0x8, addend: 0x0, symName: __ZNSt3__19__launderB8ue170006IKNS_4pairIKNS_12basic_stringIcNS_11char_traitsIcEENS_9allocatorIcEEEEiEEEEPT_SC_, symObjAddr: 0x82F0, symBinAddr: 0x100009828, symSize: 0x14 }
  - { offsetInCU: 0x13C2D, offset: 0x2B08E, size: 0x8, addend: 0x0, symName: __ZNSt3__13getB8ue170006ILm0EJRKNS_12basic_stringIcNS_11char_traitsIcEENS_9allocatorIcEEEEEEERNS_13tuple_elementIXT_ENS_5tupleIJDpT0_EEEE4typeERSD_, symObjAddr: 0x8704, symBinAddr: 0x100009C3C, symSize: 0x24 }
  - { offsetInCU: 0x13C70, offset: 0x2B0D1, size: 0x8, addend: 0x0, symName: __ZNSt3__116__next_hash_pow2B8ue170006Em, symObjAddr: 0x8C08, symBinAddr: 0x10000A140, symSize: 0x6C }
  - { offsetInCU: 0x13C9C, offset: 0x2B0FD, size: 0x8, addend: 0x0, symName: __ZNSt3__112__libcpp_clzB8ue170006Em, symObjAddr: 0x8DCC, symBinAddr: 0x10000A304, symSize: 0x1C }
  - { offsetInCU: 0x13D3D, offset: 0x2B19E, size: 0x8, addend: 0x0, symName: __ZNSt3__1neB8ue170006ERKNS_25__hash_map_const_iteratorINS_21__hash_const_iteratorIPNS_11__hash_nodeINS_17__hash_value_typeINS_12basic_stringIcNS_11char_traitsIcEENS_9allocatorIcEEEEiEEPvEEEEEESH_, symObjAddr: 0x9958, symBinAddr: 0x10000AE90, symSize: 0x30 }
  - { offsetInCU: 0x13D7A, offset: 0x2B1DB, size: 0x8, addend: 0x0, symName: __ZNSt3__1neB8ue170006ERKNS_21__hash_const_iteratorIPNS_11__hash_nodeINS_17__hash_value_typeINS_12basic_stringIcNS_11char_traitsIcEENS_9allocatorIcEEEEiEEPvEEEESF_, symObjAddr: 0x9A2C, symBinAddr: 0x10000AF64, symSize: 0x34 }
  - { offsetInCU: 0x13DB7, offset: 0x2B218, size: 0x8, addend: 0x0, symName: __ZNSt3__1eqB8ue170006ERKNS_21__hash_const_iteratorIPNS_11__hash_nodeINS_17__hash_value_typeINS_12basic_stringIcNS_11char_traitsIcEENS_9allocatorIcEEEEiEEPvEEEESF_, symObjAddr: 0x9A60, symBinAddr: 0x10000AF98, symSize: 0x30 }
  - { offsetInCU: 0x13E27, offset: 0x2B288, size: 0x8, addend: 0x0, symName: __ZNSt3__17launderB8ue170006IKNS_4pairIKNS_12basic_stringIcNS_11char_traitsIcEENS_9allocatorIcEEEEP6TraderEEEEPT_SE_, symObjAddr: 0xADD0, symBinAddr: 0x10000C308, symSize: 0x24 }
  - { offsetInCU: 0x13E5E, offset: 0x2B2BF, size: 0x8, addend: 0x0, symName: __ZNSt3__19__launderB8ue170006IKNS_4pairIKNS_12basic_stringIcNS_11char_traitsIcEENS_9allocatorIcEEEEP6TraderEEEEPT_SE_, symObjAddr: 0xADF4, symBinAddr: 0x10000C32C, symSize: 0x14 }
  - { offsetInCU: 0x140D0, offset: 0x2B531, size: 0x8, addend: 0x0, symName: __ZNSt3__1neB8ue170006ERKNS_15__hash_iteratorIPNS_11__hash_nodeINS_17__hash_value_typeINS_12basic_stringIcNS_11char_traitsIcEENS_9allocatorIcEEEEP6TraderEEPvEEEESH_, symObjAddr: 0xC2A8, symBinAddr: 0x10000D7E0, symSize: 0x34 }
  - { offsetInCU: 0x1410D, offset: 0x2B56E, size: 0x8, addend: 0x0, symName: __ZNSt3__1eqB8ue170006ERKNS_15__hash_iteratorIPNS_11__hash_nodeINS_17__hash_value_typeINS_12basic_stringIcNS_11char_traitsIcEENS_9allocatorIcEEEEP6TraderEEPvEEEESH_, symObjAddr: 0xC2DC, symBinAddr: 0x10000D814, symSize: 0x30 }
  - { offsetInCU: 0x1520C, offset: 0x2C66D, size: 0x8, addend: 0x0, symName: __ZNKSt3__16chrono13__duration_ltINS0_8durationIdNS_5ratioILl1ELl1EEEEENS2_IeS4_EEEclB8ue170006ERKS5_RKS6_, symObjAddr: 0xBC2C, symBinAddr: 0x10000D164, symSize: 0x6C }
  - { offsetInCU: 0x15289, offset: 0x2C6EA, size: 0x8, addend: 0x0, symName: __ZNKSt3__16chrono15__duration_castINS0_8durationIdNS_5ratioILl1ELl1EEEEENS2_IxNS3_ILl1ELl1000000000EEEEENS3_ILl1000000000ELl1EEELb0ELb1EEclB8ue170006ERKS5_, symObjAddr: 0xBE08, symBinAddr: 0x10000D340, symSize: 0x50 }
  - { offsetInCU: 0x152D2, offset: 0x2C733, size: 0x8, addend: 0x0, symName: __ZNKSt3__16chrono13__duration_ltINS0_8durationIxNS_5ratioILl1ELl1000000000EEEEENS2_IdNS3_ILl1ELl1EEEEEEclB8ue170006ERKS5_RKS7_, symObjAddr: 0xBEBC, symBinAddr: 0x10000D3F4, symSize: 0x78 }
  - { offsetInCU: 0x1534F, offset: 0x2C7B0, size: 0x8, addend: 0x0, symName: __ZNKSt3__16chrono15__duration_castINS0_8durationIdNS_5ratioILl1ELl1EEEEENS2_IdNS3_ILl1ELl1000000000EEEEENS3_ILl1000000000ELl1EEELb0ELb1EEclB8ue170006ERKS5_, symObjAddr: 0xC174, symBinAddr: 0x10000D6AC, symSize: 0x4C }
  - { offsetInCU: 0x17C15, offset: 0x2F076, size: 0x8, addend: 0x0, symName: __ZN17TradingSimulationC2EddiiRNSt3__16vectorINS0_12basic_stringIcNS0_11char_traitsIcEENS0_9allocatorIcEEEENS5_IS7_EEEE, symObjAddr: 0x0, symBinAddr: 0x1000029E4, symSize: 0x4F8 }
  - { offsetInCU: 0x17D23, offset: 0x2F184, size: 0x8, addend: 0x0, symName: __ZNSt3__113unordered_mapINS_12basic_stringIcNS_11char_traitsIcEENS_9allocatorIcEEEEP6TraderNS_4hashIS6_EENS_8equal_toIS6_EENS4_INS_4pairIKS6_S8_EEEEEC1B8ue170006Ev, symObjAddr: 0x4F8, symBinAddr: 0x100002EDC, symSize: 0x2C }
  - { offsetInCU: 0x17D4D, offset: 0x2F1AE, size: 0x8, addend: 0x0, symName: __ZNSt3__16vectorINS_12basic_stringIcNS_11char_traitsIcEENS_9allocatorIcEEEENS4_IS6_EEEC1B8ue170006Ev, symObjAddr: 0x524, symBinAddr: 0x100002F08, symSize: 0x2C }
  - { offsetInCU: 0x17D77, offset: 0x2F1D8, size: 0x8, addend: 0x0, symName: __ZNSt3__16vectorINS_12basic_stringIcNS_11char_traitsIcEENS_9allocatorIcEEEENS4_IS6_EEEaSB8ue170006ERKS8_, symObjAddr: 0x550, symBinAddr: 0x100002F34, symSize: 0x68 }
  - { offsetInCU: 0x17DAE, offset: 0x2F20F, size: 0x8, addend: 0x0, symName: __ZNSt3__113basic_ostreamIcNS_11char_traitsIcEEElsB8ue170006EPFRS3_S4_E, symObjAddr: 0x600, symBinAddr: 0x100002FE4, symSize: 0x2C }
  - { offsetInCU: 0x17DE2, offset: 0x2F243, size: 0x8, addend: 0x0, symName: __ZNSt3__112basic_stringIcNS_11char_traitsIcEENS_9allocatorIcEEEC1B8ue170006Ev, symObjAddr: 0x684, symBinAddr: 0x100003068, symSize: 0x2C }
  - { offsetInCU: 0x17E0C, offset: 0x2F26D, size: 0x8, addend: 0x0, symName: __ZNSt3__113unordered_mapINS_12basic_stringIcNS_11char_traitsIcEENS_9allocatorIcEEEEiNS_4hashIS6_EENS_8equal_toIS6_EENS4_INS_4pairIKS6_iEEEEEC1B8ue170006Ev, symObjAddr: 0x9BC, symBinAddr: 0x1000033A0, symSize: 0x2C }
  - { offsetInCU: 0x17E36, offset: 0x2F297, size: 0x8, addend: 0x0, symName: __ZNSt3__113unordered_mapINS_12basic_stringIcNS_11char_traitsIcEENS_9allocatorIcEEEEiNS_4hashIS6_EENS_8equal_toIS6_EENS4_INS_4pairIKS6_iEEEEEixERSC_, symObjAddr: 0x9E8, symBinAddr: 0x1000033CC, symSize: 0x80 }
  - { offsetInCU: 0x17E6D, offset: 0x2F2CE, size: 0x8, addend: 0x0, symName: __ZNSt3__113unordered_mapINS_12basic_stringIcNS_11char_traitsIcEENS_9allocatorIcEEEEiNS_4hashIS6_EENS_8equal_toIS6_EENS4_INS_4pairIKS6_iEEEEEC1ERKSF_, symObjAddr: 0xA68, symBinAddr: 0x10000344C, symSize: 0x34 }
  - { offsetInCU: 0x17EA8, offset: 0x2F309, size: 0x8, addend: 0x0, symName: __ZNSt3__113unordered_mapINS_12basic_stringIcNS_11char_traitsIcEENS_9allocatorIcEEEEiNS_4hashIS6_EENS_8equal_toIS6_EENS4_INS_4pairIKS6_iEEEEED1B8ue170006Ev, symObjAddr: 0xA9C, symBinAddr: 0x100003480, symSize: 0x2C }
  - { offsetInCU: 0x17ED2, offset: 0x2F333, size: 0x8, addend: 0x0, symName: __ZNSt3__113unordered_mapINS_12basic_stringIcNS_11char_traitsIcEENS_9allocatorIcEEEEP6TraderNS_4hashIS6_EENS_8equal_toIS6_EENS4_INS_4pairIKS6_S8_EEEEEixERSE_, symObjAddr: 0xAC8, symBinAddr: 0x1000034AC, symSize: 0x80 }
  - { offsetInCU: 0x17F09, offset: 0x2F36A, size: 0x8, addend: 0x0, symName: __ZNSt3__113unordered_mapINS_12basic_stringIcNS_11char_traitsIcEENS_9allocatorIcEEEEP6TraderNS_4hashIS6_EENS_8equal_toIS6_EENS4_INS_4pairIKS6_S8_EEEEED1B8ue170006Ev, symObjAddr: 0xBC0, symBinAddr: 0x100003578, symSize: 0x2C }
  - { offsetInCU: 0x17F33, offset: 0x2F394, size: 0x8, addend: 0x0, symName: __ZN17TradingSimulationC1EddiiRNSt3__16vectorINS0_12basic_stringIcNS0_11char_traitsIcEENS0_9allocatorIcEEEENS5_IS7_EEEE, symObjAddr: 0xBEC, symBinAddr: 0x1000035A4, symSize: 0x54 }
  - { offsetInCU: 0x17FA5, offset: 0x2F406, size: 0x8, addend: 0x0, symName: __ZN17TradingSimulation13runSimulationEv, symObjAddr: 0xC40, symBinAddr: 0x1000035F8, symSize: 0xDC }
  - { offsetInCU: 0x17FEA, offset: 0x2F44B, size: 0x8, addend: 0x0, symName: __ZN17TradingSimulation16performTradeStepEd, symObjAddr: 0xD1C, symBinAddr: 0x1000036D4, symSize: 0x7BC }
  - { offsetInCU: 0x18141, offset: 0x2F5A2, size: 0x8, addend: 0x0, symName: __ZNSt3__16chrono8durationIdNS_5ratioILl1ELl1EEEEC1B8ue170006IdEERKT_PNS_9enable_ifIXaasr14is_convertibleIS8_dEE5valueooL_ZNS_17integral_constantIbLb1EE5valueEEntsr23treat_as_floating_pointIS6_EE5valueEvE4typeE, symObjAddr: 0x1590, symBinAddr: 0x100003F48, symSize: 0x3C }
  - { offsetInCU: 0x1818E, offset: 0x2F5EF, size: 0x8, addend: 0x0, symName: __ZN17TradingSimulation14displayResultsEv, symObjAddr: 0x15CC, symBinAddr: 0x100003F84, symSize: 0x29C }
  - { offsetInCU: 0x18268, offset: 0x2F6C9, size: 0x8, addend: 0x0, symName: __ZNSt3__113unordered_mapINS_12basic_stringIcNS_11char_traitsIcEENS_9allocatorIcEEEEP6TraderNS_4hashIS6_EENS_8equal_toIS6_EENS4_INS_4pairIKS6_S8_EEEEE5beginB8ue170006Ev, symObjAddr: 0x1868, symBinAddr: 0x100004220, symSize: 0x38 }
  - { offsetInCU: 0x1828E, offset: 0x2F6EF, size: 0x8, addend: 0x0, symName: __ZNSt3__113unordered_mapINS_12basic_stringIcNS_11char_traitsIcEENS_9allocatorIcEEEEP6TraderNS_4hashIS6_EENS_8equal_toIS6_EENS4_INS_4pairIKS6_S8_EEEEE3endB8ue170006Ev, symObjAddr: 0x18A0, symBinAddr: 0x100004258, symSize: 0x38 }
  - { offsetInCU: 0x182B4, offset: 0x2F715, size: 0x8, addend: 0x0, symName: __ZNKSt3__119__hash_map_iteratorINS_15__hash_iteratorIPNS_11__hash_nodeINS_17__hash_value_typeINS_12basic_stringIcNS_11char_traitsIcEENS_9allocatorIcEEEEP6TraderEEPvEEEEEdeB8ue170006Ev, symObjAddr: 0x1908, symBinAddr: 0x1000042C0, symSize: 0x28 }
  - { offsetInCU: 0x182DA, offset: 0x2F73B, size: 0x8, addend: 0x0, symName: __ZNSt3__14pairIKNS_12basic_stringIcNS_11char_traitsIcEENS_9allocatorIcEEEEP6TraderEC1B8ue170006ERKSA_, symObjAddr: 0x1930, symBinAddr: 0x1000042E8, symSize: 0x34 }
  - { offsetInCU: 0x1830F, offset: 0x2F770, size: 0x8, addend: 0x0, symName: __ZNSt3__14pairIKNS_12basic_stringIcNS_11char_traitsIcEENS_9allocatorIcEEEEP6TraderED1Ev, symObjAddr: 0x1A10, symBinAddr: 0x1000043C8, symSize: 0x2C }
  - { offsetInCU: 0x1833B, offset: 0x2F79C, size: 0x8, addend: 0x0, symName: __ZNSt3__119__hash_map_iteratorINS_15__hash_iteratorIPNS_11__hash_nodeINS_17__hash_value_typeINS_12basic_stringIcNS_11char_traitsIcEENS_9allocatorIcEEEEP6TraderEEPvEEEEEppB8ue170006Ev, symObjAddr: 0x1A3C, symBinAddr: 0x1000043F4, symSize: 0x2C }
  - { offsetInCU: 0x18361, offset: 0x2F7C2, size: 0x8, addend: 0x0, symName: __ZNSt3__16vectorINS_12basic_stringIcNS_11char_traitsIcEENS_9allocatorIcEEEENS4_IS6_EEE5beginB8ue170006Ev, symObjAddr: 0x1A68, symBinAddr: 0x100004420, symSize: 0x30 }
  - { offsetInCU: 0x18389, offset: 0x2F7EA, size: 0x8, addend: 0x0, symName: __ZNSt3__16vectorINS_12basic_stringIcNS_11char_traitsIcEENS_9allocatorIcEEEENS4_IS6_EEE3endB8ue170006Ev, symObjAddr: 0x1A98, symBinAddr: 0x100004450, symSize: 0x30 }
  - { offsetInCU: 0x183B1, offset: 0x2F812, size: 0x8, addend: 0x0, symName: __ZNKSt3__111__wrap_iterIPNS_12basic_stringIcNS_11char_traitsIcEENS_9allocatorIcEEEEEdeB8ue170006Ev, symObjAddr: 0x1AFC, symBinAddr: 0x1000044B4, symSize: 0x18 }
  - { offsetInCU: 0x183D7, offset: 0x2F838, size: 0x8, addend: 0x0, symName: __ZNSt3__111__wrap_iterIPNS_12basic_stringIcNS_11char_traitsIcEENS_9allocatorIcEEEEEppB8ue170006Ev, symObjAddr: 0x1B14, symBinAddr: 0x1000044CC, symSize: 0x20 }
  - { offsetInCU: 0x183FD, offset: 0x2F85E, size: 0x8, addend: 0x0, symName: __ZN17TradingSimulationD2Ev, symObjAddr: 0x1B34, symBinAddr: 0x1000044EC, symSize: 0x6C }
  - { offsetInCU: 0x18429, offset: 0x2F88A, size: 0x8, addend: 0x0, symName: __ZN17TradingSimulationD1Ev, symObjAddr: 0x1BA0, symBinAddr: 0x100004558, symSize: 0x2C }
  - { offsetInCU: 0x18455, offset: 0x2F8B6, size: 0x8, addend: 0x0, symName: __ZNSt3__16chrono8durationIdNS_5ratioILl1ELl1EEEEC2B8ue170006IdEERKT_PNS_9enable_ifIXaasr14is_convertibleIS8_dEE5valueooL_ZNS_17integral_constantIbLb1EE5valueEEntsr23treat_as_floating_pointIS6_EE5valueEvE4typeE, symObjAddr: 0x1BCC, symBinAddr: 0x100004584, symSize: 0x28 }
  - { offsetInCU: 0x184A2, offset: 0x2F903, size: 0x8, addend: 0x0, symName: __ZNSt3__14pairIKNS_12basic_stringIcNS_11char_traitsIcEENS_9allocatorIcEEEEP6TraderEC2B8ue170006ERKSA_, symObjAddr: 0x1BF4, symBinAddr: 0x1000045AC, symSize: 0x40 }
  - { offsetInCU: 0x184D7, offset: 0x2F938, size: 0x8, addend: 0x0, symName: __ZNSt3__14pairIKNS_12basic_stringIcNS_11char_traitsIcEENS_9allocatorIcEEEEP6TraderED2Ev, symObjAddr: 0x1C34, symBinAddr: 0x1000045EC, symSize: 0x2C }
  - { offsetInCU: 0x18503, offset: 0x2F964, size: 0x8, addend: 0x0, symName: __ZNKSt3__111__wrap_iterIPNS_12basic_stringIcNS_11char_traitsIcEENS_9allocatorIcEEEEE4baseB8ue170006Ev, symObjAddr: 0x1CA8, symBinAddr: 0x100004660, symSize: 0x18 }
  - { offsetInCU: 0x18529, offset: 0x2F98A, size: 0x8, addend: 0x0, symName: __ZNSt3__113unordered_mapINS_12basic_stringIcNS_11char_traitsIcEENS_9allocatorIcEEEEP6TraderNS_4hashIS6_EENS_8equal_toIS6_EENS4_INS_4pairIKS6_S8_EEEEEC2B8ue170006Ev, symObjAddr: 0x1CC0, symBinAddr: 0x100004678, symSize: 0x2C }
  - { offsetInCU: 0x18553, offset: 0x2F9B4, size: 0x8, addend: 0x0, symName: __ZNSt3__112__hash_tableINS_17__hash_value_typeINS_12basic_stringIcNS_11char_traitsIcEENS_9allocatorIcEEEEP6TraderEENS_22__unordered_map_hasherIS7_SA_NS_4hashIS7_EENS_8equal_toIS7_EELb1EEENS_21__unordered_map_equalIS7_SA_SF_SD_Lb1EEENS5_ISA_EEEC1Ev, symObjAddr: 0x1CEC, symBinAddr: 0x1000046A4, symSize: 0x2C }
  - { offsetInCU: 0x1857F, offset: 0x2F9E0, size: 0x8, addend: 0x0, symName: __ZNSt3__112__hash_tableINS_17__hash_value_typeINS_12basic_stringIcNS_11char_traitsIcEENS_9allocatorIcEEEEP6TraderEENS_22__unordered_map_hasherIS7_SA_NS_4hashIS7_EENS_8equal_toIS7_EELb1EEENS_21__unordered_map_equalIS7_SA_SF_SD_Lb1EEENS5_ISA_EEEC2Ev, symObjAddr: 0x1D18, symBinAddr: 0x1000046D0, symSize: 0x7C }
  - { offsetInCU: 0x185AB, offset: 0x2FA0C, size: 0x8, addend: 0x0, symName: __ZNSt3__110unique_ptrIA_PNS_16__hash_node_baseIPNS_11__hash_nodeINS_17__hash_value_typeINS_12basic_stringIcNS_11char_traitsIcEENS_9allocatorIcEEEEP6TraderEEPvEEEENS_25__bucket_list_deallocatorINS7_ISH_EEEEEC1B8ue170006ILb1EvEEv, symObjAddr: 0x1D94, symBinAddr: 0x10000474C, symSize: 0x2C }
  - { offsetInCU: 0x185E0, offset: 0x2FA41, size: 0x8, addend: 0x0, symName: __ZNSt3__117__compressed_pairINS_16__hash_node_baseIPNS_11__hash_nodeINS_17__hash_value_typeINS_12basic_stringIcNS_11char_traitsIcEENS_9allocatorIcEEEEP6TraderEEPvEEEENS7_ISE_EEEC1B8ue170006ILb1EvEEv, symObjAddr: 0x1DC0, symBinAddr: 0x100004778, symSize: 0x2C }
  - { offsetInCU: 0x1861F, offset: 0x2FA80, size: 0x8, addend: 0x0, symName: __ZNSt3__117__compressed_pairImNS_22__unordered_map_hasherINS_12basic_stringIcNS_11char_traitsIcEENS_9allocatorIcEEEENS_17__hash_value_typeIS7_P6TraderEENS_4hashIS7_EENS_8equal_toIS7_EELb1EEEEC1B8ue170006IiNS_18__default_init_tagEEEOT_OT0_, symObjAddr: 0x1DF8, symBinAddr: 0x1000047A4, symSize: 0x3C }
  - { offsetInCU: 0x1867C, offset: 0x2FADD, size: 0x8, addend: 0x0, symName: __ZNSt3__117__compressed_pairIfNS_21__unordered_map_equalINS_12basic_stringIcNS_11char_traitsIcEENS_9allocatorIcEEEENS_17__hash_value_typeIS7_P6TraderEENS_8equal_toIS7_EENS_4hashIS7_EELb1EEEEC1B8ue170006IfNS_18__default_init_tagEEEOT_OT0_, symObjAddr: 0x1E34, symBinAddr: 0x1000047E0, symSize: 0x3C }
  - { offsetInCU: 0x186D4, offset: 0x2FB35, size: 0x8, addend: 0x0, symName: __ZNSt3__110unique_ptrIA_PNS_16__hash_node_baseIPNS_11__hash_nodeINS_17__hash_value_typeINS_12basic_stringIcNS_11char_traitsIcEENS_9allocatorIcEEEEP6TraderEEPvEEEENS_25__bucket_list_deallocatorINS7_ISH_EEEEEC2B8ue170006ILb1EvEEv, symObjAddr: 0x1E70, symBinAddr: 0x10000481C, symSize: 0x3C }
  - { offsetInCU: 0x1870E, offset: 0x2FB6F, size: 0x8, addend: 0x0, symName: __ZNSt3__117__compressed_pairIPPNS_16__hash_node_baseIPNS_11__hash_nodeINS_17__hash_value_typeINS_12basic_stringIcNS_11char_traitsIcEENS_9allocatorIcEEEEP6TraderEEPvEEEENS_25__bucket_list_deallocatorINS7_ISH_EEEEEC1B8ue170006INS_16__value_init_tagESO_EEOT_OT0_, symObjAddr: 0x1EAC, symBinAddr: 0x100004858, symSize: 0x3C }
  - { offsetInCU: 0x18766, offset: 0x2FBC7, size: 0x8, addend: 0x0, symName: __ZNSt3__117__compressed_pairIPPNS_16__hash_node_baseIPNS_11__hash_nodeINS_17__hash_value_typeINS_12basic_stringIcNS_11char_traitsIcEENS_9allocatorIcEEEEP6TraderEEPvEEEENS_25__bucket_list_deallocatorINS7_ISH_EEEEEC2B8ue170006INS_16__value_init_tagESO_EEOT_OT0_, symObjAddr: 0x1EE8, symBinAddr: 0x100004894, symSize: 0x40 }
  - { offsetInCU: 0x187BE, offset: 0x2FC1F, size: 0x8, addend: 0x0, symName: __ZNSt3__122__compressed_pair_elemIPPNS_16__hash_node_baseIPNS_11__hash_nodeINS_17__hash_value_typeINS_12basic_stringIcNS_11char_traitsIcEENS_9allocatorIcEEEEP6TraderEEPvEEEELi0ELb0EEC2B8ue170006ENS_16__value_init_tagE, symObjAddr: 0x1F28, symBinAddr: 0x1000048D4, symSize: 0x18 }
  - { offsetInCU: 0x187F3, offset: 0x2FC54, size: 0x8, addend: 0x0, symName: __ZNSt3__122__compressed_pair_elemINS_25__bucket_list_deallocatorINS_9allocatorIPNS_16__hash_node_baseIPNS_11__hash_nodeINS_17__hash_value_typeINS_12basic_stringIcNS_11char_traitsIcEENS2_IcEEEEP6TraderEEPvEEEEEEEELi1ELb0EEC2B8ue170006ENS_16__value_init_tagE, symObjAddr: 0x1F40, symBinAddr: 0x1000048EC, symSize: 0x2C }
  - { offsetInCU: 0x18828, offset: 0x2FC89, size: 0x8, addend: 0x0, symName: __ZNSt3__125__bucket_list_deallocatorINS_9allocatorIPNS_16__hash_node_baseIPNS_11__hash_nodeINS_17__hash_value_typeINS_12basic_stringIcNS_11char_traitsIcEENS1_IcEEEEP6TraderEEPvEEEEEEEC1B8ue170006Ev, symObjAddr: 0x1F6C, symBinAddr: 0x100004918, symSize: 0x2C }
  - { offsetInCU: 0x18852, offset: 0x2FCB3, size: 0x8, addend: 0x0, symName: __ZNSt3__125__bucket_list_deallocatorINS_9allocatorIPNS_16__hash_node_baseIPNS_11__hash_nodeINS_17__hash_value_typeINS_12basic_stringIcNS_11char_traitsIcEENS1_IcEEEEP6TraderEEPvEEEEEEEC2B8ue170006Ev, symObjAddr: 0x1F98, symBinAddr: 0x100004944, symSize: 0x40 }
  - { offsetInCU: 0x1887C, offset: 0x2FCDD, size: 0x8, addend: 0x0, symName: __ZNSt3__117__compressed_pairImNS_9allocatorIPNS_16__hash_node_baseIPNS_11__hash_nodeINS_17__hash_value_typeINS_12basic_stringIcNS_11char_traitsIcEENS1_IcEEEEP6TraderEEPvEEEEEEEC1B8ue170006IiNS_18__default_init_tagEEEOT_OT0_, symObjAddr: 0x1FD8, symBinAddr: 0x100004984, symSize: 0x3C }
  - { offsetInCU: 0x188D4, offset: 0x2FD35, size: 0x8, addend: 0x0, symName: __ZNSt3__117__compressed_pairImNS_9allocatorIPNS_16__hash_node_baseIPNS_11__hash_nodeINS_17__hash_value_typeINS_12basic_stringIcNS_11char_traitsIcEENS1_IcEEEEP6TraderEEPvEEEEEEEC2B8ue170006IiNS_18__default_init_tagEEEOT_OT0_, symObjAddr: 0x2014, symBinAddr: 0x1000049C0, symSize: 0x40 }
  - { offsetInCU: 0x1892C, offset: 0x2FD8D, size: 0x8, addend: 0x0, symName: __ZNSt3__122__compressed_pair_elemImLi0ELb0EEC2B8ue170006IivEEOT_, symObjAddr: 0x2054, symBinAddr: 0x100004A00, symSize: 0x24 }
  - { offsetInCU: 0x1896E, offset: 0x2FDCF, size: 0x8, addend: 0x0, symName: __ZNSt3__122__compressed_pair_elemINS_9allocatorIPNS_16__hash_node_baseIPNS_11__hash_nodeINS_17__hash_value_typeINS_12basic_stringIcNS_11char_traitsIcEENS1_IcEEEEP6TraderEEPvEEEEEELi1ELb1EEC2B8ue170006ENS_18__default_init_tagE, symObjAddr: 0x2078, symBinAddr: 0x100004A24, symSize: 0x2C }
  - { offsetInCU: 0x189A3, offset: 0x2FE04, size: 0x8, addend: 0x0, symName: __ZNSt3__19allocatorIPNS_16__hash_node_baseIPNS_11__hash_nodeINS_17__hash_value_typeINS_12basic_stringIcNS_11char_traitsIcEENS0_IcEEEEP6TraderEEPvEEEEEC2B8ue170006Ev, symObjAddr: 0x20A4, symBinAddr: 0x100004A50, symSize: 0x2C }
  - { offsetInCU: 0x189CD, offset: 0x2FE2E, size: 0x8, addend: 0x0, symName: __ZNSt3__116__non_trivial_ifILb1ENS_9allocatorIPNS_16__hash_node_baseIPNS_11__hash_nodeINS_17__hash_value_typeINS_12basic_stringIcNS_11char_traitsIcEENS1_IcEEEEP6TraderEEPvEEEEEEEC2B8ue170006Ev, symObjAddr: 0x20D0, symBinAddr: 0x100004A7C, symSize: 0x14 }
  - { offsetInCU: 0x189F7, offset: 0x2FE58, size: 0x8, addend: 0x0, symName: __ZNSt3__117__compressed_pairINS_16__hash_node_baseIPNS_11__hash_nodeINS_17__hash_value_typeINS_12basic_stringIcNS_11char_traitsIcEENS_9allocatorIcEEEEP6TraderEEPvEEEENS7_ISE_EEEC2B8ue170006ILb1EvEEv, symObjAddr: 0x20E4, symBinAddr: 0x100004A90, symSize: 0x34 }
  - { offsetInCU: 0x18A2C, offset: 0x2FE8D, size: 0x8, addend: 0x0, symName: __ZNSt3__122__compressed_pair_elemINS_16__hash_node_baseIPNS_11__hash_nodeINS_17__hash_value_typeINS_12basic_stringIcNS_11char_traitsIcEENS_9allocatorIcEEEEP6TraderEEPvEEEELi0ELb0EEC2B8ue170006ENS_16__value_init_tagE, symObjAddr: 0x2118, symBinAddr: 0x100004AC4, symSize: 0x2C }
  - { offsetInCU: 0x18A61, offset: 0x2FEC2, size: 0x8, addend: 0x0, symName: __ZNSt3__122__compressed_pair_elemINS_9allocatorINS_11__hash_nodeINS_17__hash_value_typeINS_12basic_stringIcNS_11char_traitsIcEENS1_IcEEEEP6TraderEEPvEEEELi1ELb1EEC2B8ue170006ENS_16__value_init_tagE, symObjAddr: 0x2144, symBinAddr: 0x100004AF0, symSize: 0x2C }
  - { offsetInCU: 0x18A96, offset: 0x2FEF7, size: 0x8, addend: 0x0, symName: __ZNSt3__116__hash_node_baseIPNS_11__hash_nodeINS_17__hash_value_typeINS_12basic_stringIcNS_11char_traitsIcEENS_9allocatorIcEEEEP6TraderEEPvEEEC1B8ue170006Ev, symObjAddr: 0x2170, symBinAddr: 0x100004B1C, symSize: 0x2C }
  - { offsetInCU: 0x18AC0, offset: 0x2FF21, size: 0x8, addend: 0x0, symName: __ZNSt3__116__hash_node_baseIPNS_11__hash_nodeINS_17__hash_value_typeINS_12basic_stringIcNS_11char_traitsIcEENS_9allocatorIcEEEEP6TraderEEPvEEEC2B8ue170006Ev, symObjAddr: 0x219C, symBinAddr: 0x100004B48, symSize: 0x18 }
  - { offsetInCU: 0x18AEA, offset: 0x2FF4B, size: 0x8, addend: 0x0, symName: __ZNSt3__19allocatorINS_11__hash_nodeINS_17__hash_value_typeINS_12basic_stringIcNS_11char_traitsIcEENS0_IcEEEEP6TraderEEPvEEEC2B8ue170006Ev, symObjAddr: 0x21B4, symBinAddr: 0x100004B60, symSize: 0x2C }
  - { offsetInCU: 0x18B14, offset: 0x2FF75, size: 0x8, addend: 0x0, symName: __ZNSt3__116__non_trivial_ifILb1ENS_9allocatorINS_11__hash_nodeINS_17__hash_value_typeINS_12basic_stringIcNS_11char_traitsIcEENS1_IcEEEEP6TraderEEPvEEEEEC2B8ue170006Ev, symObjAddr: 0x21E0, symBinAddr: 0x100004B8C, symSize: 0x14 }
  - { offsetInCU: 0x18B3E, offset: 0x2FF9F, size: 0x8, addend: 0x0, symName: __ZNSt3__117__compressed_pairImNS_22__unordered_map_hasherINS_12basic_stringIcNS_11char_traitsIcEENS_9allocatorIcEEEENS_17__hash_value_typeIS7_P6TraderEENS_4hashIS7_EENS_8equal_toIS7_EELb1EEEEC2B8ue170006IiNS_18__default_init_tagEEEOT_OT0_, symObjAddr: 0x21F4, symBinAddr: 0x100004BA0, symSize: 0x40 }
  - { offsetInCU: 0x18B96, offset: 0x2FFF7, size: 0x8, addend: 0x0, symName: __ZNSt3__122__compressed_pair_elemINS_22__unordered_map_hasherINS_12basic_stringIcNS_11char_traitsIcEENS_9allocatorIcEEEENS_17__hash_value_typeIS7_P6TraderEENS_4hashIS7_EENS_8equal_toIS7_EELb1EEELi1ELb1EEC2B8ue170006ENS_18__default_init_tagE, symObjAddr: 0x2234, symBinAddr: 0x100004BE0, symSize: 0x2C }
  - { offsetInCU: 0x18BCB, offset: 0x3002C, size: 0x8, addend: 0x0, symName: __ZNSt3__122__unordered_map_hasherINS_12basic_stringIcNS_11char_traitsIcEENS_9allocatorIcEEEENS_17__hash_value_typeIS6_P6TraderEENS_4hashIS6_EENS_8equal_toIS6_EELb1EEC2B8ue170006Ev, symObjAddr: 0x2260, symBinAddr: 0x100004C0C, symSize: 0x14 }
  - { offsetInCU: 0x18BF5, offset: 0x30056, size: 0x8, addend: 0x0, symName: __ZNSt3__117__compressed_pairIfNS_21__unordered_map_equalINS_12basic_stringIcNS_11char_traitsIcEENS_9allocatorIcEEEENS_17__hash_value_typeIS7_P6TraderEENS_8equal_toIS7_EENS_4hashIS7_EELb1EEEEC2B8ue170006IfNS_18__default_init_tagEEEOT_OT0_, symObjAddr: 0x2274, symBinAddr: 0x100004C20, symSize: 0x40 }
  - { offsetInCU: 0x18C4D, offset: 0x300AE, size: 0x8, addend: 0x0, symName: __ZNSt3__122__compressed_pair_elemIfLi0ELb0EEC2B8ue170006IfvEEOT_, symObjAddr: 0x22B4, symBinAddr: 0x100004C60, symSize: 0x24 }
  - { offsetInCU: 0x18C8F, offset: 0x300F0, size: 0x8, addend: 0x0, symName: __ZNSt3__122__compressed_pair_elemINS_21__unordered_map_equalINS_12basic_stringIcNS_11char_traitsIcEENS_9allocatorIcEEEENS_17__hash_value_typeIS7_P6TraderEENS_8equal_toIS7_EENS_4hashIS7_EELb1EEELi1ELb1EEC2B8ue170006ENS_18__default_init_tagE, symObjAddr: 0x22D8, symBinAddr: 0x100004C84, symSize: 0x2C }
  - { offsetInCU: 0x18CC4, offset: 0x30125, size: 0x8, addend: 0x0, symName: __ZNSt3__121__unordered_map_equalINS_12basic_stringIcNS_11char_traitsIcEENS_9allocatorIcEEEENS_17__hash_value_typeIS6_P6TraderEENS_8equal_toIS6_EENS_4hashIS6_EELb1EEC2B8ue170006Ev, symObjAddr: 0x2304, symBinAddr: 0x100004CB0, symSize: 0x14 }
  - { offsetInCU: 0x18CEE, offset: 0x3014F, size: 0x8, addend: 0x0, symName: __ZNSt3__16vectorINS_12basic_stringIcNS_11char_traitsIcEENS_9allocatorIcEEEENS4_IS6_EEEC2B8ue170006Ev, symObjAddr: 0x2318, symBinAddr: 0x100004CC4, symSize: 0x4C }
  - { offsetInCU: 0x18D1D, offset: 0x3017E, size: 0x8, addend: 0x0, symName: __ZNSt3__113unordered_mapINS_12basic_stringIcNS_11char_traitsIcEENS_9allocatorIcEEEEP6TraderNS_4hashIS6_EENS_8equal_toIS6_EENS4_INS_4pairIKS6_S8_EEEEED2B8ue170006Ev, symObjAddr: 0x2468, symBinAddr: 0x100004D10, symSize: 0x2C }
  - { offsetInCU: 0x18D47, offset: 0x301A8, size: 0x8, addend: 0x0, symName: __ZNSt3__112__hash_tableINS_17__hash_value_typeINS_12basic_stringIcNS_11char_traitsIcEENS_9allocatorIcEEEEP6TraderEENS_22__unordered_map_hasherIS7_SA_NS_4hashIS7_EENS_8equal_toIS7_EELb1EEENS_21__unordered_map_equalIS7_SA_SF_SD_Lb1EEENS5_ISA_EEED1Ev, symObjAddr: 0x2494, symBinAddr: 0x100004D3C, symSize: 0x2C }
  - { offsetInCU: 0x18D73, offset: 0x301D4, size: 0x8, addend: 0x0, symName: __ZNSt3__112__hash_tableINS_17__hash_value_typeINS_12basic_stringIcNS_11char_traitsIcEENS_9allocatorIcEEEEP6TraderEENS_22__unordered_map_hasherIS7_SA_NS_4hashIS7_EENS_8equal_toIS7_EELb1EEENS_21__unordered_map_equalIS7_SA_SF_SD_Lb1EEENS5_ISA_EEED2Ev, symObjAddr: 0x24C0, symBinAddr: 0x100004D68, symSize: 0x48 }
  - { offsetInCU: 0x18D9F, offset: 0x30200, size: 0x8, addend: 0x0, symName: __ZNSt3__112__hash_tableINS_17__hash_value_typeINS_12basic_stringIcNS_11char_traitsIcEENS_9allocatorIcEEEEP6TraderEENS_22__unordered_map_hasherIS7_SA_NS_4hashIS7_EENS_8equal_toIS7_EELb1EEENS_21__unordered_map_equalIS7_SA_SF_SD_Lb1EEENS5_ISA_EEE17__deallocate_nodeEPNS_16__hash_node_baseIPNS_11__hash_nodeISA_PvEEEE, symObjAddr: 0x2508, symBinAddr: 0x100004DB0, symSize: 0xA8 }
  - { offsetInCU: 0x18E0A, offset: 0x3026B, size: 0x8, addend: 0x0, symName: __ZNSt3__117__compressed_pairINS_16__hash_node_baseIPNS_11__hash_nodeINS_17__hash_value_typeINS_12basic_stringIcNS_11char_traitsIcEENS_9allocatorIcEEEEP6TraderEEPvEEEENS7_ISE_EEE5firstB8ue170006Ev, symObjAddr: 0x25B0, symBinAddr: 0x100004E58, symSize: 0x24 }
  - { offsetInCU: 0x18E30, offset: 0x30291, size: 0x8, addend: 0x0, symName: __ZNSt3__110unique_ptrIA_PNS_16__hash_node_baseIPNS_11__hash_nodeINS_17__hash_value_typeINS_12basic_stringIcNS_11char_traitsIcEENS_9allocatorIcEEEEP6TraderEEPvEEEENS_25__bucket_list_deallocatorINS7_ISH_EEEEED1B8ue170006Ev, symObjAddr: 0x25D4, symBinAddr: 0x100004E7C, symSize: 0x2C }
  - { offsetInCU: 0x18E5A, offset: 0x302BB, size: 0x8, addend: 0x0, symName: __ZNSt3__112__hash_tableINS_17__hash_value_typeINS_12basic_stringIcNS_11char_traitsIcEENS_9allocatorIcEEEEP6TraderEENS_22__unordered_map_hasherIS7_SA_NS_4hashIS7_EENS_8equal_toIS7_EELb1EEENS_21__unordered_map_equalIS7_SA_SF_SD_Lb1EEENS5_ISA_EEE12__node_allocB8ue170006Ev, symObjAddr: 0x2600, symBinAddr: 0x100004EA8, symSize: 0x28 }
  - { offsetInCU: 0x18E80, offset: 0x302E1, size: 0x8, addend: 0x0, symName: __ZNSt3__116__hash_node_baseIPNS_11__hash_nodeINS_17__hash_value_typeINS_12basic_stringIcNS_11char_traitsIcEENS_9allocatorIcEEEEP6TraderEEPvEEE8__upcastB8ue170006Ev, symObjAddr: 0x2628, symBinAddr: 0x100004ED0, symSize: 0x24 }
  - { offsetInCU: 0x18EA6, offset: 0x30307, size: 0x8, addend: 0x0, symName: __ZNSt3__116allocator_traitsINS_9allocatorINS_11__hash_nodeINS_17__hash_value_typeINS_12basic_stringIcNS_11char_traitsIcEENS1_IcEEEEP6TraderEEPvEEEEE7destroyB8ue170006INS_4pairIKS8_SA_EEvvEEvRSE_PT_, symObjAddr: 0x264C, symBinAddr: 0x100004EF4, symSize: 0x28 }
  - { offsetInCU: 0x18EE1, offset: 0x30342, size: 0x8, addend: 0x0, symName: __ZNSt3__122__hash_key_value_typesINS_17__hash_value_typeINS_12basic_stringIcNS_11char_traitsIcEENS_9allocatorIcEEEEP6TraderEEE9__get_ptrB8ue170006ERSA_, symObjAddr: 0x2674, symBinAddr: 0x100004F1C, symSize: 0x24 }
  - { offsetInCU: 0x18F04, offset: 0x30365, size: 0x8, addend: 0x0, symName: __ZNSt3__116allocator_traitsINS_9allocatorINS_11__hash_nodeINS_17__hash_value_typeINS_12basic_stringIcNS_11char_traitsIcEENS1_IcEEEEP6TraderEEPvEEEEE10deallocateB8ue170006ERSE_PSD_m, symObjAddr: 0x2698, symBinAddr: 0x100004F40, symSize: 0x34 }
  - { offsetInCU: 0x18F46, offset: 0x303A7, size: 0x8, addend: 0x0, symName: __ZNSt3__117__compressed_pairINS_16__hash_node_baseIPNS_11__hash_nodeINS_17__hash_value_typeINS_12basic_stringIcNS_11char_traitsIcEENS_9allocatorIcEEEEP6TraderEEPvEEEENS7_ISE_EEE6secondB8ue170006Ev, symObjAddr: 0x26CC, symBinAddr: 0x100004F74, symSize: 0x24 }
  - { offsetInCU: 0x18F6C, offset: 0x303CD, size: 0x8, addend: 0x0, symName: __ZNSt3__122__compressed_pair_elemINS_9allocatorINS_11__hash_nodeINS_17__hash_value_typeINS_12basic_stringIcNS_11char_traitsIcEENS1_IcEEEEP6TraderEEPvEEEELi1ELb1EE5__getB8ue170006Ev, symObjAddr: 0x26F0, symBinAddr: 0x100004F98, symSize: 0x14 }
  - { offsetInCU: 0x18F92, offset: 0x303F3, size: 0x8, addend: 0x0, symName: __ZNSt3__114pointer_traitsIPNS_16__hash_node_baseIPNS_11__hash_nodeINS_17__hash_value_typeINS_12basic_stringIcNS_11char_traitsIcEENS_9allocatorIcEEEEP6TraderEEPvEEEEE10pointer_toB8ue170006ERSG_, symObjAddr: 0x2704, symBinAddr: 0x100004FAC, symSize: 0x14 }
  - { offsetInCU: 0x18FB5, offset: 0x30416, size: 0x8, addend: 0x0, symName: __ZNSt3__117__hash_value_typeINS_12basic_stringIcNS_11char_traitsIcEENS_9allocatorIcEEEEP6TraderE11__get_valueB8ue170006Ev, symObjAddr: 0x2718, symBinAddr: 0x100004FC0, symSize: 0x24 }
  - { offsetInCU: 0x18FDB, offset: 0x3043C, size: 0x8, addend: 0x0, symName: __ZNSt3__19allocatorINS_11__hash_nodeINS_17__hash_value_typeINS_12basic_stringIcNS_11char_traitsIcEENS0_IcEEEEP6TraderEEPvEEE10deallocateB8ue170006EPSC_m, symObjAddr: 0x2774, symBinAddr: 0x10000501C, symSize: 0x44 }
  - { offsetInCU: 0x1901D, offset: 0x3047E, size: 0x8, addend: 0x0, symName: __ZNSt3__122__compressed_pair_elemINS_16__hash_node_baseIPNS_11__hash_nodeINS_17__hash_value_typeINS_12basic_stringIcNS_11char_traitsIcEENS_9allocatorIcEEEEP6TraderEEPvEEEELi0ELb0EE5__getB8ue170006Ev, symObjAddr: 0x28E0, symBinAddr: 0x100005060, symSize: 0x14 }
  - { offsetInCU: 0x19043, offset: 0x304A4, size: 0x8, addend: 0x0, symName: __ZNSt3__110unique_ptrIA_PNS_16__hash_node_baseIPNS_11__hash_nodeINS_17__hash_value_typeINS_12basic_stringIcNS_11char_traitsIcEENS_9allocatorIcEEEEP6TraderEEPvEEEENS_25__bucket_list_deallocatorINS7_ISH_EEEEED2B8ue170006Ev, symObjAddr: 0x28F4, symBinAddr: 0x100005074, symSize: 0x30 }
  - { offsetInCU: 0x1906D, offset: 0x304CE, size: 0x8, addend: 0x0, symName: __ZNSt3__110unique_ptrIA_PNS_16__hash_node_baseIPNS_11__hash_nodeINS_17__hash_value_typeINS_12basic_stringIcNS_11char_traitsIcEENS_9allocatorIcEEEEP6TraderEEPvEEEENS_25__bucket_list_deallocatorINS7_ISH_EEEEE5resetB8ue170006EDn, symObjAddr: 0x2924, symBinAddr: 0x1000050A4, symSize: 0x6C }
  - { offsetInCU: 0x190AE, offset: 0x3050F, size: 0x8, addend: 0x0, symName: __ZNSt3__117__compressed_pairIPPNS_16__hash_node_baseIPNS_11__hash_nodeINS_17__hash_value_typeINS_12basic_stringIcNS_11char_traitsIcEENS_9allocatorIcEEEEP6TraderEEPvEEEENS_25__bucket_list_deallocatorINS7_ISH_EEEEE5firstB8ue170006Ev, symObjAddr: 0x2990, symBinAddr: 0x100005110, symSize: 0x24 }
  - { offsetInCU: 0x190D4, offset: 0x30535, size: 0x8, addend: 0x0, symName: __ZNSt3__117__compressed_pairIPPNS_16__hash_node_baseIPNS_11__hash_nodeINS_17__hash_value_typeINS_12basic_stringIcNS_11char_traitsIcEENS_9allocatorIcEEEEP6TraderEEPvEEEENS_25__bucket_list_deallocatorINS7_ISH_EEEEE6secondB8ue170006Ev, symObjAddr: 0x29B4, symBinAddr: 0x100005134, symSize: 0x28 }
  - { offsetInCU: 0x190FA, offset: 0x3055B, size: 0x8, addend: 0x0, symName: __ZNSt3__125__bucket_list_deallocatorINS_9allocatorIPNS_16__hash_node_baseIPNS_11__hash_nodeINS_17__hash_value_typeINS_12basic_stringIcNS_11char_traitsIcEENS1_IcEEEEP6TraderEEPvEEEEEEEclB8ue170006EPSH_, symObjAddr: 0x29DC, symBinAddr: 0x10000515C, symSize: 0x58 }
  - { offsetInCU: 0x1912F, offset: 0x30590, size: 0x8, addend: 0x0, symName: __ZNSt3__122__compressed_pair_elemIPPNS_16__hash_node_baseIPNS_11__hash_nodeINS_17__hash_value_typeINS_12basic_stringIcNS_11char_traitsIcEENS_9allocatorIcEEEEP6TraderEEPvEEEELi0ELb0EE5__getB8ue170006Ev, symObjAddr: 0x2A34, symBinAddr: 0x1000051B4, symSize: 0x14 }
  - { offsetInCU: 0x19155, offset: 0x305B6, size: 0x8, addend: 0x0, symName: __ZNSt3__122__compressed_pair_elemINS_25__bucket_list_deallocatorINS_9allocatorIPNS_16__hash_node_baseIPNS_11__hash_nodeINS_17__hash_value_typeINS_12basic_stringIcNS_11char_traitsIcEENS2_IcEEEEP6TraderEEPvEEEEEEEELi1ELb0EE5__getB8ue170006Ev, symObjAddr: 0x2A48, symBinAddr: 0x1000051C8, symSize: 0x14 }
  - { offsetInCU: 0x1917B, offset: 0x305DC, size: 0x8, addend: 0x0, symName: __ZNSt3__116allocator_traitsINS_9allocatorIPNS_16__hash_node_baseIPNS_11__hash_nodeINS_17__hash_value_typeINS_12basic_stringIcNS_11char_traitsIcEENS1_IcEEEEP6TraderEEPvEEEEEEE10deallocateB8ue170006ERSI_PSH_m, symObjAddr: 0x2A5C, symBinAddr: 0x1000051DC, symSize: 0x34 }
  - { offsetInCU: 0x191BD, offset: 0x3061E, size: 0x8, addend: 0x0, symName: __ZNSt3__125__bucket_list_deallocatorINS_9allocatorIPNS_16__hash_node_baseIPNS_11__hash_nodeINS_17__hash_value_typeINS_12basic_stringIcNS_11char_traitsIcEENS1_IcEEEEP6TraderEEPvEEEEEEE7__allocB8ue170006Ev, symObjAddr: 0x2A90, symBinAddr: 0x100005210, symSize: 0x24 }
  - { offsetInCU: 0x191E3, offset: 0x30644, size: 0x8, addend: 0x0, symName: __ZNSt3__125__bucket_list_deallocatorINS_9allocatorIPNS_16__hash_node_baseIPNS_11__hash_nodeINS_17__hash_value_typeINS_12basic_stringIcNS_11char_traitsIcEENS1_IcEEEEP6TraderEEPvEEEEEEE4sizeB8ue170006Ev, symObjAddr: 0x2AB4, symBinAddr: 0x100005234, symSize: 0x24 }
  - { offsetInCU: 0x19209, offset: 0x3066A, size: 0x8, addend: 0x0, symName: __ZNSt3__19allocatorIPNS_16__hash_node_baseIPNS_11__hash_nodeINS_17__hash_value_typeINS_12basic_stringIcNS_11char_traitsIcEENS0_IcEEEEP6TraderEEPvEEEEE10deallocateB8ue170006EPSG_m, symObjAddr: 0x2AD8, symBinAddr: 0x100005258, symSize: 0x40 }
  - { offsetInCU: 0x1924B, offset: 0x306AC, size: 0x8, addend: 0x0, symName: __ZNSt3__117__compressed_pairImNS_9allocatorIPNS_16__hash_node_baseIPNS_11__hash_nodeINS_17__hash_value_typeINS_12basic_stringIcNS_11char_traitsIcEENS1_IcEEEEP6TraderEEPvEEEEEEE6secondB8ue170006Ev, symObjAddr: 0x2B18, symBinAddr: 0x100005298, symSize: 0x24 }
  - { offsetInCU: 0x19271, offset: 0x306D2, size: 0x8, addend: 0x0, symName: __ZNSt3__122__compressed_pair_elemINS_9allocatorIPNS_16__hash_node_baseIPNS_11__hash_nodeINS_17__hash_value_typeINS_12basic_stringIcNS_11char_traitsIcEENS1_IcEEEEP6TraderEEPvEEEEEELi1ELb1EE5__getB8ue170006Ev, symObjAddr: 0x2B3C, symBinAddr: 0x1000052BC, symSize: 0x14 }
  - { offsetInCU: 0x19297, offset: 0x306F8, size: 0x8, addend: 0x0, symName: __ZNSt3__117__compressed_pairImNS_9allocatorIPNS_16__hash_node_baseIPNS_11__hash_nodeINS_17__hash_value_typeINS_12basic_stringIcNS_11char_traitsIcEENS1_IcEEEEP6TraderEEPvEEEEEEE5firstB8ue170006Ev, symObjAddr: 0x2B50, symBinAddr: 0x1000052D0, symSize: 0x24 }
  - { offsetInCU: 0x192BD, offset: 0x3071E, size: 0x8, addend: 0x0, symName: __ZNSt3__122__compressed_pair_elemImLi0ELb0EE5__getB8ue170006Ev, symObjAddr: 0x2B74, symBinAddr: 0x1000052F4, symSize: 0x14 }
  - { offsetInCU: 0x192E3, offset: 0x30744, size: 0x8, addend: 0x0, symName: __ZNSt3__16vectorINS_12basic_stringIcNS_11char_traitsIcEENS_9allocatorIcEEEENS4_IS6_EEE19__copy_assign_allocB8ue170006ERKS8_, symObjAddr: 0x3088, symBinAddr: 0x100005308, symSize: 0x2C }
  - { offsetInCU: 0x19318, offset: 0x30779, size: 0x8, addend: 0x0, symName: __ZNSt3__16vectorINS_12basic_stringIcNS_11char_traitsIcEENS_9allocatorIcEEEENS4_IS6_EEE6assignIPS6_Li0EEEvT_SB_, symObjAddr: 0x30B4, symBinAddr: 0x100005334, symSize: 0x5C }
  - { offsetInCU: 0x1936D, offset: 0x307CE, size: 0x8, addend: 0x0, symName: __ZNSt3__16vectorINS_12basic_stringIcNS_11char_traitsIcEENS_9allocatorIcEEEENS4_IS6_EEE19__copy_assign_allocB8ue170006ERKS8_NS_17integral_constantIbLb0EEE, symObjAddr: 0x3110, symBinAddr: 0x100005390, symSize: 0x14 }
  - { offsetInCU: 0x193AB, offset: 0x3080C, size: 0x8, addend: 0x0, symName: __ZNSt3__16vectorINS_12basic_stringIcNS_11char_traitsIcEENS_9allocatorIcEEEENS4_IS6_EEE18__assign_with_sizeB8ue170006IPS6_SA_EEvT_T0_l, symObjAddr: 0x3124, symBinAddr: 0x1000053A4, symSize: 0x164 }
  - { offsetInCU: 0x1945B, offset: 0x308BC, size: 0x8, addend: 0x0, symName: __ZNSt3__16vectorINS_12basic_stringIcNS_11char_traitsIcEENS_9allocatorIcEEEENS4_IS6_EEE18__construct_at_endIPS6_SA_EEvT_T0_m, symObjAddr: 0x3328, symBinAddr: 0x1000055A8, symSize: 0x8C }
  - { offsetInCU: 0x194D1, offset: 0x30932, size: 0x8, addend: 0x0, symName: __ZNSt3__16vectorINS_12basic_stringIcNS_11char_traitsIcEENS_9allocatorIcEEEENS4_IS6_EEE17__destruct_at_endB8ue170006EPS6_, symObjAddr: 0x33F8, symBinAddr: 0x100005678, symSize: 0x4C }
  - { offsetInCU: 0x19515, offset: 0x30976, size: 0x8, addend: 0x0, symName: __ZNSt3__16vectorINS_12basic_stringIcNS_11char_traitsIcEENS_9allocatorIcEEEENS4_IS6_EEE13__vdeallocateEv, symObjAddr: 0x3444, symBinAddr: 0x1000056C4, symSize: 0x94 }
  - { offsetInCU: 0x1953D, offset: 0x3099E, size: 0x8, addend: 0x0, symName: __ZNKSt3__16vectorINS_12basic_stringIcNS_11char_traitsIcEENS_9allocatorIcEEEENS4_IS6_EEE11__recommendB8ue170006Em, symObjAddr: 0x358C, symBinAddr: 0x100005758, symSize: 0xB4 }
  - { offsetInCU: 0x195C9, offset: 0x30A2A, size: 0x8, addend: 0x0, symName: __ZNSt3__14pairIPNS_12basic_stringIcNS_11char_traitsIcEENS_9allocatorIcEEEES7_EC1B8ue170006IS7_S7_LPv0EEEOT_OT0_, symObjAddr: 0x39DC, symBinAddr: 0x100005A94, symSize: 0x3C }
  - { offsetInCU: 0x19627, offset: 0x30A88, size: 0x8, addend: 0x0, symName: __ZNSt3__14pairIPNS_12basic_stringIcNS_11char_traitsIcEENS_9allocatorIcEEEES7_EC2B8ue170006IS7_S7_LPv0EEEOT_OT0_, symObjAddr: 0x3A18, symBinAddr: 0x100005AD0, symSize: 0x34 }
  - { offsetInCU: 0x19685, offset: 0x30AE6, size: 0x8, addend: 0x0, symName: __ZNSt3__116allocator_traitsINS_9allocatorINS_12basic_stringIcNS_11char_traitsIcEENS1_IcEEEEEEE9constructB8ue170006IS6_JRS6_EvEEvRS7_PT_DpOT0_, symObjAddr: 0x3ADC, symBinAddr: 0x100005B04, symSize: 0x34 }
  - { offsetInCU: 0x196DC, offset: 0x30B3D, size: 0x8, addend: 0x0, symName: __ZNSt3__19allocatorINS_12basic_stringIcNS_11char_traitsIcEENS0_IcEEEEE9constructB8ue170006IS5_JRS5_EEEvPT_DpOT0_, symObjAddr: 0x3BF4, symBinAddr: 0x100005B38, symSize: 0x30 }
  - { offsetInCU: 0x1973C, offset: 0x30B9D, size: 0x8, addend: 0x0, symName: __ZNKSt3__111__copy_loopINS_17_ClassicAlgPolicyEEclB8ue170006IPNS_12basic_stringIcNS_11char_traitsIcEENS_9allocatorIcEEEESA_SA_EENS_4pairIT_T1_EESC_T0_SD_, symObjAddr: 0x4064, symBinAddr: 0x100005C60, symSize: 0x88 }
  - { offsetInCU: 0x197A7, offset: 0x30C08, size: 0x8, addend: 0x0, symName: __ZNKSt3__16vectorINS_12basic_stringIcNS_11char_traitsIcEENS_9allocatorIcEEEENS4_IS6_EEE17__annotate_shrinkB8ue170006Em, symObjAddr: 0x4118, symBinAddr: 0x100005D14, symSize: 0xD0 }
  - { offsetInCU: 0x197DC, offset: 0x30C3D, size: 0x8, addend: 0x0, symName: __ZNSt3__16vectorINS_12basic_stringIcNS_11char_traitsIcEENS_9allocatorIcEEEENS4_IS6_EEE5clearB8ue170006Ev, symObjAddr: 0x41E8, symBinAddr: 0x100005DE4, symSize: 0x44 }
  - { offsetInCU: 0x19839, offset: 0x30C9A, size: 0x8, addend: 0x0, symName: __ZNKSt3__113basic_ostreamIcNS_11char_traitsIcEEE6sentrycvbB8ue170006Ev, symObjAddr: 0x4A68, symBinAddr: 0x1000060BC, symSize: 0x1C }
  - { offsetInCU: 0x1985F, offset: 0x30CC0, size: 0x8, addend: 0x0, symName: __ZNSt3__119ostreambuf_iteratorIcNS_11char_traitsIcEEEC1B8ue170006ERNS_13basic_ostreamIcS2_EE, symObjAddr: 0x4CC4, symBinAddr: 0x100006318, symSize: 0x34 }
  - { offsetInCU: 0x19897, offset: 0x30CF8, size: 0x8, addend: 0x0, symName: __ZNKSt3__18ios_base5flagsB8ue170006Ev, symObjAddr: 0x4CF8, symBinAddr: 0x10000634C, symSize: 0x18 }
  - { offsetInCU: 0x198BF, offset: 0x30D20, size: 0x8, addend: 0x0, symName: __ZNKSt3__19basic_iosIcNS_11char_traitsIcEEE4fillB8ue170006Ev, symObjAddr: 0x4D10, symBinAddr: 0x100006364, symSize: 0x64 }
  - { offsetInCU: 0x198E7, offset: 0x30D48, size: 0x8, addend: 0x0, symName: __ZNKSt3__119ostreambuf_iteratorIcNS_11char_traitsIcEEE6failedB8ue170006Ev, symObjAddr: 0x4D74, symBinAddr: 0x1000063C8, symSize: 0x24 }
  - { offsetInCU: 0x1990D, offset: 0x30D6E, size: 0x8, addend: 0x0, symName: __ZNSt3__19basic_iosIcNS_11char_traitsIcEEE8setstateB8ue170006Ej, symObjAddr: 0x4D98, symBinAddr: 0x1000063EC, symSize: 0x2C }
  - { offsetInCU: 0x19942, offset: 0x30DA3, size: 0x8, addend: 0x0, symName: __ZNKSt3__18ios_base5widthB8ue170006Ev, symObjAddr: 0x4DC4, symBinAddr: 0x100006418, symSize: 0x18 }
  - { offsetInCU: 0x1996A, offset: 0x30DCB, size: 0x8, addend: 0x0, symName: __ZNSt3__115basic_streambufIcNS_11char_traitsIcEEE5sputnB8ue170006EPKcl, symObjAddr: 0x4DDC, symBinAddr: 0x100006430, symSize: 0x3C }
  - { offsetInCU: 0x199AC, offset: 0x30E0D, size: 0x8, addend: 0x0, symName: __ZNSt3__112basic_stringIcNS_11char_traitsIcEENS_9allocatorIcEEEC1B8ue170006Emc, symObjAddr: 0x4E18, symBinAddr: 0x10000646C, symSize: 0x3C }
  - { offsetInCU: 0x199F4, offset: 0x30E55, size: 0x8, addend: 0x0, symName: __ZNSt3__112basic_stringIcNS_11char_traitsIcEENS_9allocatorIcEEE4dataB8ue170006Ev, symObjAddr: 0x4E54, symBinAddr: 0x1000064A8, symSize: 0x28 }
  - { offsetInCU: 0x19A1A, offset: 0x30E7B, size: 0x8, addend: 0x0, symName: __ZNSt3__18ios_base5widthB8ue170006El, symObjAddr: 0x4E7C, symBinAddr: 0x1000064D0, symSize: 0x2C }
  - { offsetInCU: 0x19A60, offset: 0x30EC1, size: 0x8, addend: 0x0, symName: __ZNSt3__112basic_stringIcNS_11char_traitsIcEENS_9allocatorIcEEEC2B8ue170006Emc, symObjAddr: 0x4EA8, symBinAddr: 0x1000064FC, symSize: 0x4C }
  - { offsetInCU: 0x19AA8, offset: 0x30F09, size: 0x8, addend: 0x0, symName: __ZNSt3__112basic_stringIcNS_11char_traitsIcEENS_9allocatorIcEEE13__get_pointerB8ue170006Ev, symObjAddr: 0x5000, symBinAddr: 0x10000655C, symSize: 0x54 }
  - { offsetInCU: 0x19ACE, offset: 0x30F2F, size: 0x8, addend: 0x0, symName: __ZNKSt3__112basic_stringIcNS_11char_traitsIcEENS_9allocatorIcEEE9__is_longB8ue170006Ev, symObjAddr: 0x5054, symBinAddr: 0x1000065B0, symSize: 0x38 }
  - { offsetInCU: 0x19AF4, offset: 0x30F55, size: 0x8, addend: 0x0, symName: __ZNSt3__112basic_stringIcNS_11char_traitsIcEENS_9allocatorIcEEE18__get_long_pointerB8ue170006Ev, symObjAddr: 0x508C, symBinAddr: 0x1000065E8, symSize: 0x28 }
  - { offsetInCU: 0x19B1A, offset: 0x30F7B, size: 0x8, addend: 0x0, symName: __ZNSt3__112basic_stringIcNS_11char_traitsIcEENS_9allocatorIcEEE19__get_short_pointerB8ue170006Ev, symObjAddr: 0x50B4, symBinAddr: 0x100006610, symSize: 0x28 }
  - { offsetInCU: 0x19B40, offset: 0x30FA1, size: 0x8, addend: 0x0, symName: __ZNKSt3__117__compressed_pairINS_12basic_stringIcNS_11char_traitsIcEENS_9allocatorIcEEE5__repES5_E5firstB8ue170006Ev, symObjAddr: 0x50DC, symBinAddr: 0x100006638, symSize: 0x24 }
  - { offsetInCU: 0x19B66, offset: 0x30FC7, size: 0x8, addend: 0x0, symName: __ZNKSt3__122__compressed_pair_elemINS_12basic_stringIcNS_11char_traitsIcEENS_9allocatorIcEEE5__repELi0ELb0EE5__getB8ue170006Ev, symObjAddr: 0x5100, symBinAddr: 0x10000665C, symSize: 0x14 }
  - { offsetInCU: 0x19B8C, offset: 0x30FED, size: 0x8, addend: 0x0, symName: __ZNSt3__117__compressed_pairINS_12basic_stringIcNS_11char_traitsIcEENS_9allocatorIcEEE5__repES5_E5firstB8ue170006Ev, symObjAddr: 0x5114, symBinAddr: 0x100006670, symSize: 0x24 }
  - { offsetInCU: 0x19BB2, offset: 0x31013, size: 0x8, addend: 0x0, symName: __ZNSt3__122__compressed_pair_elemINS_12basic_stringIcNS_11char_traitsIcEENS_9allocatorIcEEE5__repELi0ELb0EE5__getB8ue170006Ev, symObjAddr: 0x5138, symBinAddr: 0x100006694, symSize: 0x14 }
  - { offsetInCU: 0x19BD8, offset: 0x31039, size: 0x8, addend: 0x0, symName: __ZNSt3__114pointer_traitsIPcE10pointer_toB8ue170006ERc, symObjAddr: 0x514C, symBinAddr: 0x1000066A8, symSize: 0x14 }
  - { offsetInCU: 0x19BFB, offset: 0x3105C, size: 0x8, addend: 0x0, symName: __ZNSt3__119ostreambuf_iteratorIcNS_11char_traitsIcEEEC2B8ue170006ERNS_13basic_ostreamIcS2_EE, symObjAddr: 0x5160, symBinAddr: 0x1000066BC, symSize: 0x54 }
  - { offsetInCU: 0x19C33, offset: 0x31094, size: 0x8, addend: 0x0, symName: __ZNKSt3__19basic_iosIcNS_11char_traitsIcEEE5rdbufB8ue170006Ev, symObjAddr: 0x51B4, symBinAddr: 0x100006710, symSize: 0x24 }
  - { offsetInCU: 0x19C5B, offset: 0x310BC, size: 0x8, addend: 0x0, symName: __ZNKSt3__18ios_base5rdbufB8ue170006Ev, symObjAddr: 0x51D8, symBinAddr: 0x100006734, symSize: 0x18 }
  - { offsetInCU: 0x19C81, offset: 0x310E2, size: 0x8, addend: 0x0, symName: __ZNSt3__111char_traitsIcE11eq_int_typeB8ue170006Eii, symObjAddr: 0x51F0, symBinAddr: 0x10000674C, symSize: 0x28 }
  - { offsetInCU: 0x19CB4, offset: 0x31115, size: 0x8, addend: 0x0, symName: __ZNSt3__111char_traitsIcE3eofB8ue170006Ev, symObjAddr: 0x5218, symBinAddr: 0x100006774, symSize: 0x8 }
  - { offsetInCU: 0x19CC8, offset: 0x31129, size: 0x8, addend: 0x0, symName: __ZNKSt3__19basic_iosIcNS_11char_traitsIcEEE5widenB8ue170006Ec, symObjAddr: 0x5220, symBinAddr: 0x10000677C, symSize: 0x84 }
  - { offsetInCU: 0x19D2C, offset: 0x3118D, size: 0x8, addend: 0x0, symName: __ZNKSt3__15ctypeIcE5widenB8ue170006Ec, symObjAddr: 0x52D0, symBinAddr: 0x10000682C, symSize: 0x38 }
  - { offsetInCU: 0x19D61, offset: 0x311C2, size: 0x8, addend: 0x0, symName: __ZNSt3__18ios_base8setstateB8ue170006Ej, symObjAddr: 0x5308, symBinAddr: 0x100006864, symSize: 0x34 }
  - { offsetInCU: 0x19D98, offset: 0x311F9, size: 0x8, addend: 0x0, symName: __ZNSt3__112basic_stringIcNS_11char_traitsIcEENS_9allocatorIcEEEC2B8ue170006Ev, symObjAddr: 0x5360, symBinAddr: 0x100006898, symSize: 0x48 }
  - { offsetInCU: 0x19DC2, offset: 0x31223, size: 0x8, addend: 0x0, symName: __ZNSt3__112basic_stringIcNS_11char_traitsIcEENS_9allocatorIcEEE14__default_initB8ue170006Ev, symObjAddr: 0x53A8, symBinAddr: 0x1000068E0, symSize: 0x40 }
  - { offsetInCU: 0x19E70, offset: 0x312D1, size: 0x8, addend: 0x0, symName: __ZNKSt3__113basic_istreamIcNS_11char_traitsIcEEE6sentrycvbB8ue170006Ev, symObjAddr: 0x53E8, symBinAddr: 0x100006920, symSize: 0x1C }
  - { offsetInCU: 0x19E96, offset: 0x312F7, size: 0x8, addend: 0x0, symName: __ZNSt3__112basic_stringIcNS_11char_traitsIcEENS_9allocatorIcEEE5clearB8ue170006Ev, symObjAddr: 0x5404, symBinAddr: 0x10000693C, symSize: 0x78 }
  - { offsetInCU: 0x19EBE, offset: 0x3131F, size: 0x8, addend: 0x0, symName: __ZNKSt3__112basic_stringIcNS_11char_traitsIcEENS_9allocatorIcEEE8max_sizeB8ue170006Ev, symObjAddr: 0x547C, symBinAddr: 0x1000069B4, symSize: 0xAC }
  - { offsetInCU: 0x19F10, offset: 0x31371, size: 0x8, addend: 0x0, symName: __ZNSt3__115basic_streambufIcNS_11char_traitsIcEEE5sgetcB8ue170006Ev, symObjAddr: 0x5528, symBinAddr: 0x100006A60, symSize: 0x70 }
  - { offsetInCU: 0x19F36, offset: 0x31397, size: 0x8, addend: 0x0, symName: __ZNSt3__111char_traitsIcE12to_char_typeB8ue170006Ei, symObjAddr: 0x5598, symBinAddr: 0x100006AD0, symSize: 0x18 }
  - { offsetInCU: 0x19F59, offset: 0x313BA, size: 0x8, addend: 0x0, symName: __ZNKSt3__15ctypeIcE2isB8ue170006Ejc, symObjAddr: 0x55B0, symBinAddr: 0x100006AE8, symSize: 0x7C }
  - { offsetInCU: 0x19F9D, offset: 0x313FE, size: 0x8, addend: 0x0, symName: __ZNSt3__115basic_streambufIcNS_11char_traitsIcEEE6sbumpcB8ue170006Ev, symObjAddr: 0x562C, symBinAddr: 0x100006B64, symSize: 0x78 }
  - { offsetInCU: 0x19FC3, offset: 0x31424, size: 0x8, addend: 0x0, symName: __ZNSt3__18ios_base18__setstate_nothrowB8ue170006Ej, symObjAddr: 0x56A4, symBinAddr: 0x100006BDC, symSize: 0x64 }
  - { offsetInCU: 0x19FF8, offset: 0x31459, size: 0x8, addend: 0x0, symName: __ZNKSt3__19basic_iosIcNS_11char_traitsIcEEE10exceptionsB8ue170006Ev, symObjAddr: 0x5708, symBinAddr: 0x100006C40, symSize: 0x24 }
  - { offsetInCU: 0x1A01E, offset: 0x3147F, size: 0x8, addend: 0x0, symName: __ZNSt3__111char_traitsIcE6assignB8ue170006ERcRKc, symObjAddr: 0x572C, symBinAddr: 0x100006C64, symSize: 0x24 }
  - { offsetInCU: 0x1A04F, offset: 0x314B0, size: 0x8, addend: 0x0, symName: __ZNSt3__112basic_stringIcNS_11char_traitsIcEENS_9allocatorIcEEE15__set_long_sizeB8ue170006Em, symObjAddr: 0x5750, symBinAddr: 0x100006C88, symSize: 0x38 }
  - { offsetInCU: 0x1A084, offset: 0x314E5, size: 0x8, addend: 0x0, symName: __ZNSt3__112basic_stringIcNS_11char_traitsIcEENS_9allocatorIcEEE16__set_short_sizeB8ue170006Em, symObjAddr: 0x5788, symBinAddr: 0x100006CC0, symSize: 0x78 }
  - { offsetInCU: 0x1A0C3, offset: 0x31524, size: 0x8, addend: 0x0, symName: __ZNSt3__116allocator_traitsINS_9allocatorIcEEE8max_sizeB8ue170006IS2_vEEmRKS2_, symObjAddr: 0x5800, symBinAddr: 0x100006D38, symSize: 0x24 }
  - { offsetInCU: 0x1A0F1, offset: 0x31552, size: 0x8, addend: 0x0, symName: __ZNKSt3__112basic_stringIcNS_11char_traitsIcEENS_9allocatorIcEEE7__allocB8ue170006Ev, symObjAddr: 0x5824, symBinAddr: 0x100006D5C, symSize: 0x24 }
  - { offsetInCU: 0x1A117, offset: 0x31578, size: 0x8, addend: 0x0, symName: __ZNSt3__114numeric_limitsImE3maxB8ue170006Ev, symObjAddr: 0x5848, symBinAddr: 0x100006D80, symSize: 0x14 }
  - { offsetInCU: 0x1A12B, offset: 0x3158C, size: 0x8, addend: 0x0, symName: __ZNKSt3__19allocatorIcE8max_sizeB8ue170006Ev, symObjAddr: 0x585C, symBinAddr: 0x100006D94, symSize: 0x14 }
  - { offsetInCU: 0x1A151, offset: 0x315B2, size: 0x8, addend: 0x0, symName: __ZNKSt3__117__compressed_pairINS_12basic_stringIcNS_11char_traitsIcEENS_9allocatorIcEEE5__repES5_E6secondB8ue170006Ev, symObjAddr: 0x5870, symBinAddr: 0x100006DA8, symSize: 0x24 }
  - { offsetInCU: 0x1A177, offset: 0x315D8, size: 0x8, addend: 0x0, symName: __ZNKSt3__122__compressed_pair_elemINS_9allocatorIcEELi1ELb1EE5__getB8ue170006Ev, symObjAddr: 0x5894, symBinAddr: 0x100006DCC, symSize: 0x14 }
  - { offsetInCU: 0x1A19D, offset: 0x315FE, size: 0x8, addend: 0x0, symName: __ZNSt3__123__libcpp_numeric_limitsImLb1EE3maxB8ue170006Ev, symObjAddr: 0x58A8, symBinAddr: 0x100006DE0, symSize: 0x8 }
  - { offsetInCU: 0x1A1B1, offset: 0x31612, size: 0x8, addend: 0x0, symName: __ZNSt3__111char_traitsIcE11to_int_typeB8ue170006Ec, symObjAddr: 0x58B0, symBinAddr: 0x100006DE8, symSize: 0x14 }
  - { offsetInCU: 0x1A1D4, offset: 0x31635, size: 0x8, addend: 0x0, symName: __Z7isasciii, symObjAddr: 0x58C4, symBinAddr: 0x100006DFC, symSize: 0x24 }
  - { offsetInCU: 0x1A201, offset: 0x31662, size: 0x8, addend: 0x0, symName: __ZNKSt3__18ios_base10exceptionsB8ue170006Ev, symObjAddr: 0x58E8, symBinAddr: 0x100006E20, symSize: 0x18 }
  - { offsetInCU: 0x1A229, offset: 0x3168A, size: 0x8, addend: 0x0, symName: __ZNSt3__113unordered_mapINS_12basic_stringIcNS_11char_traitsIcEENS_9allocatorIcEEEEiNS_4hashIS6_EENS_8equal_toIS6_EENS4_INS_4pairIKS6_iEEEEEC2B8ue170006Ev, symObjAddr: 0x5900, symBinAddr: 0x100006E38, symSize: 0x2C }
  - { offsetInCU: 0x1A253, offset: 0x316B4, size: 0x8, addend: 0x0, symName: __ZNSt3__112__hash_tableINS_17__hash_value_typeINS_12basic_stringIcNS_11char_traitsIcEENS_9allocatorIcEEEEiEENS_22__unordered_map_hasherIS7_S8_NS_4hashIS7_EENS_8equal_toIS7_EELb1EEENS_21__unordered_map_equalIS7_S8_SD_SB_Lb1EEENS5_IS8_EEEC1Ev, symObjAddr: 0x592C, symBinAddr: 0x100006E64, symSize: 0x2C }
  - { offsetInCU: 0x1A27F, offset: 0x316E0, size: 0x8, addend: 0x0, symName: __ZNSt3__112__hash_tableINS_17__hash_value_typeINS_12basic_stringIcNS_11char_traitsIcEENS_9allocatorIcEEEEiEENS_22__unordered_map_hasherIS7_S8_NS_4hashIS7_EENS_8equal_toIS7_EELb1EEENS_21__unordered_map_equalIS7_S8_SD_SB_Lb1EEENS5_IS8_EEEC2Ev, symObjAddr: 0x5958, symBinAddr: 0x100006E90, symSize: 0x7C }
  - { offsetInCU: 0x1A2AB, offset: 0x3170C, size: 0x8, addend: 0x0, symName: __ZNSt3__110unique_ptrIA_PNS_16__hash_node_baseIPNS_11__hash_nodeINS_17__hash_value_typeINS_12basic_stringIcNS_11char_traitsIcEENS_9allocatorIcEEEEiEEPvEEEENS_25__bucket_list_deallocatorINS7_ISF_EEEEEC1B8ue170006ILb1EvEEv, symObjAddr: 0x59D4, symBinAddr: 0x100006F0C, symSize: 0x2C }
  - { offsetInCU: 0x1A2E0, offset: 0x31741, size: 0x8, addend: 0x0, symName: __ZNSt3__117__compressed_pairINS_16__hash_node_baseIPNS_11__hash_nodeINS_17__hash_value_typeINS_12basic_stringIcNS_11char_traitsIcEENS_9allocatorIcEEEEiEEPvEEEENS7_ISC_EEEC1B8ue170006ILb1EvEEv, symObjAddr: 0x5A00, symBinAddr: 0x100006F38, symSize: 0x2C }
  - { offsetInCU: 0x1A315, offset: 0x31776, size: 0x8, addend: 0x0, symName: __ZNSt3__117__compressed_pairImNS_22__unordered_map_hasherINS_12basic_stringIcNS_11char_traitsIcEENS_9allocatorIcEEEENS_17__hash_value_typeIS7_iEENS_4hashIS7_EENS_8equal_toIS7_EELb1EEEEC1B8ue170006IiNS_18__default_init_tagEEEOT_OT0_, symObjAddr: 0x5A2C, symBinAddr: 0x100006F64, symSize: 0x3C }
  - { offsetInCU: 0x1A36D, offset: 0x317CE, size: 0x8, addend: 0x0, symName: __ZNSt3__117__compressed_pairIfNS_21__unordered_map_equalINS_12basic_stringIcNS_11char_traitsIcEENS_9allocatorIcEEEENS_17__hash_value_typeIS7_iEENS_8equal_toIS7_EENS_4hashIS7_EELb1EEEEC1B8ue170006IfNS_18__default_init_tagEEEOT_OT0_, symObjAddr: 0x5A68, symBinAddr: 0x100006FA0, symSize: 0x3C }
  - { offsetInCU: 0x1A3C5, offset: 0x31826, size: 0x8, addend: 0x0, symName: __ZNSt3__110unique_ptrIA_PNS_16__hash_node_baseIPNS_11__hash_nodeINS_17__hash_value_typeINS_12basic_stringIcNS_11char_traitsIcEENS_9allocatorIcEEEEiEEPvEEEENS_25__bucket_list_deallocatorINS7_ISF_EEEEEC2B8ue170006ILb1EvEEv, symObjAddr: 0x5AA4, symBinAddr: 0x100006FDC, symSize: 0x3C }
  - { offsetInCU: 0x1A3FA, offset: 0x3185B, size: 0x8, addend: 0x0, symName: __ZNSt3__117__compressed_pairIPPNS_16__hash_node_baseIPNS_11__hash_nodeINS_17__hash_value_typeINS_12basic_stringIcNS_11char_traitsIcEENS_9allocatorIcEEEEiEEPvEEEENS_25__bucket_list_deallocatorINS7_ISF_EEEEEC1B8ue170006INS_16__value_init_tagESM_EEOT_OT0_, symObjAddr: 0x5AE0, symBinAddr: 0x100007018, symSize: 0x3C }
  - { offsetInCU: 0x1A452, offset: 0x318B3, size: 0x8, addend: 0x0, symName: __ZNSt3__117__compressed_pairIPPNS_16__hash_node_baseIPNS_11__hash_nodeINS_17__hash_value_typeINS_12basic_stringIcNS_11char_traitsIcEENS_9allocatorIcEEEEiEEPvEEEENS_25__bucket_list_deallocatorINS7_ISF_EEEEEC2B8ue170006INS_16__value_init_tagESM_EEOT_OT0_, symObjAddr: 0x5B1C, symBinAddr: 0x100007054, symSize: 0x40 }
  - { offsetInCU: 0x1A4AA, offset: 0x3190B, size: 0x8, addend: 0x0, symName: __ZNSt3__122__compressed_pair_elemIPPNS_16__hash_node_baseIPNS_11__hash_nodeINS_17__hash_value_typeINS_12basic_stringIcNS_11char_traitsIcEENS_9allocatorIcEEEEiEEPvEEEELi0ELb0EEC2B8ue170006ENS_16__value_init_tagE, symObjAddr: 0x5B5C, symBinAddr: 0x100007094, symSize: 0x18 }
  - { offsetInCU: 0x1A4DF, offset: 0x31940, size: 0x8, addend: 0x0, symName: __ZNSt3__122__compressed_pair_elemINS_25__bucket_list_deallocatorINS_9allocatorIPNS_16__hash_node_baseIPNS_11__hash_nodeINS_17__hash_value_typeINS_12basic_stringIcNS_11char_traitsIcEENS2_IcEEEEiEEPvEEEEEEEELi1ELb0EEC2B8ue170006ENS_16__value_init_tagE, symObjAddr: 0x5B74, symBinAddr: 0x1000070AC, symSize: 0x2C }
  - { offsetInCU: 0x1A514, offset: 0x31975, size: 0x8, addend: 0x0, symName: __ZNSt3__125__bucket_list_deallocatorINS_9allocatorIPNS_16__hash_node_baseIPNS_11__hash_nodeINS_17__hash_value_typeINS_12basic_stringIcNS_11char_traitsIcEENS1_IcEEEEiEEPvEEEEEEEC1B8ue170006Ev, symObjAddr: 0x5BA0, symBinAddr: 0x1000070D8, symSize: 0x2C }
  - { offsetInCU: 0x1A53E, offset: 0x3199F, size: 0x8, addend: 0x0, symName: __ZNSt3__125__bucket_list_deallocatorINS_9allocatorIPNS_16__hash_node_baseIPNS_11__hash_nodeINS_17__hash_value_typeINS_12basic_stringIcNS_11char_traitsIcEENS1_IcEEEEiEEPvEEEEEEEC2B8ue170006Ev, symObjAddr: 0x5BCC, symBinAddr: 0x100007104, symSize: 0x40 }
  - { offsetInCU: 0x1A568, offset: 0x319C9, size: 0x8, addend: 0x0, symName: __ZNSt3__117__compressed_pairImNS_9allocatorIPNS_16__hash_node_baseIPNS_11__hash_nodeINS_17__hash_value_typeINS_12basic_stringIcNS_11char_traitsIcEENS1_IcEEEEiEEPvEEEEEEEC1B8ue170006IiNS_18__default_init_tagEEEOT_OT0_, symObjAddr: 0x5C0C, symBinAddr: 0x100007144, symSize: 0x3C }
  - { offsetInCU: 0x1A5C0, offset: 0x31A21, size: 0x8, addend: 0x0, symName: __ZNSt3__117__compressed_pairImNS_9allocatorIPNS_16__hash_node_baseIPNS_11__hash_nodeINS_17__hash_value_typeINS_12basic_stringIcNS_11char_traitsIcEENS1_IcEEEEiEEPvEEEEEEEC2B8ue170006IiNS_18__default_init_tagEEEOT_OT0_, symObjAddr: 0x5C48, symBinAddr: 0x100007180, symSize: 0x40 }
  - { offsetInCU: 0x1A618, offset: 0x31A79, size: 0x8, addend: 0x0, symName: __ZNSt3__122__compressed_pair_elemINS_9allocatorIPNS_16__hash_node_baseIPNS_11__hash_nodeINS_17__hash_value_typeINS_12basic_stringIcNS_11char_traitsIcEENS1_IcEEEEiEEPvEEEEEELi1ELb1EEC2B8ue170006ENS_18__default_init_tagE, symObjAddr: 0x5C88, symBinAddr: 0x1000071C0, symSize: 0x2C }
  - { offsetInCU: 0x1A64D, offset: 0x31AAE, size: 0x8, addend: 0x0, symName: __ZNSt3__19allocatorIPNS_16__hash_node_baseIPNS_11__hash_nodeINS_17__hash_value_typeINS_12basic_stringIcNS_11char_traitsIcEENS0_IcEEEEiEEPvEEEEEC2B8ue170006Ev, symObjAddr: 0x5CB4, symBinAddr: 0x1000071EC, symSize: 0x2C }
  - { offsetInCU: 0x1A677, offset: 0x31AD8, size: 0x8, addend: 0x0, symName: __ZNSt3__116__non_trivial_ifILb1ENS_9allocatorIPNS_16__hash_node_baseIPNS_11__hash_nodeINS_17__hash_value_typeINS_12basic_stringIcNS_11char_traitsIcEENS1_IcEEEEiEEPvEEEEEEEC2B8ue170006Ev, symObjAddr: 0x5CE0, symBinAddr: 0x100007218, symSize: 0x14 }
  - { offsetInCU: 0x1A6A1, offset: 0x31B02, size: 0x8, addend: 0x0, symName: __ZNSt3__117__compressed_pairINS_16__hash_node_baseIPNS_11__hash_nodeINS_17__hash_value_typeINS_12basic_stringIcNS_11char_traitsIcEENS_9allocatorIcEEEEiEEPvEEEENS7_ISC_EEEC2B8ue170006ILb1EvEEv, symObjAddr: 0x5CF4, symBinAddr: 0x10000722C, symSize: 0x34 }
  - { offsetInCU: 0x1A6D6, offset: 0x31B37, size: 0x8, addend: 0x0, symName: __ZNSt3__122__compressed_pair_elemINS_16__hash_node_baseIPNS_11__hash_nodeINS_17__hash_value_typeINS_12basic_stringIcNS_11char_traitsIcEENS_9allocatorIcEEEEiEEPvEEEELi0ELb0EEC2B8ue170006ENS_16__value_init_tagE, symObjAddr: 0x5D28, symBinAddr: 0x100007260, symSize: 0x2C }
  - { offsetInCU: 0x1A70B, offset: 0x31B6C, size: 0x8, addend: 0x0, symName: __ZNSt3__122__compressed_pair_elemINS_9allocatorINS_11__hash_nodeINS_17__hash_value_typeINS_12basic_stringIcNS_11char_traitsIcEENS1_IcEEEEiEEPvEEEELi1ELb1EEC2B8ue170006ENS_16__value_init_tagE, symObjAddr: 0x5D54, symBinAddr: 0x10000728C, symSize: 0x2C }
  - { offsetInCU: 0x1A740, offset: 0x31BA1, size: 0x8, addend: 0x0, symName: __ZNSt3__116__hash_node_baseIPNS_11__hash_nodeINS_17__hash_value_typeINS_12basic_stringIcNS_11char_traitsIcEENS_9allocatorIcEEEEiEEPvEEEC1B8ue170006Ev, symObjAddr: 0x5D80, symBinAddr: 0x1000072B8, symSize: 0x2C }
  - { offsetInCU: 0x1A76A, offset: 0x31BCB, size: 0x8, addend: 0x0, symName: __ZNSt3__116__hash_node_baseIPNS_11__hash_nodeINS_17__hash_value_typeINS_12basic_stringIcNS_11char_traitsIcEENS_9allocatorIcEEEEiEEPvEEEC2B8ue170006Ev, symObjAddr: 0x5DAC, symBinAddr: 0x1000072E4, symSize: 0x18 }
  - { offsetInCU: 0x1A794, offset: 0x31BF5, size: 0x8, addend: 0x0, symName: __ZNSt3__19allocatorINS_11__hash_nodeINS_17__hash_value_typeINS_12basic_stringIcNS_11char_traitsIcEENS0_IcEEEEiEEPvEEEC2B8ue170006Ev, symObjAddr: 0x5DC4, symBinAddr: 0x1000072FC, symSize: 0x2C }
  - { offsetInCU: 0x1A7BE, offset: 0x31C1F, size: 0x8, addend: 0x0, symName: __ZNSt3__116__non_trivial_ifILb1ENS_9allocatorINS_11__hash_nodeINS_17__hash_value_typeINS_12basic_stringIcNS_11char_traitsIcEENS1_IcEEEEiEEPvEEEEEC2B8ue170006Ev, symObjAddr: 0x5DF0, symBinAddr: 0x100007328, symSize: 0x14 }
  - { offsetInCU: 0x1A7E8, offset: 0x31C49, size: 0x8, addend: 0x0, symName: __ZNSt3__117__compressed_pairImNS_22__unordered_map_hasherINS_12basic_stringIcNS_11char_traitsIcEENS_9allocatorIcEEEENS_17__hash_value_typeIS7_iEENS_4hashIS7_EENS_8equal_toIS7_EELb1EEEEC2B8ue170006IiNS_18__default_init_tagEEEOT_OT0_, symObjAddr: 0x5E04, symBinAddr: 0x10000733C, symSize: 0x40 }
  - { offsetInCU: 0x1A840, offset: 0x31CA1, size: 0x8, addend: 0x0, symName: __ZNSt3__122__compressed_pair_elemINS_22__unordered_map_hasherINS_12basic_stringIcNS_11char_traitsIcEENS_9allocatorIcEEEENS_17__hash_value_typeIS7_iEENS_4hashIS7_EENS_8equal_toIS7_EELb1EEELi1ELb1EEC2B8ue170006ENS_18__default_init_tagE, symObjAddr: 0x5E44, symBinAddr: 0x10000737C, symSize: 0x2C }
  - { offsetInCU: 0x1A875, offset: 0x31CD6, size: 0x8, addend: 0x0, symName: __ZNSt3__122__unordered_map_hasherINS_12basic_stringIcNS_11char_traitsIcEENS_9allocatorIcEEEENS_17__hash_value_typeIS6_iEENS_4hashIS6_EENS_8equal_toIS6_EELb1EEC2B8ue170006Ev, symObjAddr: 0x5E70, symBinAddr: 0x1000073A8, symSize: 0x14 }
  - { offsetInCU: 0x1A89F, offset: 0x31D00, size: 0x8, addend: 0x0, symName: __ZNSt3__117__compressed_pairIfNS_21__unordered_map_equalINS_12basic_stringIcNS_11char_traitsIcEENS_9allocatorIcEEEENS_17__hash_value_typeIS7_iEENS_8equal_toIS7_EENS_4hashIS7_EELb1EEEEC2B8ue170006IfNS_18__default_init_tagEEEOT_OT0_, symObjAddr: 0x5E84, symBinAddr: 0x1000073BC, symSize: 0x40 }
  - { offsetInCU: 0x1A8F7, offset: 0x31D58, size: 0x8, addend: 0x0, symName: __ZNSt3__122__compressed_pair_elemINS_21__unordered_map_equalINS_12basic_stringIcNS_11char_traitsIcEENS_9allocatorIcEEEENS_17__hash_value_typeIS7_iEENS_8equal_toIS7_EENS_4hashIS7_EELb1EEELi1ELb1EEC2B8ue170006ENS_18__default_init_tagE, symObjAddr: 0x5EC4, symBinAddr: 0x1000073FC, symSize: 0x2C }
  - { offsetInCU: 0x1A92C, offset: 0x31D8D, size: 0x8, addend: 0x0, symName: __ZNSt3__121__unordered_map_equalINS_12basic_stringIcNS_11char_traitsIcEENS_9allocatorIcEEEENS_17__hash_value_typeIS6_iEENS_8equal_toIS6_EENS_4hashIS6_EELb1EEC2B8ue170006Ev, symObjAddr: 0x5EF0, symBinAddr: 0x100007428, symSize: 0x14 }
  - { offsetInCU: 0x1A956, offset: 0x31DB7, size: 0x8, addend: 0x0, symName: __ZNSt3__113unordered_mapINS_12basic_stringIcNS_11char_traitsIcEENS_9allocatorIcEEEEiNS_4hashIS6_EENS_8equal_toIS6_EENS4_INS_4pairIKS6_iEEEEED2B8ue170006Ev, symObjAddr: 0x5F04, symBinAddr: 0x10000743C, symSize: 0x2C }
  - { offsetInCU: 0x1A980, offset: 0x31DE1, size: 0x8, addend: 0x0, symName: __ZNSt3__112__hash_tableINS_17__hash_value_typeINS_12basic_stringIcNS_11char_traitsIcEENS_9allocatorIcEEEEiEENS_22__unordered_map_hasherIS7_S8_NS_4hashIS7_EENS_8equal_toIS7_EELb1EEENS_21__unordered_map_equalIS7_S8_SD_SB_Lb1EEENS5_IS8_EEED1Ev, symObjAddr: 0x5F30, symBinAddr: 0x100007468, symSize: 0x2C }
  - { offsetInCU: 0x1A9AC, offset: 0x31E0D, size: 0x8, addend: 0x0, symName: __ZNSt3__112__hash_tableINS_17__hash_value_typeINS_12basic_stringIcNS_11char_traitsIcEENS_9allocatorIcEEEEiEENS_22__unordered_map_hasherIS7_S8_NS_4hashIS7_EENS_8equal_toIS7_EELb1EEENS_21__unordered_map_equalIS7_S8_SD_SB_Lb1EEENS5_IS8_EEED2Ev, symObjAddr: 0x5F5C, symBinAddr: 0x100007494, symSize: 0x48 }
  - { offsetInCU: 0x1A9D8, offset: 0x31E39, size: 0x8, addend: 0x0, symName: __ZNSt3__112__hash_tableINS_17__hash_value_typeINS_12basic_stringIcNS_11char_traitsIcEENS_9allocatorIcEEEEiEENS_22__unordered_map_hasherIS7_S8_NS_4hashIS7_EENS_8equal_toIS7_EELb1EEENS_21__unordered_map_equalIS7_S8_SD_SB_Lb1EEENS5_IS8_EEE17__deallocate_nodeEPNS_16__hash_node_baseIPNS_11__hash_nodeIS8_PvEEEE, symObjAddr: 0x5FA4, symBinAddr: 0x1000074DC, symSize: 0xA8 }
  - { offsetInCU: 0x1AA43, offset: 0x31EA4, size: 0x8, addend: 0x0, symName: __ZNSt3__117__compressed_pairINS_16__hash_node_baseIPNS_11__hash_nodeINS_17__hash_value_typeINS_12basic_stringIcNS_11char_traitsIcEENS_9allocatorIcEEEEiEEPvEEEENS7_ISC_EEE5firstB8ue170006Ev, symObjAddr: 0x604C, symBinAddr: 0x100007584, symSize: 0x24 }
  - { offsetInCU: 0x1AA69, offset: 0x31ECA, size: 0x8, addend: 0x0, symName: __ZNSt3__110unique_ptrIA_PNS_16__hash_node_baseIPNS_11__hash_nodeINS_17__hash_value_typeINS_12basic_stringIcNS_11char_traitsIcEENS_9allocatorIcEEEEiEEPvEEEENS_25__bucket_list_deallocatorINS7_ISF_EEEEED1B8ue170006Ev, symObjAddr: 0x6070, symBinAddr: 0x1000075A8, symSize: 0x2C }
  - { offsetInCU: 0x1AA93, offset: 0x31EF4, size: 0x8, addend: 0x0, symName: __ZNSt3__112__hash_tableINS_17__hash_value_typeINS_12basic_stringIcNS_11char_traitsIcEENS_9allocatorIcEEEEiEENS_22__unordered_map_hasherIS7_S8_NS_4hashIS7_EENS_8equal_toIS7_EELb1EEENS_21__unordered_map_equalIS7_S8_SD_SB_Lb1EEENS5_IS8_EEE12__node_allocB8ue170006Ev, symObjAddr: 0x609C, symBinAddr: 0x1000075D4, symSize: 0x28 }
  - { offsetInCU: 0x1AAB9, offset: 0x31F1A, size: 0x8, addend: 0x0, symName: __ZNSt3__116__hash_node_baseIPNS_11__hash_nodeINS_17__hash_value_typeINS_12basic_stringIcNS_11char_traitsIcEENS_9allocatorIcEEEEiEEPvEEE8__upcastB8ue170006Ev, symObjAddr: 0x60C4, symBinAddr: 0x1000075FC, symSize: 0x24 }
  - { offsetInCU: 0x1AADF, offset: 0x31F40, size: 0x8, addend: 0x0, symName: __ZNSt3__116allocator_traitsINS_9allocatorINS_11__hash_nodeINS_17__hash_value_typeINS_12basic_stringIcNS_11char_traitsIcEENS1_IcEEEEiEEPvEEEEE7destroyB8ue170006INS_4pairIKS8_iEEvvEEvRSC_PT_, symObjAddr: 0x60E8, symBinAddr: 0x100007620, symSize: 0x28 }
  - { offsetInCU: 0x1AB1A, offset: 0x31F7B, size: 0x8, addend: 0x0, symName: __ZNSt3__122__hash_key_value_typesINS_17__hash_value_typeINS_12basic_stringIcNS_11char_traitsIcEENS_9allocatorIcEEEEiEEE9__get_ptrB8ue170006ERS8_, symObjAddr: 0x6110, symBinAddr: 0x100007648, symSize: 0x24 }
  - { offsetInCU: 0x1AB3D, offset: 0x31F9E, size: 0x8, addend: 0x0, symName: __ZNSt3__116allocator_traitsINS_9allocatorINS_11__hash_nodeINS_17__hash_value_typeINS_12basic_stringIcNS_11char_traitsIcEENS1_IcEEEEiEEPvEEEEE10deallocateB8ue170006ERSC_PSB_m, symObjAddr: 0x6134, symBinAddr: 0x10000766C, symSize: 0x34 }
  - { offsetInCU: 0x1AB7F, offset: 0x31FE0, size: 0x8, addend: 0x0, symName: __ZNSt3__117__compressed_pairINS_16__hash_node_baseIPNS_11__hash_nodeINS_17__hash_value_typeINS_12basic_stringIcNS_11char_traitsIcEENS_9allocatorIcEEEEiEEPvEEEENS7_ISC_EEE6secondB8ue170006Ev, symObjAddr: 0x6168, symBinAddr: 0x1000076A0, symSize: 0x24 }
  - { offsetInCU: 0x1ABA5, offset: 0x32006, size: 0x8, addend: 0x0, symName: __ZNSt3__122__compressed_pair_elemINS_9allocatorINS_11__hash_nodeINS_17__hash_value_typeINS_12basic_stringIcNS_11char_traitsIcEENS1_IcEEEEiEEPvEEEELi1ELb1EE5__getB8ue170006Ev, symObjAddr: 0x618C, symBinAddr: 0x1000076C4, symSize: 0x14 }
  - { offsetInCU: 0x1ABCB, offset: 0x3202C, size: 0x8, addend: 0x0, symName: __ZNSt3__114pointer_traitsIPNS_16__hash_node_baseIPNS_11__hash_nodeINS_17__hash_value_typeINS_12basic_stringIcNS_11char_traitsIcEENS_9allocatorIcEEEEiEEPvEEEEE10pointer_toB8ue170006ERSE_, symObjAddr: 0x61A0, symBinAddr: 0x1000076D8, symSize: 0x14 }
  - { offsetInCU: 0x1ABEE, offset: 0x3204F, size: 0x8, addend: 0x0, symName: __ZNSt3__14pairIKNS_12basic_stringIcNS_11char_traitsIcEENS_9allocatorIcEEEEiED1Ev, symObjAddr: 0x61B4, symBinAddr: 0x1000076EC, symSize: 0x2C }
  - { offsetInCU: 0x1AC1A, offset: 0x3207B, size: 0x8, addend: 0x0, symName: __ZNSt3__14pairIKNS_12basic_stringIcNS_11char_traitsIcEENS_9allocatorIcEEEEiED2Ev, symObjAddr: 0x61E0, symBinAddr: 0x100007718, symSize: 0x2C }
  - { offsetInCU: 0x1AC46, offset: 0x320A7, size: 0x8, addend: 0x0, symName: __ZNSt3__117__hash_value_typeINS_12basic_stringIcNS_11char_traitsIcEENS_9allocatorIcEEEEiE11__get_valueB8ue170006Ev, symObjAddr: 0x620C, symBinAddr: 0x100007744, symSize: 0x24 }
  - { offsetInCU: 0x1AC6C, offset: 0x320CD, size: 0x8, addend: 0x0, symName: __ZNSt3__19allocatorINS_11__hash_nodeINS_17__hash_value_typeINS_12basic_stringIcNS_11char_traitsIcEENS0_IcEEEEiEEPvEEE10deallocateB8ue170006EPSA_m, symObjAddr: 0x6268, symBinAddr: 0x1000077A0, symSize: 0x44 }
  - { offsetInCU: 0x1ACAE, offset: 0x3210F, size: 0x8, addend: 0x0, symName: __ZNSt3__122__compressed_pair_elemINS_16__hash_node_baseIPNS_11__hash_nodeINS_17__hash_value_typeINS_12basic_stringIcNS_11char_traitsIcEENS_9allocatorIcEEEEiEEPvEEEELi0ELb0EE5__getB8ue170006Ev, symObjAddr: 0x62AC, symBinAddr: 0x1000077E4, symSize: 0x14 }
  - { offsetInCU: 0x1ACD4, offset: 0x32135, size: 0x8, addend: 0x0, symName: __ZNSt3__110unique_ptrIA_PNS_16__hash_node_baseIPNS_11__hash_nodeINS_17__hash_value_typeINS_12basic_stringIcNS_11char_traitsIcEENS_9allocatorIcEEEEiEEPvEEEENS_25__bucket_list_deallocatorINS7_ISF_EEEEED2B8ue170006Ev, symObjAddr: 0x62C0, symBinAddr: 0x1000077F8, symSize: 0x30 }
  - { offsetInCU: 0x1ACFE, offset: 0x3215F, size: 0x8, addend: 0x0, symName: __ZNSt3__110unique_ptrIA_PNS_16__hash_node_baseIPNS_11__hash_nodeINS_17__hash_value_typeINS_12basic_stringIcNS_11char_traitsIcEENS_9allocatorIcEEEEiEEPvEEEENS_25__bucket_list_deallocatorINS7_ISF_EEEEE5resetB8ue170006EDn, symObjAddr: 0x62F0, symBinAddr: 0x100007828, symSize: 0x6C }
  - { offsetInCU: 0x1AD3F, offset: 0x321A0, size: 0x8, addend: 0x0, symName: __ZNSt3__117__compressed_pairIPPNS_16__hash_node_baseIPNS_11__hash_nodeINS_17__hash_value_typeINS_12basic_stringIcNS_11char_traitsIcEENS_9allocatorIcEEEEiEEPvEEEENS_25__bucket_list_deallocatorINS7_ISF_EEEEE5firstB8ue170006Ev, symObjAddr: 0x635C, symBinAddr: 0x100007894, symSize: 0x24 }
  - { offsetInCU: 0x1AD65, offset: 0x321C6, size: 0x8, addend: 0x0, symName: __ZNSt3__117__compressed_pairIPPNS_16__hash_node_baseIPNS_11__hash_nodeINS_17__hash_value_typeINS_12basic_stringIcNS_11char_traitsIcEENS_9allocatorIcEEEEiEEPvEEEENS_25__bucket_list_deallocatorINS7_ISF_EEEEE6secondB8ue170006Ev, symObjAddr: 0x6380, symBinAddr: 0x1000078B8, symSize: 0x28 }
  - { offsetInCU: 0x1AD8B, offset: 0x321EC, size: 0x8, addend: 0x0, symName: __ZNSt3__125__bucket_list_deallocatorINS_9allocatorIPNS_16__hash_node_baseIPNS_11__hash_nodeINS_17__hash_value_typeINS_12basic_stringIcNS_11char_traitsIcEENS1_IcEEEEiEEPvEEEEEEEclB8ue170006EPSF_, symObjAddr: 0x63A8, symBinAddr: 0x1000078E0, symSize: 0x58 }
  - { offsetInCU: 0x1ADC0, offset: 0x32221, size: 0x8, addend: 0x0, symName: __ZNSt3__122__compressed_pair_elemIPPNS_16__hash_node_baseIPNS_11__hash_nodeINS_17__hash_value_typeINS_12basic_stringIcNS_11char_traitsIcEENS_9allocatorIcEEEEiEEPvEEEELi0ELb0EE5__getB8ue170006Ev, symObjAddr: 0x6400, symBinAddr: 0x100007938, symSize: 0x14 }
  - { offsetInCU: 0x1ADE6, offset: 0x32247, size: 0x8, addend: 0x0, symName: __ZNSt3__122__compressed_pair_elemINS_25__bucket_list_deallocatorINS_9allocatorIPNS_16__hash_node_baseIPNS_11__hash_nodeINS_17__hash_value_typeINS_12basic_stringIcNS_11char_traitsIcEENS2_IcEEEEiEEPvEEEEEEEELi1ELb0EE5__getB8ue170006Ev, symObjAddr: 0x6414, symBinAddr: 0x10000794C, symSize: 0x14 }
  - { offsetInCU: 0x1AE0C, offset: 0x3226D, size: 0x8, addend: 0x0, symName: __ZNSt3__116allocator_traitsINS_9allocatorIPNS_16__hash_node_baseIPNS_11__hash_nodeINS_17__hash_value_typeINS_12basic_stringIcNS_11char_traitsIcEENS1_IcEEEEiEEPvEEEEEEE10deallocateB8ue170006ERSG_PSF_m, symObjAddr: 0x6428, symBinAddr: 0x100007960, symSize: 0x34 }
  - { offsetInCU: 0x1AE4E, offset: 0x322AF, size: 0x8, addend: 0x0, symName: __ZNSt3__125__bucket_list_deallocatorINS_9allocatorIPNS_16__hash_node_baseIPNS_11__hash_nodeINS_17__hash_value_typeINS_12basic_stringIcNS_11char_traitsIcEENS1_IcEEEEiEEPvEEEEEEE7__allocB8ue170006Ev, symObjAddr: 0x645C, symBinAddr: 0x100007994, symSize: 0x24 }
  - { offsetInCU: 0x1AE74, offset: 0x322D5, size: 0x8, addend: 0x0, symName: __ZNSt3__125__bucket_list_deallocatorINS_9allocatorIPNS_16__hash_node_baseIPNS_11__hash_nodeINS_17__hash_value_typeINS_12basic_stringIcNS_11char_traitsIcEENS1_IcEEEEiEEPvEEEEEEE4sizeB8ue170006Ev, symObjAddr: 0x6480, symBinAddr: 0x1000079B8, symSize: 0x24 }
  - { offsetInCU: 0x1AE9A, offset: 0x322FB, size: 0x8, addend: 0x0, symName: __ZNSt3__19allocatorIPNS_16__hash_node_baseIPNS_11__hash_nodeINS_17__hash_value_typeINS_12basic_stringIcNS_11char_traitsIcEENS0_IcEEEEiEEPvEEEEE10deallocateB8ue170006EPSE_m, symObjAddr: 0x64A4, symBinAddr: 0x1000079DC, symSize: 0x40 }
  - { offsetInCU: 0x1AEDC, offset: 0x3233D, size: 0x8, addend: 0x0, symName: __ZNSt3__117__compressed_pairImNS_9allocatorIPNS_16__hash_node_baseIPNS_11__hash_nodeINS_17__hash_value_typeINS_12basic_stringIcNS_11char_traitsIcEENS1_IcEEEEiEEPvEEEEEEE6secondB8ue170006Ev, symObjAddr: 0x64E4, symBinAddr: 0x100007A1C, symSize: 0x24 }
  - { offsetInCU: 0x1AF02, offset: 0x32363, size: 0x8, addend: 0x0, symName: __ZNSt3__122__compressed_pair_elemINS_9allocatorIPNS_16__hash_node_baseIPNS_11__hash_nodeINS_17__hash_value_typeINS_12basic_stringIcNS_11char_traitsIcEENS1_IcEEEEiEEPvEEEEEELi1ELb1EE5__getB8ue170006Ev, symObjAddr: 0x6508, symBinAddr: 0x100007A40, symSize: 0x14 }
  - { offsetInCU: 0x1AF28, offset: 0x32389, size: 0x8, addend: 0x0, symName: __ZNSt3__117__compressed_pairImNS_9allocatorIPNS_16__hash_node_baseIPNS_11__hash_nodeINS_17__hash_value_typeINS_12basic_stringIcNS_11char_traitsIcEENS1_IcEEEEiEEPvEEEEEEE5firstB8ue170006Ev, symObjAddr: 0x651C, symBinAddr: 0x100007A54, symSize: 0x24 }
  - { offsetInCU: 0x1AF62, offset: 0x323C3, size: 0x8, addend: 0x0, symName: __ZNSt3__112__hash_tableINS_17__hash_value_typeINS_12basic_stringIcNS_11char_traitsIcEENS_9allocatorIcEEEEiEENS_22__unordered_map_hasherIS7_S8_NS_4hashIS7_EENS_8equal_toIS7_EELb1EEENS_21__unordered_map_equalIS7_S8_SD_SB_Lb1EEENS5_IS8_EEE25__emplace_unique_key_argsIS7_JRKNS_21piecewise_construct_tENS_5tupleIJRKS7_EEENSN_IJEEEEEENS_4pairINS_15__hash_iteratorIPNS_11__hash_nodeIS8_PvEEEEbEERKT_DpOT0_, symObjAddr: 0x6540, symBinAddr: 0x100007A78, symSize: 0x4E8 }
  - { offsetInCU: 0x1B06D, offset: 0x324CE, size: 0x8, addend: 0x0, symName: __ZNKSt3__115__hash_iteratorIPNS_11__hash_nodeINS_17__hash_value_typeINS_12basic_stringIcNS_11char_traitsIcEENS_9allocatorIcEEEEiEEPvEEEptB8ue170006Ev, symObjAddr: 0x6A58, symBinAddr: 0x100007F90, symSize: 0x30 }
  - { offsetInCU: 0x1B093, offset: 0x324F4, size: 0x8, addend: 0x0, symName: __ZNSt3__112__hash_tableINS_17__hash_value_typeINS_12basic_stringIcNS_11char_traitsIcEENS_9allocatorIcEEEEiEENS_22__unordered_map_hasherIS7_S8_NS_4hashIS7_EENS_8equal_toIS7_EELb1EEENS_21__unordered_map_equalIS7_S8_SD_SB_Lb1EEENS5_IS8_EEE13hash_functionB8ue170006Ev, symObjAddr: 0x6A88, symBinAddr: 0x100007FC0, symSize: 0x28 }
  - { offsetInCU: 0x1B0B9, offset: 0x3251A, size: 0x8, addend: 0x0, symName: __ZNKSt3__122__unordered_map_hasherINS_12basic_stringIcNS_11char_traitsIcEENS_9allocatorIcEEEENS_17__hash_value_typeIS6_iEENS_4hashIS6_EENS_8equal_toIS6_EELb1EEclB8ue170006ERKS6_, symObjAddr: 0x6AB0, symBinAddr: 0x100007FE8, symSize: 0x2C }
  - { offsetInCU: 0x1B0EE, offset: 0x3254F, size: 0x8, addend: 0x0, symName: __ZNKSt3__112__hash_tableINS_17__hash_value_typeINS_12basic_stringIcNS_11char_traitsIcEENS_9allocatorIcEEEEiEENS_22__unordered_map_hasherIS7_S8_NS_4hashIS7_EENS_8equal_toIS7_EELb1EEENS_21__unordered_map_equalIS7_S8_SD_SB_Lb1EEENS5_IS8_EEE12bucket_countB8ue170006Ev, symObjAddr: 0x6ADC, symBinAddr: 0x100008014, symSize: 0x28 }
  - { offsetInCU: 0x1B114, offset: 0x32575, size: 0x8, addend: 0x0, symName: __ZNKSt3__110unique_ptrIA_PNS_16__hash_node_baseIPNS_11__hash_nodeINS_17__hash_value_typeINS_12basic_stringIcNS_11char_traitsIcEENS_9allocatorIcEEEEiEEPvEEEENS_25__bucket_list_deallocatorINS7_ISF_EEEEEixB8ue170006Em, symObjAddr: 0x6B9C, symBinAddr: 0x1000080D4, symSize: 0x34 }
  - { offsetInCU: 0x1B149, offset: 0x325AA, size: 0x8, addend: 0x0, symName: __ZNKSt3__116__hash_node_baseIPNS_11__hash_nodeINS_17__hash_value_typeINS_12basic_stringIcNS_11char_traitsIcEENS_9allocatorIcEEEEiEEPvEEE6__hashB8ue170006Ev, symObjAddr: 0x6BD0, symBinAddr: 0x100008108, symSize: 0x18 }
  - { offsetInCU: 0x1B16F, offset: 0x325D0, size: 0x8, addend: 0x0, symName: __ZNSt3__112__hash_tableINS_17__hash_value_typeINS_12basic_stringIcNS_11char_traitsIcEENS_9allocatorIcEEEEiEENS_22__unordered_map_hasherIS7_S8_NS_4hashIS7_EENS_8equal_toIS7_EELb1EEENS_21__unordered_map_equalIS7_S8_SD_SB_Lb1EEENS5_IS8_EEE6key_eqB8ue170006Ev, symObjAddr: 0x6BE8, symBinAddr: 0x100008120, symSize: 0x28 }
  - { offsetInCU: 0x1B195, offset: 0x325F6, size: 0x8, addend: 0x0, symName: __ZNKSt3__121__unordered_map_equalINS_12basic_stringIcNS_11char_traitsIcEENS_9allocatorIcEEEENS_17__hash_value_typeIS6_iEENS_8equal_toIS6_EENS_4hashIS6_EELb1EEclB8ue170006ERKS8_RKS6_, symObjAddr: 0x6C10, symBinAddr: 0x100008148, symSize: 0x48 }
  - { offsetInCU: 0x1B1D9, offset: 0x3263A, size: 0x8, addend: 0x0, symName: __ZNSt3__112__hash_tableINS_17__hash_value_typeINS_12basic_stringIcNS_11char_traitsIcEENS_9allocatorIcEEEEiEENS_22__unordered_map_hasherIS7_S8_NS_4hashIS7_EENS_8equal_toIS7_EELb1EEENS_21__unordered_map_equalIS7_S8_SD_SB_Lb1EEENS5_IS8_EEE21__construct_node_hashIRKNS_21piecewise_construct_tEJNS_5tupleIJRKS7_EEENSN_IJEEEEEENS_10unique_ptrINS_11__hash_nodeIS8_PvEENS_22__hash_node_destructorINS5_ISV_EEEEEEmOT_DpOT0_, symObjAddr: 0x6C58, symBinAddr: 0x100008190, symSize: 0x150 }
  - { offsetInCU: 0x1B275, offset: 0x326D6, size: 0x8, addend: 0x0, symName: __ZNSt3__112__hash_tableINS_17__hash_value_typeINS_12basic_stringIcNS_11char_traitsIcEENS_9allocatorIcEEEEiEENS_22__unordered_map_hasherIS7_S8_NS_4hashIS7_EENS_8equal_toIS7_EELb1EEENS_21__unordered_map_equalIS7_S8_SD_SB_Lb1EEENS5_IS8_EEE4sizeB8ue170006Ev, symObjAddr: 0x6DA8, symBinAddr: 0x1000082E0, symSize: 0x28 }
  - { offsetInCU: 0x1B29B, offset: 0x326FC, size: 0x8, addend: 0x0, symName: __ZNSt3__112__hash_tableINS_17__hash_value_typeINS_12basic_stringIcNS_11char_traitsIcEENS_9allocatorIcEEEEiEENS_22__unordered_map_hasherIS7_S8_NS_4hashIS7_EENS_8equal_toIS7_EELb1EEENS_21__unordered_map_equalIS7_S8_SD_SB_Lb1EEENS5_IS8_EEE15max_load_factorB8ue170006Ev, symObjAddr: 0x6DD0, symBinAddr: 0x100008308, symSize: 0x28 }
  - { offsetInCU: 0x1B2C1, offset: 0x32722, size: 0x8, addend: 0x0, symName: __ZNSt3__112__hash_tableINS_17__hash_value_typeINS_12basic_stringIcNS_11char_traitsIcEENS_9allocatorIcEEEEiEENS_22__unordered_map_hasherIS7_S8_NS_4hashIS7_EENS_8equal_toIS7_EELb1EEENS_21__unordered_map_equalIS7_S8_SD_SB_Lb1EEENS5_IS8_EEE15__rehash_uniqueB8ue170006Em, symObjAddr: 0x6DF8, symBinAddr: 0x100008330, symSize: 0x2C }
  - { offsetInCU: 0x1B2F5, offset: 0x32756, size: 0x8, addend: 0x0, symName: __Z4ceilB8ue170006f, symObjAddr: 0x6E74, symBinAddr: 0x1000083AC, symSize: 0x18 }
  - { offsetInCU: 0x1B324, offset: 0x32785, size: 0x8, addend: 0x0, symName: __ZNSt3__116__hash_node_baseIPNS_11__hash_nodeINS_17__hash_value_typeINS_12basic_stringIcNS_11char_traitsIcEENS_9allocatorIcEEEEiEEPvEEE5__ptrB8ue170006Ev, symObjAddr: 0x6E8C, symBinAddr: 0x1000083C4, symSize: 0x24 }
  - { offsetInCU: 0x1B34A, offset: 0x327AB, size: 0x8, addend: 0x0, symName: __ZNKSt3__110unique_ptrINS_11__hash_nodeINS_17__hash_value_typeINS_12basic_stringIcNS_11char_traitsIcEENS_9allocatorIcEEEEiEEPvEENS_22__hash_node_destructorINS6_ISB_EEEEEptB8ue170006Ev, symObjAddr: 0x6EB0, symBinAddr: 0x1000083E8, symSize: 0x28 }
  - { offsetInCU: 0x1B370, offset: 0x327D1, size: 0x8, addend: 0x0, symName: __ZNKSt3__110unique_ptrINS_11__hash_nodeINS_17__hash_value_typeINS_12basic_stringIcNS_11char_traitsIcEENS_9allocatorIcEEEEiEEPvEENS_22__hash_node_destructorINS6_ISB_EEEEE3getB8ue170006Ev, symObjAddr: 0x6ED8, symBinAddr: 0x100008410, symSize: 0x28 }
  - { offsetInCU: 0x1B396, offset: 0x327F7, size: 0x8, addend: 0x0, symName: __ZNSt3__110unique_ptrINS_11__hash_nodeINS_17__hash_value_typeINS_12basic_stringIcNS_11char_traitsIcEENS_9allocatorIcEEEEiEEPvEENS_22__hash_node_destructorINS6_ISB_EEEEE7releaseB8ue170006Ev, symObjAddr: 0x6F00, symBinAddr: 0x100008438, symSize: 0x44 }
  - { offsetInCU: 0x1B3CB, offset: 0x3282C, size: 0x8, addend: 0x0, symName: __ZNSt3__110unique_ptrINS_11__hash_nodeINS_17__hash_value_typeINS_12basic_stringIcNS_11char_traitsIcEENS_9allocatorIcEEEEiEEPvEENS_22__hash_node_destructorINS6_ISB_EEEEED1B8ue170006Ev, symObjAddr: 0x6F44, symBinAddr: 0x10000847C, symSize: 0x2C }
  - { offsetInCU: 0x1B3F5, offset: 0x32856, size: 0x8, addend: 0x0, symName: __ZNSt3__115__hash_iteratorIPNS_11__hash_nodeINS_17__hash_value_typeINS_12basic_stringIcNS_11char_traitsIcEENS_9allocatorIcEEEEiEEPvEEEC1B8ue170006EPNS_16__hash_node_baseISC_EE, symObjAddr: 0x6F70, symBinAddr: 0x1000084A8, symSize: 0x34 }
  - { offsetInCU: 0x1B433, offset: 0x32894, size: 0x8, addend: 0x0, symName: __ZNSt3__14pairINS_15__hash_iteratorIPNS_11__hash_nodeINS_17__hash_value_typeINS_12basic_stringIcNS_11char_traitsIcEENS_9allocatorIcEEEEiEEPvEEEEbEC1B8ue170006ISE_RbLSB_0EEEOT_OT0_, symObjAddr: 0x6FA4, symBinAddr: 0x1000084DC, symSize: 0x3C }
  - { offsetInCU: 0x1B491, offset: 0x328F2, size: 0x8, addend: 0x0, symName: __ZNSt3__117__compressed_pairImNS_22__unordered_map_hasherINS_12basic_stringIcNS_11char_traitsIcEENS_9allocatorIcEEEENS_17__hash_value_typeIS7_iEENS_4hashIS7_EENS_8equal_toIS7_EELb1EEEE6secondB8ue170006Ev, symObjAddr: 0x6FE0, symBinAddr: 0x100008518, symSize: 0x24 }
  - { offsetInCU: 0x1B4B7, offset: 0x32918, size: 0x8, addend: 0x0, symName: __ZNSt3__122__compressed_pair_elemINS_22__unordered_map_hasherINS_12basic_stringIcNS_11char_traitsIcEENS_9allocatorIcEEEENS_17__hash_value_typeIS7_iEENS_4hashIS7_EENS_8equal_toIS7_EELb1EEELi1ELb1EE5__getB8ue170006Ev, symObjAddr: 0x7004, symBinAddr: 0x10000853C, symSize: 0x14 }
  - { offsetInCU: 0x1B4DD, offset: 0x3293E, size: 0x8, addend: 0x0, symName: __ZNKSt3__113__string_hashIcNS_9allocatorIcEEEclB8ue170006ERKNS_12basic_stringIcNS_11char_traitsIcEES2_EE, symObjAddr: 0x7018, symBinAddr: 0x100008550, symSize: 0x64 }
  - { offsetInCU: 0x1B512, offset: 0x32973, size: 0x8, addend: 0x0, symName: __ZNKSt3__112basic_stringIcNS_11char_traitsIcEENS_9allocatorIcEEE4dataB8ue170006Ev, symObjAddr: 0x70B8, symBinAddr: 0x1000085F0, symSize: 0x28 }
  - { offsetInCU: 0x1B538, offset: 0x32999, size: 0x8, addend: 0x0, symName: __ZNKSt3__112basic_stringIcNS_11char_traitsIcEENS_9allocatorIcEEE4sizeB8ue170006Ev, symObjAddr: 0x70E0, symBinAddr: 0x100008618, symSize: 0x54 }
  - { offsetInCU: 0x1B55E, offset: 0x329BF, size: 0x8, addend: 0x0, symName: __ZNKSt3__121__murmur2_or_cityhashImLm64EEclB8ue170006EPKvm, symObjAddr: 0x7134, symBinAddr: 0x10000866C, symSize: 0x410 }
  - { offsetInCU: 0x1B5FE, offset: 0x32A5F, size: 0x8, addend: 0x0, symName: __ZNSt3__121__murmur2_or_cityhashImLm64EE18__hash_len_0_to_16B8ue170006EPKcm, symObjAddr: 0x7544, symBinAddr: 0x100008A7C, symSize: 0x1C0 }
  - { offsetInCU: 0x1B6E0, offset: 0x32B41, size: 0x8, addend: 0x0, symName: __ZNSt3__121__murmur2_or_cityhashImLm64EE19__hash_len_17_to_32B8ue170006EPKcm, symObjAddr: 0x7704, symBinAddr: 0x100008C3C, symSize: 0x130 }
  - { offsetInCU: 0x1B74D, offset: 0x32BAE, size: 0x8, addend: 0x0, symName: __ZNSt3__121__murmur2_or_cityhashImLm64EE19__hash_len_33_to_64B8ue170006EPKcm, symObjAddr: 0x7834, symBinAddr: 0x100008D6C, symSize: 0x2B8 }
  - { offsetInCU: 0x1B808, offset: 0x32C69, size: 0x8, addend: 0x0, symName: __ZNSt3__121__murmur2_or_cityhashImLm64EE13__hash_len_16B8ue170006Emm, symObjAddr: 0x7B0C, symBinAddr: 0x100009044, symSize: 0x80 }
  - { offsetInCU: 0x1B866, offset: 0x32CC7, size: 0x8, addend: 0x0, symName: __ZNSt3__121__murmur2_or_cityhashImLm64EE29__weak_hash_len_32_with_seedsB8ue170006EPKcmm, symObjAddr: 0x7B8C, symBinAddr: 0x1000090C4, symSize: 0x88 }
  - { offsetInCU: 0x1B8A5, offset: 0x32D06, size: 0x8, addend: 0x0, symName: __ZNSt3__121__murmur2_or_cityhashImLm64EE8__rotateB8ue170006Emi, symObjAddr: 0x7C14, symBinAddr: 0x10000914C, symSize: 0x64 }
  - { offsetInCU: 0x1B8D6, offset: 0x32D37, size: 0x8, addend: 0x0, symName: __ZNSt3__14pairImmEaSB8ue170006EOS1_, symObjAddr: 0x7C78, symBinAddr: 0x1000091B0, symSize: 0x30 }
  - { offsetInCU: 0x1B90B, offset: 0x32D6C, size: 0x8, addend: 0x0, symName: __ZNSt3__121__murmur2_or_cityhashImLm64EE11__shift_mixB8ue170006Em, symObjAddr: 0x7CE4, symBinAddr: 0x10000921C, symSize: 0x1C }
  - { offsetInCU: 0x1B92E, offset: 0x32D8F, size: 0x8, addend: 0x0, symName: __ZNSt3__121__murmur2_or_cityhashImLm64EE22__rotate_by_at_least_1B8ue170006Emi, symObjAddr: 0x7D00, symBinAddr: 0x100009238, symSize: 0x38 }
  - { offsetInCU: 0x1B95F, offset: 0x32DC0, size: 0x8, addend: 0x0, symName: __ZNSt3__121__murmur2_or_cityhashImLm64EE29__weak_hash_len_32_with_seedsB8ue170006Emmmmmm, symObjAddr: 0x7D58, symBinAddr: 0x100009290, symSize: 0xD8 }
  - { offsetInCU: 0x1B9DC, offset: 0x32E3D, size: 0x8, addend: 0x0, symName: __ZNSt3__14pairImmEC1B8ue170006ImmLPv0EEEOT_OT0_, symObjAddr: 0x7E30, symBinAddr: 0x100009368, symSize: 0x3C }
  - { offsetInCU: 0x1BA3A, offset: 0x32E9B, size: 0x8, addend: 0x0, symName: __ZNSt3__14pairImmEC2B8ue170006ImmLPv0EEEOT_OT0_, symObjAddr: 0x7E6C, symBinAddr: 0x1000093A4, symSize: 0x34 }
  - { offsetInCU: 0x1BA98, offset: 0x32EF9, size: 0x8, addend: 0x0, symName: __ZNKSt3__112basic_stringIcNS_11char_traitsIcEENS_9allocatorIcEEE13__get_pointerB8ue170006Ev, symObjAddr: 0x7EB4, symBinAddr: 0x1000093EC, symSize: 0x54 }
  - { offsetInCU: 0x1BABE, offset: 0x32F1F, size: 0x8, addend: 0x0, symName: __ZNKSt3__112basic_stringIcNS_11char_traitsIcEENS_9allocatorIcEEE18__get_long_pointerB8ue170006Ev, symObjAddr: 0x7F08, symBinAddr: 0x100009440, symSize: 0x28 }
  - { offsetInCU: 0x1BAE4, offset: 0x32F45, size: 0x8, addend: 0x0, symName: __ZNKSt3__112basic_stringIcNS_11char_traitsIcEENS_9allocatorIcEEE19__get_short_pointerB8ue170006Ev, symObjAddr: 0x7F30, symBinAddr: 0x100009468, symSize: 0x28 }
  - { offsetInCU: 0x1BB0A, offset: 0x32F6B, size: 0x8, addend: 0x0, symName: __ZNSt3__114pointer_traitsIPKcE10pointer_toB8ue170006ERS1_, symObjAddr: 0x7F58, symBinAddr: 0x100009490, symSize: 0x14 }
  - { offsetInCU: 0x1BB2D, offset: 0x32F8E, size: 0x8, addend: 0x0, symName: __ZNKSt3__112basic_stringIcNS_11char_traitsIcEENS_9allocatorIcEEE15__get_long_sizeB8ue170006Ev, symObjAddr: 0x7F6C, symBinAddr: 0x1000094A4, symSize: 0x28 }
  - { offsetInCU: 0x1BB53, offset: 0x32FB4, size: 0x8, addend: 0x0, symName: __ZNKSt3__112basic_stringIcNS_11char_traitsIcEENS_9allocatorIcEEE16__get_short_sizeB8ue170006Ev, symObjAddr: 0x7F94, symBinAddr: 0x1000094CC, symSize: 0x34 }
  - { offsetInCU: 0x1BB79, offset: 0x32FDA, size: 0x8, addend: 0x0, symName: __ZNKSt3__110unique_ptrIA_PNS_16__hash_node_baseIPNS_11__hash_nodeINS_17__hash_value_typeINS_12basic_stringIcNS_11char_traitsIcEENS_9allocatorIcEEEEiEEPvEEEENS_25__bucket_list_deallocatorINS7_ISF_EEEEE11get_deleterB8ue170006Ev, symObjAddr: 0x7FC8, symBinAddr: 0x100009500, symSize: 0x24 }
  - { offsetInCU: 0x1BB9F, offset: 0x33000, size: 0x8, addend: 0x0, symName: __ZNKSt3__125__bucket_list_deallocatorINS_9allocatorIPNS_16__hash_node_baseIPNS_11__hash_nodeINS_17__hash_value_typeINS_12basic_stringIcNS_11char_traitsIcEENS1_IcEEEEiEEPvEEEEEEE4sizeB8ue170006Ev, symObjAddr: 0x7FEC, symBinAddr: 0x100009524, symSize: 0x28 }
  - { offsetInCU: 0x1BBC5, offset: 0x33026, size: 0x8, addend: 0x0, symName: __ZNKSt3__117__compressed_pairIPPNS_16__hash_node_baseIPNS_11__hash_nodeINS_17__hash_value_typeINS_12basic_stringIcNS_11char_traitsIcEENS_9allocatorIcEEEEiEEPvEEEENS_25__bucket_list_deallocatorINS7_ISF_EEEEE6secondB8ue170006Ev, symObjAddr: 0x8014, symBinAddr: 0x10000954C, symSize: 0x28 }
  - { offsetInCU: 0x1BBEB, offset: 0x3304C, size: 0x8, addend: 0x0, symName: __ZNKSt3__122__compressed_pair_elemINS_25__bucket_list_deallocatorINS_9allocatorIPNS_16__hash_node_baseIPNS_11__hash_nodeINS_17__hash_value_typeINS_12basic_stringIcNS_11char_traitsIcEENS2_IcEEEEiEEPvEEEEEEEELi1ELb0EE5__getB8ue170006Ev, symObjAddr: 0x803C, symBinAddr: 0x100009574, symSize: 0x14 }
  - { offsetInCU: 0x1BC11, offset: 0x33072, size: 0x8, addend: 0x0, symName: __ZNKSt3__117__compressed_pairImNS_9allocatorIPNS_16__hash_node_baseIPNS_11__hash_nodeINS_17__hash_value_typeINS_12basic_stringIcNS_11char_traitsIcEENS1_IcEEEEiEEPvEEEEEEE5firstB8ue170006Ev, symObjAddr: 0x8050, symBinAddr: 0x100009588, symSize: 0x24 }
  - { offsetInCU: 0x1BC37, offset: 0x33098, size: 0x8, addend: 0x0, symName: __ZNKSt3__122__compressed_pair_elemImLi0ELb0EE5__getB8ue170006Ev, symObjAddr: 0x8074, symBinAddr: 0x1000095AC, symSize: 0x14 }
  - { offsetInCU: 0x1BC5D, offset: 0x330BE, size: 0x8, addend: 0x0, symName: __ZNKSt3__117__compressed_pairIPPNS_16__hash_node_baseIPNS_11__hash_nodeINS_17__hash_value_typeINS_12basic_stringIcNS_11char_traitsIcEENS_9allocatorIcEEEEiEEPvEEEENS_25__bucket_list_deallocatorINS7_ISF_EEEEE5firstB8ue170006Ev, symObjAddr: 0x8088, symBinAddr: 0x1000095C0, symSize: 0x24 }
  - { offsetInCU: 0x1BC83, offset: 0x330E4, size: 0x8, addend: 0x0, symName: __ZNKSt3__122__compressed_pair_elemIPPNS_16__hash_node_baseIPNS_11__hash_nodeINS_17__hash_value_typeINS_12basic_stringIcNS_11char_traitsIcEENS_9allocatorIcEEEEiEEPvEEEELi0ELb0EE5__getB8ue170006Ev, symObjAddr: 0x80AC, symBinAddr: 0x1000095E4, symSize: 0x14 }
  - { offsetInCU: 0x1BCA9, offset: 0x3310A, size: 0x8, addend: 0x0, symName: __ZNSt3__117__compressed_pairIfNS_21__unordered_map_equalINS_12basic_stringIcNS_11char_traitsIcEENS_9allocatorIcEEEENS_17__hash_value_typeIS7_iEENS_8equal_toIS7_EENS_4hashIS7_EELb1EEEE6secondB8ue170006Ev, symObjAddr: 0x80C0, symBinAddr: 0x1000095F8, symSize: 0x24 }
  - { offsetInCU: 0x1BCCF, offset: 0x33130, size: 0x8, addend: 0x0, symName: __ZNSt3__122__compressed_pair_elemINS_21__unordered_map_equalINS_12basic_stringIcNS_11char_traitsIcEENS_9allocatorIcEEEENS_17__hash_value_typeIS7_iEENS_8equal_toIS7_EENS_4hashIS7_EELb1EEELi1ELb1EE5__getB8ue170006Ev, symObjAddr: 0x80E4, symBinAddr: 0x10000961C, symSize: 0x14 }
  - { offsetInCU: 0x1BCF5, offset: 0x33156, size: 0x8, addend: 0x0, symName: __ZNKSt3__18equal_toINS_12basic_stringIcNS_11char_traitsIcEENS_9allocatorIcEEEEEclB8ue170006ERKS6_S9_, symObjAddr: 0x80F8, symBinAddr: 0x100009630, symSize: 0x34 }
  - { offsetInCU: 0x1BD39, offset: 0x3319A, size: 0x8, addend: 0x0, symName: __ZNKSt3__117__hash_value_typeINS_12basic_stringIcNS_11char_traitsIcEENS_9allocatorIcEEEEiE11__get_valueB8ue170006Ev, symObjAddr: 0x812C, symBinAddr: 0x100009664, symSize: 0x24 }
  - { offsetInCU: 0x1BD5F, offset: 0x331C0, size: 0x8, addend: 0x0, symName: __ZNSt3__111char_traitsIcE7compareB8ue170006EPKcS3_m, symObjAddr: 0x8298, symBinAddr: 0x1000097D0, symSize: 0x34 }
  - { offsetInCU: 0x1BD9E, offset: 0x331FF, size: 0x8, addend: 0x0, symName: __ZNSt3__116allocator_traitsINS_9allocatorINS_11__hash_nodeINS_17__hash_value_typeINS_12basic_stringIcNS_11char_traitsIcEENS1_IcEEEEiEEPvEEEEE8allocateB8ue170006ERSC_m, symObjAddr: 0x8304, symBinAddr: 0x10000983C, symSize: 0x2C }
  - { offsetInCU: 0x1BDD1, offset: 0x33232, size: 0x8, addend: 0x0, symName: __ZNSt3__122__hash_node_destructorINS_9allocatorINS_11__hash_nodeINS_17__hash_value_typeINS_12basic_stringIcNS_11char_traitsIcEENS1_IcEEEEiEEPvEEEEEC1B8ue170006ERSC_b, symObjAddr: 0x8330, symBinAddr: 0x100009868, symSize: 0x48 }
  - { offsetInCU: 0x1BE1E, offset: 0x3327F, size: 0x8, addend: 0x0, symName: __ZNSt3__110unique_ptrINS_11__hash_nodeINS_17__hash_value_typeINS_12basic_stringIcNS_11char_traitsIcEENS_9allocatorIcEEEEiEEPvEENS_22__hash_node_destructorINS6_ISB_EEEEEC1B8ue170006ILb1EvEEPSB_NS_16__dependent_typeINS_27__unique_ptr_deleter_sfinaeISE_EEXT_EE20__good_rval_ref_typeE, symObjAddr: 0x8378, symBinAddr: 0x1000098B0, symSize: 0x3C }
  - { offsetInCU: 0x1BE6F, offset: 0x332D0, size: 0x8, addend: 0x0, symName: __ZNSt3__116allocator_traitsINS_9allocatorINS_11__hash_nodeINS_17__hash_value_typeINS_12basic_stringIcNS_11char_traitsIcEENS1_IcEEEEiEEPvEEEEE9constructB8ue170006INS_4pairIKS8_iEEJRKNS_21piecewise_construct_tENS_5tupleIJRSG_EEENSL_IJEEEEvEEvRSC_PT_DpOT0_, symObjAddr: 0x83B4, symBinAddr: 0x1000098EC, symSize: 0x44 }
  - { offsetInCU: 0x1BEEE, offset: 0x3334F, size: 0x8, addend: 0x0, symName: __ZNSt3__110unique_ptrINS_11__hash_nodeINS_17__hash_value_typeINS_12basic_stringIcNS_11char_traitsIcEENS_9allocatorIcEEEEiEEPvEENS_22__hash_node_destructorINS6_ISB_EEEEE11get_deleterB8ue170006Ev, symObjAddr: 0x83F8, symBinAddr: 0x100009930, symSize: 0x24 }
  - { offsetInCU: 0x1BF14, offset: 0x33375, size: 0x8, addend: 0x0, symName: __ZNSt3__19allocatorINS_11__hash_nodeINS_17__hash_value_typeINS_12basic_stringIcNS_11char_traitsIcEENS0_IcEEEEiEEPvEEE8allocateB8ue170006Em, symObjAddr: 0x841C, symBinAddr: 0x100009954, symSize: 0x5C }
  - { offsetInCU: 0x1BF52, offset: 0x333B3, size: 0x8, addend: 0x0, symName: __ZNSt3__116allocator_traitsINS_9allocatorINS_11__hash_nodeINS_17__hash_value_typeINS_12basic_stringIcNS_11char_traitsIcEENS1_IcEEEEiEEPvEEEEE8max_sizeB8ue170006ISC_vEEmRKSC_, symObjAddr: 0x8478, symBinAddr: 0x1000099B0, symSize: 0x24 }
  - { offsetInCU: 0x1BF80, offset: 0x333E1, size: 0x8, addend: 0x0, symName: __ZNKSt3__19allocatorINS_11__hash_nodeINS_17__hash_value_typeINS_12basic_stringIcNS_11char_traitsIcEENS0_IcEEEEiEEPvEEE8max_sizeB8ue170006Ev, symObjAddr: 0x849C, symBinAddr: 0x1000099D4, symSize: 0x18 }
  - { offsetInCU: 0x1BFA6, offset: 0x33407, size: 0x8, addend: 0x0, symName: __ZNSt3__122__hash_node_destructorINS_9allocatorINS_11__hash_nodeINS_17__hash_value_typeINS_12basic_stringIcNS_11char_traitsIcEENS1_IcEEEEiEEPvEEEEEC2B8ue170006ERSC_b, symObjAddr: 0x84B4, symBinAddr: 0x1000099EC, symSize: 0x38 }
  - { offsetInCU: 0x1BFEE, offset: 0x3344F, size: 0x8, addend: 0x0, symName: __ZNSt3__110unique_ptrINS_11__hash_nodeINS_17__hash_value_typeINS_12basic_stringIcNS_11char_traitsIcEENS_9allocatorIcEEEEiEEPvEENS_22__hash_node_destructorINS6_ISB_EEEEEC2B8ue170006ILb1EvEEPSB_NS_16__dependent_typeINS_27__unique_ptr_deleter_sfinaeISE_EEXT_EE20__good_rval_ref_typeE, symObjAddr: 0x84EC, symBinAddr: 0x100009A24, symSize: 0x48 }
  - { offsetInCU: 0x1C03F, offset: 0x334A0, size: 0x8, addend: 0x0, symName: __ZNSt3__117__compressed_pairIPNS_11__hash_nodeINS_17__hash_value_typeINS_12basic_stringIcNS_11char_traitsIcEENS_9allocatorIcEEEEiEEPvEENS_22__hash_node_destructorINS6_ISB_EEEEEC1B8ue170006IRSC_SF_EEOT_OT0_, symObjAddr: 0x8534, symBinAddr: 0x100009A6C, symSize: 0x3C }
  - { offsetInCU: 0x1C097, offset: 0x334F8, size: 0x8, addend: 0x0, symName: __ZNSt3__117__compressed_pairIPNS_11__hash_nodeINS_17__hash_value_typeINS_12basic_stringIcNS_11char_traitsIcEENS_9allocatorIcEEEEiEEPvEENS_22__hash_node_destructorINS6_ISB_EEEEEC2B8ue170006IRSC_SF_EEOT_OT0_, symObjAddr: 0x8570, symBinAddr: 0x100009AA8, symSize: 0x48 }
  - { offsetInCU: 0x1C0EF, offset: 0x33550, size: 0x8, addend: 0x0, symName: __ZNSt3__122__compressed_pair_elemIPNS_11__hash_nodeINS_17__hash_value_typeINS_12basic_stringIcNS_11char_traitsIcEENS_9allocatorIcEEEEiEEPvEELi0ELb0EEC2B8ue170006IRSC_vEEOT_, symObjAddr: 0x85B8, symBinAddr: 0x100009AF0, symSize: 0x24 }
  - { offsetInCU: 0x1C131, offset: 0x33592, size: 0x8, addend: 0x0, symName: __ZNSt3__122__compressed_pair_elemINS_22__hash_node_destructorINS_9allocatorINS_11__hash_nodeINS_17__hash_value_typeINS_12basic_stringIcNS_11char_traitsIcEENS2_IcEEEEiEEPvEEEEEELi1ELb0EEC2B8ue170006ISE_vEEOT_, symObjAddr: 0x85DC, symBinAddr: 0x100009B14, symSize: 0x24 }
  - { offsetInCU: 0x1C173, offset: 0x335D4, size: 0x8, addend: 0x0, symName: __ZNSt3__19allocatorINS_11__hash_nodeINS_17__hash_value_typeINS_12basic_stringIcNS_11char_traitsIcEENS0_IcEEEEiEEPvEEE9constructB8ue170006INS_4pairIKS7_iEEJRKNS_21piecewise_construct_tENS_5tupleIJRSE_EEENSJ_IJEEEEEEvPT_DpOT0_, symObjAddr: 0x8600, symBinAddr: 0x100009B38, symSize: 0x44 }
  - { offsetInCU: 0x1C1EF, offset: 0x33650, size: 0x8, addend: 0x0, symName: __ZNSt3__14pairIKNS_12basic_stringIcNS_11char_traitsIcEENS_9allocatorIcEEEEiEC1B8ue170006IJRS7_EJEEENS_21piecewise_construct_tENS_5tupleIJDpT_EEENSC_IJDpT0_EEE, symObjAddr: 0x8644, symBinAddr: 0x100009B7C, symSize: 0x3C }
  - { offsetInCU: 0x1C256, offset: 0x336B7, size: 0x8, addend: 0x0, symName: __ZNSt3__14pairIKNS_12basic_stringIcNS_11char_traitsIcEENS_9allocatorIcEEEEiEC1B8ue170006IJRS7_EJEJLm0EEJEEENS_21piecewise_construct_tERNS_5tupleIJDpT_EEERNSC_IJDpT0_EEENS_15__tuple_indicesIJXspT1_EEEENSL_IJXspT2_EEEE, symObjAddr: 0x8680, symBinAddr: 0x100009BB8, symSize: 0x3C }
  - { offsetInCU: 0x1C2E6, offset: 0x33747, size: 0x8, addend: 0x0, symName: __ZNSt3__14pairIKNS_12basic_stringIcNS_11char_traitsIcEENS_9allocatorIcEEEEiEC2B8ue170006IJRS7_EJEJLm0EEJEEENS_21piecewise_construct_tERNS_5tupleIJDpT_EEERNSC_IJDpT0_EEENS_15__tuple_indicesIJXspT1_EEEENSL_IJXspT2_EEEE, symObjAddr: 0x86BC, symBinAddr: 0x100009BF4, symSize: 0x48 }
  - { offsetInCU: 0x1C376, offset: 0x337D7, size: 0x8, addend: 0x0, symName: __ZNSt3__112__tuple_leafILm0ERKNS_12basic_stringIcNS_11char_traitsIcEENS_9allocatorIcEEEELb0EE3getB8ue170006Ev, symObjAddr: 0x8728, symBinAddr: 0x100009C60, symSize: 0x18 }
  - { offsetInCU: 0x1C39C, offset: 0x337FD, size: 0x8, addend: 0x0, symName: __ZNSt3__117__compressed_pairIPNS_11__hash_nodeINS_17__hash_value_typeINS_12basic_stringIcNS_11char_traitsIcEENS_9allocatorIcEEEEiEEPvEENS_22__hash_node_destructorINS6_ISB_EEEEE6secondB8ue170006Ev, symObjAddr: 0x8740, symBinAddr: 0x100009C78, symSize: 0x28 }
  - { offsetInCU: 0x1C3C2, offset: 0x33823, size: 0x8, addend: 0x0, symName: __ZNSt3__122__compressed_pair_elemINS_22__hash_node_destructorINS_9allocatorINS_11__hash_nodeINS_17__hash_value_typeINS_12basic_stringIcNS_11char_traitsIcEENS2_IcEEEEiEEPvEEEEEELi1ELb0EE5__getB8ue170006Ev, symObjAddr: 0x8768, symBinAddr: 0x100009CA0, symSize: 0x14 }
  - { offsetInCU: 0x1C3E8, offset: 0x33849, size: 0x8, addend: 0x0, symName: __ZNSt3__117__compressed_pairImNS_22__unordered_map_hasherINS_12basic_stringIcNS_11char_traitsIcEENS_9allocatorIcEEEENS_17__hash_value_typeIS7_iEENS_4hashIS7_EENS_8equal_toIS7_EELb1EEEE5firstB8ue170006Ev, symObjAddr: 0x877C, symBinAddr: 0x100009CB4, symSize: 0x24 }
  - { offsetInCU: 0x1C40E, offset: 0x3386F, size: 0x8, addend: 0x0, symName: __ZNSt3__117__compressed_pairIfNS_21__unordered_map_equalINS_12basic_stringIcNS_11char_traitsIcEENS_9allocatorIcEEEENS_17__hash_value_typeIS7_iEENS_8equal_toIS7_EENS_4hashIS7_EELb1EEEE5firstB8ue170006Ev, symObjAddr: 0x87A0, symBinAddr: 0x100009CD8, symSize: 0x24 }
  - { offsetInCU: 0x1C434, offset: 0x33895, size: 0x8, addend: 0x0, symName: __ZNSt3__122__compressed_pair_elemIfLi0ELb0EE5__getB8ue170006Ev, symObjAddr: 0x87C4, symBinAddr: 0x100009CFC, symSize: 0x14 }
  - { offsetInCU: 0x1C45A, offset: 0x338BB, size: 0x8, addend: 0x0, symName: __ZNSt3__112__hash_tableINS_17__hash_value_typeINS_12basic_stringIcNS_11char_traitsIcEENS_9allocatorIcEEEEiEENS_22__unordered_map_hasherIS7_S8_NS_4hashIS7_EENS_8equal_toIS7_EELb1EEENS_21__unordered_map_equalIS7_S8_SD_SB_Lb1EEENS5_IS8_EEE8__rehashILb1EEEvm, symObjAddr: 0x87D8, symBinAddr: 0x100009D10, symSize: 0x1A8 }
  - { offsetInCU: 0x1C4AA, offset: 0x3390B, size: 0x8, addend: 0x0, symName: __ZNSt3__112__hash_tableINS_17__hash_value_typeINS_12basic_stringIcNS_11char_traitsIcEENS_9allocatorIcEEEEiEENS_22__unordered_map_hasherIS7_S8_NS_4hashIS7_EENS_8equal_toIS7_EELb1EEENS_21__unordered_map_equalIS7_S8_SD_SB_Lb1EEENS5_IS8_EEE11__do_rehashILb1EEEvm, symObjAddr: 0x8980, symBinAddr: 0x100009EB8, symSize: 0x288 }
  - { offsetInCU: 0x1C58D, offset: 0x339EE, size: 0x8, addend: 0x0, symName: __ZNSt3__110unique_ptrIA_PNS_16__hash_node_baseIPNS_11__hash_nodeINS_17__hash_value_typeINS_12basic_stringIcNS_11char_traitsIcEENS_9allocatorIcEEEEiEEPvEEEENS_25__bucket_list_deallocatorINS7_ISF_EEEEE11get_deleterB8ue170006Ev, symObjAddr: 0x8C74, symBinAddr: 0x10000A1AC, symSize: 0x24 }
  - { offsetInCU: 0x1C5B3, offset: 0x33A14, size: 0x8, addend: 0x0, symName: __ZNSt3__110unique_ptrIA_PNS_16__hash_node_baseIPNS_11__hash_nodeINS_17__hash_value_typeINS_12basic_stringIcNS_11char_traitsIcEENS_9allocatorIcEEEEiEEPvEEEENS_25__bucket_list_deallocatorINS7_ISF_EEEEE5resetB8ue170006IPSF_EENS_9enable_ifIXsr28_CheckArrayPointerConversionIT_EE5valueEvE4typeESO_, symObjAddr: 0x8C98, symBinAddr: 0x10000A1D0, symSize: 0x78 }
  - { offsetInCU: 0x1C600, offset: 0x33A61, size: 0x8, addend: 0x0, symName: __ZNSt3__116allocator_traitsINS_9allocatorIPNS_16__hash_node_baseIPNS_11__hash_nodeINS_17__hash_value_typeINS_12basic_stringIcNS_11char_traitsIcEENS1_IcEEEEiEEPvEEEEEEE8allocateB8ue170006ERSG_m, symObjAddr: 0x8D10, symBinAddr: 0x10000A248, symSize: 0x2C }
  - { offsetInCU: 0x1C633, offset: 0x33A94, size: 0x8, addend: 0x0, symName: __ZNSt3__19allocatorIPNS_16__hash_node_baseIPNS_11__hash_nodeINS_17__hash_value_typeINS_12basic_stringIcNS_11char_traitsIcEENS0_IcEEEEiEEPvEEEEE8allocateB8ue170006Em, symObjAddr: 0x8D3C, symBinAddr: 0x10000A274, symSize: 0x58 }
  - { offsetInCU: 0x1C671, offset: 0x33AD2, size: 0x8, addend: 0x0, symName: __ZNSt3__116allocator_traitsINS_9allocatorIPNS_16__hash_node_baseIPNS_11__hash_nodeINS_17__hash_value_typeINS_12basic_stringIcNS_11char_traitsIcEENS1_IcEEEEiEEPvEEEEEEE8max_sizeB8ue170006ISG_vEEmRKSG_, symObjAddr: 0x8D94, symBinAddr: 0x10000A2CC, symSize: 0x24 }
  - { offsetInCU: 0x1C69F, offset: 0x33B00, size: 0x8, addend: 0x0, symName: __ZNKSt3__19allocatorIPNS_16__hash_node_baseIPNS_11__hash_nodeINS_17__hash_value_typeINS_12basic_stringIcNS_11char_traitsIcEENS0_IcEEEEiEEPvEEEEE8max_sizeB8ue170006Ev, symObjAddr: 0x8DB8, symBinAddr: 0x10000A2F0, symSize: 0x14 }
  - { offsetInCU: 0x1C6C5, offset: 0x33B26, size: 0x8, addend: 0x0, symName: __ZNKSt3__117__compressed_pairIPNS_11__hash_nodeINS_17__hash_value_typeINS_12basic_stringIcNS_11char_traitsIcEENS_9allocatorIcEEEEiEEPvEENS_22__hash_node_destructorINS6_ISB_EEEEE5firstB8ue170006Ev, symObjAddr: 0x8DE8, symBinAddr: 0x10000A320, symSize: 0x24 }
  - { offsetInCU: 0x1C6EB, offset: 0x33B4C, size: 0x8, addend: 0x0, symName: __ZNKSt3__122__compressed_pair_elemIPNS_11__hash_nodeINS_17__hash_value_typeINS_12basic_stringIcNS_11char_traitsIcEENS_9allocatorIcEEEEiEEPvEELi0ELb0EE5__getB8ue170006Ev, symObjAddr: 0x8E0C, symBinAddr: 0x10000A344, symSize: 0x14 }
  - { offsetInCU: 0x1C711, offset: 0x33B72, size: 0x8, addend: 0x0, symName: __ZNSt3__117__compressed_pairIPNS_11__hash_nodeINS_17__hash_value_typeINS_12basic_stringIcNS_11char_traitsIcEENS_9allocatorIcEEEEiEEPvEENS_22__hash_node_destructorINS6_ISB_EEEEE5firstB8ue170006Ev, symObjAddr: 0x8E20, symBinAddr: 0x10000A358, symSize: 0x24 }
  - { offsetInCU: 0x1C737, offset: 0x33B98, size: 0x8, addend: 0x0, symName: __ZNSt3__122__compressed_pair_elemIPNS_11__hash_nodeINS_17__hash_value_typeINS_12basic_stringIcNS_11char_traitsIcEENS_9allocatorIcEEEEiEEPvEELi0ELb0EE5__getB8ue170006Ev, symObjAddr: 0x8E44, symBinAddr: 0x10000A37C, symSize: 0x14 }
  - { offsetInCU: 0x1C75D, offset: 0x33BBE, size: 0x8, addend: 0x0, symName: __ZNSt3__110unique_ptrINS_11__hash_nodeINS_17__hash_value_typeINS_12basic_stringIcNS_11char_traitsIcEENS_9allocatorIcEEEEiEEPvEENS_22__hash_node_destructorINS6_ISB_EEEEED2B8ue170006Ev, symObjAddr: 0x8E58, symBinAddr: 0x10000A390, symSize: 0x30 }
  - { offsetInCU: 0x1C787, offset: 0x33BE8, size: 0x8, addend: 0x0, symName: __ZNSt3__110unique_ptrINS_11__hash_nodeINS_17__hash_value_typeINS_12basic_stringIcNS_11char_traitsIcEENS_9allocatorIcEEEEiEEPvEENS_22__hash_node_destructorINS6_ISB_EEEEE5resetB8ue170006EPSB_, symObjAddr: 0x8E88, symBinAddr: 0x10000A3C0, symSize: 0x78 }
  - { offsetInCU: 0x1C7CB, offset: 0x33C2C, size: 0x8, addend: 0x0, symName: __ZNSt3__122__hash_node_destructorINS_9allocatorINS_11__hash_nodeINS_17__hash_value_typeINS_12basic_stringIcNS_11char_traitsIcEENS1_IcEEEEiEEPvEEEEEclB8ue170006EPSB_, symObjAddr: 0x8F00, symBinAddr: 0x10000A438, symSize: 0x94 }
  - { offsetInCU: 0x1C800, offset: 0x33C61, size: 0x8, addend: 0x0, symName: __ZNSt3__115__hash_iteratorIPNS_11__hash_nodeINS_17__hash_value_typeINS_12basic_stringIcNS_11char_traitsIcEENS_9allocatorIcEEEEiEEPvEEEC2B8ue170006EPNS_16__hash_node_baseISC_EE, symObjAddr: 0x8F94, symBinAddr: 0x10000A4CC, symSize: 0x20 }
  - { offsetInCU: 0x1C839, offset: 0x33C9A, size: 0x8, addend: 0x0, symName: __ZNSt3__14pairINS_15__hash_iteratorIPNS_11__hash_nodeINS_17__hash_value_typeINS_12basic_stringIcNS_11char_traitsIcEENS_9allocatorIcEEEEiEEPvEEEEbEC2B8ue170006ISE_RbLSB_0EEEOT_OT0_, symObjAddr: 0x8FB4, symBinAddr: 0x10000A4EC, symSize: 0x38 }
  - { offsetInCU: 0x1C897, offset: 0x33CF8, size: 0x8, addend: 0x0, symName: __ZNSt3__15tupleIJRKNS_12basic_stringIcNS_11char_traitsIcEENS_9allocatorIcEEEEEEC1B8ue170006INS_4_AndELi0EEES8_, symObjAddr: 0x8FEC, symBinAddr: 0x10000A524, symSize: 0x34 }
  - { offsetInCU: 0x1C8E0, offset: 0x33D41, size: 0x8, addend: 0x0, symName: __ZNSt3__15tupleIJRKNS_12basic_stringIcNS_11char_traitsIcEENS_9allocatorIcEEEEEEC2B8ue170006INS_4_AndELi0EEES8_, symObjAddr: 0x9020, symBinAddr: 0x10000A558, symSize: 0x34 }
  - { offsetInCU: 0x1C929, offset: 0x33D8A, size: 0x8, addend: 0x0, symName: __ZNSt3__112__tuple_implINS_15__tuple_indicesIJLm0EEEEJRKNS_12basic_stringIcNS_11char_traitsIcEENS_9allocatorIcEEEEEEC1B8ue170006IJLm0EEJSA_EJEJEJSA_EEENS1_IJXspT_EEEENS_13__tuple_typesIJDpT0_EEENS1_IJXspT1_EEEENSE_IJDpT2_EEEDpOT3_, symObjAddr: 0x9054, symBinAddr: 0x10000A58C, symSize: 0x34 }
  - { offsetInCU: 0x1C9BE, offset: 0x33E1F, size: 0x8, addend: 0x0, symName: __ZNSt3__112__tuple_implINS_15__tuple_indicesIJLm0EEEEJRKNS_12basic_stringIcNS_11char_traitsIcEENS_9allocatorIcEEEEEEC2B8ue170006IJLm0EEJSA_EJEJEJSA_EEENS1_IJXspT_EEEENS_13__tuple_typesIJDpT0_EEENS1_IJXspT1_EEEENSE_IJDpT2_EEEDpOT3_, symObjAddr: 0x9088, symBinAddr: 0x10000A5C0, symSize: 0x34 }
  - { offsetInCU: 0x1CA53, offset: 0x33EB4, size: 0x8, addend: 0x0, symName: __ZNSt3__112__tuple_leafILm0ERKNS_12basic_stringIcNS_11char_traitsIcEENS_9allocatorIcEEEELb0EEC2B8ue170006IS8_vEEOT_, symObjAddr: 0x90BC, symBinAddr: 0x10000A5F4, symSize: 0x20 }
  - { offsetInCU: 0x1CA96, offset: 0x33EF7, size: 0x8, addend: 0x0, symName: __ZNSt3__114pointer_traitsIPNS_17__hash_value_typeINS_12basic_stringIcNS_11char_traitsIcEENS_9allocatorIcEEEEiEEE10pointer_toB8ue170006ERS8_, symObjAddr: 0x90DC, symBinAddr: 0x10000A614, symSize: 0x14 }
  - { offsetInCU: 0x1CAB9, offset: 0x33F1A, size: 0x8, addend: 0x0, symName: __ZNSt3__113unordered_mapINS_12basic_stringIcNS_11char_traitsIcEENS_9allocatorIcEEEEiNS_4hashIS6_EENS_8equal_toIS6_EENS4_INS_4pairIKS6_iEEEEEC2ERKSF_, symObjAddr: 0x90F0, symBinAddr: 0x10000A628, symSize: 0xA0 }
  - { offsetInCU: 0x1CAF4, offset: 0x33F55, size: 0x8, addend: 0x0, symName: __ZNSt3__112__hash_tableINS_17__hash_value_typeINS_12basic_stringIcNS_11char_traitsIcEENS_9allocatorIcEEEEiEENS_22__unordered_map_hasherIS7_S8_NS_4hashIS7_EENS_8equal_toIS7_EELb1EEENS_21__unordered_map_equalIS7_S8_SD_SB_Lb1EEENS5_IS8_EEEC1ERKSI_, symObjAddr: 0x9190, symBinAddr: 0x10000A6C8, symSize: 0x34 }
  - { offsetInCU: 0x1CB2F, offset: 0x33F90, size: 0x8, addend: 0x0, symName: __ZNKSt3__113unordered_mapINS_12basic_stringIcNS_11char_traitsIcEENS_9allocatorIcEEEEiNS_4hashIS6_EENS_8equal_toIS6_EENS4_INS_4pairIKS6_iEEEEE12bucket_countB8ue170006Ev, symObjAddr: 0x91C4, symBinAddr: 0x10000A6FC, symSize: 0x24 }
  - { offsetInCU: 0x1CB55, offset: 0x33FB6, size: 0x8, addend: 0x0, symName: __ZNSt3__113unordered_mapINS_12basic_stringIcNS_11char_traitsIcEENS_9allocatorIcEEEEiNS_4hashIS6_EENS_8equal_toIS6_EENS4_INS_4pairIKS6_iEEEEE6insertINS_25__hash_map_const_iteratorINS_21__hash_const_iteratorIPNS_11__hash_nodeINS_17__hash_value_typeIS6_iEEPvEEEEEEEEvT_SR_, symObjAddr: 0x91E8, symBinAddr: 0x10000A720, symSize: 0x70 }
  - { offsetInCU: 0x1CBA4, offset: 0x34005, size: 0x8, addend: 0x0, symName: __ZNKSt3__113unordered_mapINS_12basic_stringIcNS_11char_traitsIcEENS_9allocatorIcEEEEiNS_4hashIS6_EENS_8equal_toIS6_EENS4_INS_4pairIKS6_iEEEEE5beginB8ue170006Ev, symObjAddr: 0x9258, symBinAddr: 0x10000A790, symSize: 0x38 }
  - { offsetInCU: 0x1CBCA, offset: 0x3402B, size: 0x8, addend: 0x0, symName: __ZNKSt3__113unordered_mapINS_12basic_stringIcNS_11char_traitsIcEENS_9allocatorIcEEEEiNS_4hashIS6_EENS_8equal_toIS6_EENS4_INS_4pairIKS6_iEEEEE3endB8ue170006Ev, symObjAddr: 0x9290, symBinAddr: 0x10000A7C8, symSize: 0x38 }
  - { offsetInCU: 0x1CBF0, offset: 0x34051, size: 0x8, addend: 0x0, symName: __ZNSt3__112__hash_tableINS_17__hash_value_typeINS_12basic_stringIcNS_11char_traitsIcEENS_9allocatorIcEEEEiEENS_22__unordered_map_hasherIS7_S8_NS_4hashIS7_EENS_8equal_toIS7_EELb1EEENS_21__unordered_map_equalIS7_S8_SD_SB_Lb1EEENS5_IS8_EEEC2ERKSI_, symObjAddr: 0x92C8, symBinAddr: 0x10000A800, symSize: 0xEC }
  - { offsetInCU: 0x1CC2B, offset: 0x3408C, size: 0x8, addend: 0x0, symName: __ZNSt3__116allocator_traitsINS_9allocatorIPNS_16__hash_node_baseIPNS_11__hash_nodeINS_17__hash_value_typeINS_12basic_stringIcNS_11char_traitsIcEENS1_IcEEEEiEEPvEEEEEEE37select_on_container_copy_constructionB8ue170006ISG_vvEESG_RKSG_, symObjAddr: 0x93B4, symBinAddr: 0x10000A8EC, symSize: 0x10 }
  - { offsetInCU: 0x1CC5A, offset: 0x340BB, size: 0x8, addend: 0x0, symName: __ZNKSt3__125__bucket_list_deallocatorINS_9allocatorIPNS_16__hash_node_baseIPNS_11__hash_nodeINS_17__hash_value_typeINS_12basic_stringIcNS_11char_traitsIcEENS1_IcEEEEiEEPvEEEEEEE7__allocB8ue170006Ev, symObjAddr: 0x93C4, symBinAddr: 0x10000A8FC, symSize: 0x24 }
  - { offsetInCU: 0x1CC80, offset: 0x340E1, size: 0x8, addend: 0x0, symName: __ZNSt3__125__bucket_list_deallocatorINS_9allocatorIPNS_16__hash_node_baseIPNS_11__hash_nodeINS_17__hash_value_typeINS_12basic_stringIcNS_11char_traitsIcEENS1_IcEEEEiEEPvEEEEEEEC1B8ue170006ERKSG_m, symObjAddr: 0x93E8, symBinAddr: 0x10000A920, symSize: 0x3C }
  - { offsetInCU: 0x1CCC8, offset: 0x34129, size: 0x8, addend: 0x0, symName: __ZNSt3__110unique_ptrIA_PNS_16__hash_node_baseIPNS_11__hash_nodeINS_17__hash_value_typeINS_12basic_stringIcNS_11char_traitsIcEENS_9allocatorIcEEEEiEEPvEEEENS_25__bucket_list_deallocatorINS7_ISF_EEEEEC1B8ue170006ILb1EvEEDnNS_16__dependent_typeINS_27__unique_ptr_deleter_sfinaeISJ_EEXT_EE20__good_rval_ref_typeE, symObjAddr: 0x9424, symBinAddr: 0x10000A95C, symSize: 0x3C }
  - { offsetInCU: 0x1CD18, offset: 0x34179, size: 0x8, addend: 0x0, symName: __ZNSt3__116allocator_traitsINS_9allocatorINS_11__hash_nodeINS_17__hash_value_typeINS_12basic_stringIcNS_11char_traitsIcEENS1_IcEEEEiEEPvEEEEE37select_on_container_copy_constructionB8ue170006ISC_vvEESC_RKSC_, symObjAddr: 0x9460, symBinAddr: 0x10000A998, symSize: 0x10 }
  - { offsetInCU: 0x1CD47, offset: 0x341A8, size: 0x8, addend: 0x0, symName: __ZNKSt3__112__hash_tableINS_17__hash_value_typeINS_12basic_stringIcNS_11char_traitsIcEENS_9allocatorIcEEEEiEENS_22__unordered_map_hasherIS7_S8_NS_4hashIS7_EENS_8equal_toIS7_EELb1EEENS_21__unordered_map_equalIS7_S8_SD_SB_Lb1EEENS5_IS8_EEE12__node_allocB8ue170006Ev, symObjAddr: 0x9470, symBinAddr: 0x10000A9A8, symSize: 0x28 }
  - { offsetInCU: 0x1CD72, offset: 0x341D3, size: 0x8, addend: 0x0, symName: __ZNSt3__117__compressed_pairINS_16__hash_node_baseIPNS_11__hash_nodeINS_17__hash_value_typeINS_12basic_stringIcNS_11char_traitsIcEENS_9allocatorIcEEEEiEEPvEEEENS7_ISC_EEEC1B8ue170006INS_18__default_init_tagESF_EEOT_OT0_, symObjAddr: 0x9498, symBinAddr: 0x10000A9D0, symSize: 0x3C }
  - { offsetInCU: 0x1CDCA, offset: 0x3422B, size: 0x8, addend: 0x0, symName: __ZNKSt3__112__hash_tableINS_17__hash_value_typeINS_12basic_stringIcNS_11char_traitsIcEENS_9allocatorIcEEEEiEENS_22__unordered_map_hasherIS7_S8_NS_4hashIS7_EENS_8equal_toIS7_EELb1EEENS_21__unordered_map_equalIS7_S8_SD_SB_Lb1EEENS5_IS8_EEE13hash_functionB8ue170006Ev, symObjAddr: 0x94D4, symBinAddr: 0x10000AA0C, symSize: 0x28 }
  - { offsetInCU: 0x1CDF0, offset: 0x34251, size: 0x8, addend: 0x0, symName: __ZNSt3__117__compressed_pairImNS_22__unordered_map_hasherINS_12basic_stringIcNS_11char_traitsIcEENS_9allocatorIcEEEENS_17__hash_value_typeIS7_iEENS_4hashIS7_EENS_8equal_toIS7_EELb1EEEEC1B8ue170006IiRKSE_EEOT_OT0_, symObjAddr: 0x94FC, symBinAddr: 0x10000AA34, symSize: 0x3C }
  - { offsetInCU: 0x1CE48, offset: 0x342A9, size: 0x8, addend: 0x0, symName: __ZNKSt3__117__compressed_pairImNS_9allocatorIPNS_16__hash_node_baseIPNS_11__hash_nodeINS_17__hash_value_typeINS_12basic_stringIcNS_11char_traitsIcEENS1_IcEEEEiEEPvEEEEEEE6secondB8ue170006Ev, symObjAddr: 0x9538, symBinAddr: 0x10000AA70, symSize: 0x24 }
  - { offsetInCU: 0x1CE6E, offset: 0x342CF, size: 0x8, addend: 0x0, symName: __ZNKSt3__122__compressed_pair_elemINS_9allocatorIPNS_16__hash_node_baseIPNS_11__hash_nodeINS_17__hash_value_typeINS_12basic_stringIcNS_11char_traitsIcEENS1_IcEEEEiEEPvEEEEEELi1ELb1EE5__getB8ue170006Ev, symObjAddr: 0x955C, symBinAddr: 0x10000AA94, symSize: 0x14 }
  - { offsetInCU: 0x1CE94, offset: 0x342F5, size: 0x8, addend: 0x0, symName: __ZNSt3__125__bucket_list_deallocatorINS_9allocatorIPNS_16__hash_node_baseIPNS_11__hash_nodeINS_17__hash_value_typeINS_12basic_stringIcNS_11char_traitsIcEENS1_IcEEEEiEEPvEEEEEEEC2B8ue170006ERKSG_m, symObjAddr: 0x9570, symBinAddr: 0x10000AAA8, symSize: 0x44 }
  - { offsetInCU: 0x1CEDC, offset: 0x3433D, size: 0x8, addend: 0x0, symName: __ZNSt3__117__compressed_pairImNS_9allocatorIPNS_16__hash_node_baseIPNS_11__hash_nodeINS_17__hash_value_typeINS_12basic_stringIcNS_11char_traitsIcEENS1_IcEEEEiEEPvEEEEEEEC1B8ue170006IRmRKSG_EEOT_OT0_, symObjAddr: 0x95B4, symBinAddr: 0x10000AAEC, symSize: 0x3C }
  - { offsetInCU: 0x1CF34, offset: 0x34395, size: 0x8, addend: 0x0, symName: __ZNSt3__117__compressed_pairImNS_9allocatorIPNS_16__hash_node_baseIPNS_11__hash_nodeINS_17__hash_value_typeINS_12basic_stringIcNS_11char_traitsIcEENS1_IcEEEEiEEPvEEEEEEEC2B8ue170006IRmRKSG_EEOT_OT0_, symObjAddr: 0x95F0, symBinAddr: 0x10000AB28, symSize: 0x44 }
  - { offsetInCU: 0x1CF8C, offset: 0x343ED, size: 0x8, addend: 0x0, symName: __ZNSt3__122__compressed_pair_elemImLi0ELb0EEC2B8ue170006IRmvEEOT_, symObjAddr: 0x9634, symBinAddr: 0x10000AB6C, symSize: 0x24 }
  - { offsetInCU: 0x1CFCE, offset: 0x3442F, size: 0x8, addend: 0x0, symName: __ZNSt3__122__compressed_pair_elemINS_9allocatorIPNS_16__hash_node_baseIPNS_11__hash_nodeINS_17__hash_value_typeINS_12basic_stringIcNS_11char_traitsIcEENS1_IcEEEEiEEPvEEEEEELi1ELb1EEC2B8ue170006IRKSG_vEEOT_, symObjAddr: 0x9658, symBinAddr: 0x10000AB90, symSize: 0x18 }
  - { offsetInCU: 0x1D010, offset: 0x34471, size: 0x8, addend: 0x0, symName: __ZNSt3__110unique_ptrIA_PNS_16__hash_node_baseIPNS_11__hash_nodeINS_17__hash_value_typeINS_12basic_stringIcNS_11char_traitsIcEENS_9allocatorIcEEEEiEEPvEEEENS_25__bucket_list_deallocatorINS7_ISF_EEEEEC2B8ue170006ILb1EvEEDnNS_16__dependent_typeINS_27__unique_ptr_deleter_sfinaeISJ_EEXT_EE20__good_rval_ref_typeE, symObjAddr: 0x9670, symBinAddr: 0x10000ABA8, symSize: 0x48 }
  - { offsetInCU: 0x1D060, offset: 0x344C1, size: 0x8, addend: 0x0, symName: __ZNSt3__117__compressed_pairIPPNS_16__hash_node_baseIPNS_11__hash_nodeINS_17__hash_value_typeINS_12basic_stringIcNS_11char_traitsIcEENS_9allocatorIcEEEEiEEPvEEEENS_25__bucket_list_deallocatorINS7_ISF_EEEEEC1B8ue170006IDnSJ_EEOT_OT0_, symObjAddr: 0x96B8, symBinAddr: 0x10000ABF0, symSize: 0x3C }
  - { offsetInCU: 0x1D0B8, offset: 0x34519, size: 0x8, addend: 0x0, symName: __ZNSt3__117__compressed_pairIPPNS_16__hash_node_baseIPNS_11__hash_nodeINS_17__hash_value_typeINS_12basic_stringIcNS_11char_traitsIcEENS_9allocatorIcEEEEiEEPvEEEENS_25__bucket_list_deallocatorINS7_ISF_EEEEEC2B8ue170006IDnSJ_EEOT_OT0_, symObjAddr: 0x96F4, symBinAddr: 0x10000AC2C, symSize: 0x48 }
  - { offsetInCU: 0x1D110, offset: 0x34571, size: 0x8, addend: 0x0, symName: __ZNSt3__122__compressed_pair_elemIPPNS_16__hash_node_baseIPNS_11__hash_nodeINS_17__hash_value_typeINS_12basic_stringIcNS_11char_traitsIcEENS_9allocatorIcEEEEiEEPvEEEELi0ELb0EEC2B8ue170006IDnvEEOT_, symObjAddr: 0x973C, symBinAddr: 0x10000AC74, symSize: 0x1C }
  - { offsetInCU: 0x1D152, offset: 0x345B3, size: 0x8, addend: 0x0, symName: __ZNSt3__122__compressed_pair_elemINS_25__bucket_list_deallocatorINS_9allocatorIPNS_16__hash_node_baseIPNS_11__hash_nodeINS_17__hash_value_typeINS_12basic_stringIcNS_11char_traitsIcEENS2_IcEEEEiEEPvEEEEEEEELi1ELb0EEC2B8ue170006ISI_vEEOT_, symObjAddr: 0x9758, symBinAddr: 0x10000AC90, symSize: 0x34 }
  - { offsetInCU: 0x1D194, offset: 0x345F5, size: 0x8, addend: 0x0, symName: __ZNSt3__125__bucket_list_deallocatorINS_9allocatorIPNS_16__hash_node_baseIPNS_11__hash_nodeINS_17__hash_value_typeINS_12basic_stringIcNS_11char_traitsIcEENS1_IcEEEEiEEPvEEEEEEEC1B8ue170006EOSH_, symObjAddr: 0x978C, symBinAddr: 0x10000ACC4, symSize: 0x34 }
  - { offsetInCU: 0x1D1CD, offset: 0x3462E, size: 0x8, addend: 0x0, symName: __ZNSt3__125__bucket_list_deallocatorINS_9allocatorIPNS_16__hash_node_baseIPNS_11__hash_nodeINS_17__hash_value_typeINS_12basic_stringIcNS_11char_traitsIcEENS1_IcEEEEiEEPvEEEEEEEC2B8ue170006EOSH_, symObjAddr: 0x97C0, symBinAddr: 0x10000ACF8, symSize: 0x48 }
  - { offsetInCU: 0x1D206, offset: 0x34667, size: 0x8, addend: 0x0, symName: __ZNKSt3__117__compressed_pairINS_16__hash_node_baseIPNS_11__hash_nodeINS_17__hash_value_typeINS_12basic_stringIcNS_11char_traitsIcEENS_9allocatorIcEEEEiEEPvEEEENS7_ISC_EEE6secondB8ue170006Ev, symObjAddr: 0x9808, symBinAddr: 0x10000AD40, symSize: 0x24 }
  - { offsetInCU: 0x1D22C, offset: 0x3468D, size: 0x8, addend: 0x0, symName: __ZNKSt3__122__compressed_pair_elemINS_9allocatorINS_11__hash_nodeINS_17__hash_value_typeINS_12basic_stringIcNS_11char_traitsIcEENS1_IcEEEEiEEPvEEEELi1ELb1EE5__getB8ue170006Ev, symObjAddr: 0x982C, symBinAddr: 0x10000AD64, symSize: 0x14 }
  - { offsetInCU: 0x1D252, offset: 0x346B3, size: 0x8, addend: 0x0, symName: __ZNSt3__117__compressed_pairINS_16__hash_node_baseIPNS_11__hash_nodeINS_17__hash_value_typeINS_12basic_stringIcNS_11char_traitsIcEENS_9allocatorIcEEEEiEEPvEEEENS7_ISC_EEEC2B8ue170006INS_18__default_init_tagESF_EEOT_OT0_, symObjAddr: 0x9840, symBinAddr: 0x10000AD78, symSize: 0x40 }
  - { offsetInCU: 0x1D2AA, offset: 0x3470B, size: 0x8, addend: 0x0, symName: __ZNSt3__122__compressed_pair_elemINS_16__hash_node_baseIPNS_11__hash_nodeINS_17__hash_value_typeINS_12basic_stringIcNS_11char_traitsIcEENS_9allocatorIcEEEEiEEPvEEEELi0ELb0EEC2B8ue170006ENS_18__default_init_tagE, symObjAddr: 0x9880, symBinAddr: 0x10000ADB8, symSize: 0x2C }
  - { offsetInCU: 0x1D2DF, offset: 0x34740, size: 0x8, addend: 0x0, symName: __ZNSt3__122__compressed_pair_elemINS_9allocatorINS_11__hash_nodeINS_17__hash_value_typeINS_12basic_stringIcNS_11char_traitsIcEENS1_IcEEEEiEEPvEEEELi1ELb1EEC2B8ue170006ISC_vEEOT_, symObjAddr: 0x98AC, symBinAddr: 0x10000ADE4, symSize: 0x18 }
  - { offsetInCU: 0x1D321, offset: 0x34782, size: 0x8, addend: 0x0, symName: __ZNKSt3__117__compressed_pairImNS_22__unordered_map_hasherINS_12basic_stringIcNS_11char_traitsIcEENS_9allocatorIcEEEENS_17__hash_value_typeIS7_iEENS_4hashIS7_EENS_8equal_toIS7_EELb1EEEE6secondB8ue170006Ev, symObjAddr: 0x98C4, symBinAddr: 0x10000ADFC, symSize: 0x24 }
  - { offsetInCU: 0x1D347, offset: 0x347A8, size: 0x8, addend: 0x0, symName: __ZNKSt3__122__compressed_pair_elemINS_22__unordered_map_hasherINS_12basic_stringIcNS_11char_traitsIcEENS_9allocatorIcEEEENS_17__hash_value_typeIS7_iEENS_4hashIS7_EENS_8equal_toIS7_EELb1EEELi1ELb1EE5__getB8ue170006Ev, symObjAddr: 0x98E8, symBinAddr: 0x10000AE20, symSize: 0x14 }
  - { offsetInCU: 0x1D36D, offset: 0x347CE, size: 0x8, addend: 0x0, symName: __ZNSt3__117__compressed_pairImNS_22__unordered_map_hasherINS_12basic_stringIcNS_11char_traitsIcEENS_9allocatorIcEEEENS_17__hash_value_typeIS7_iEENS_4hashIS7_EENS_8equal_toIS7_EELb1EEEEC2B8ue170006IiRKSE_EEOT_OT0_, symObjAddr: 0x98FC, symBinAddr: 0x10000AE34, symSize: 0x44 }
  - { offsetInCU: 0x1D3C5, offset: 0x34826, size: 0x8, addend: 0x0, symName: __ZNSt3__122__compressed_pair_elemINS_22__unordered_map_hasherINS_12basic_stringIcNS_11char_traitsIcEENS_9allocatorIcEEEENS_17__hash_value_typeIS7_iEENS_4hashIS7_EENS_8equal_toIS7_EELb1EEELi1ELb1EEC2B8ue170006IRKSE_vEEOT_, symObjAddr: 0x9940, symBinAddr: 0x10000AE78, symSize: 0x18 }
  - { offsetInCU: 0x1D407, offset: 0x34868, size: 0x8, addend: 0x0, symName: __ZNSt3__112__hash_tableINS_17__hash_value_typeINS_12basic_stringIcNS_11char_traitsIcEENS_9allocatorIcEEEEiEENS_22__unordered_map_hasherIS7_S8_NS_4hashIS7_EENS_8equal_toIS7_EELb1EEENS_21__unordered_map_equalIS7_S8_SD_SB_Lb1EEENS5_IS8_EEE15__insert_uniqueB8ue170006ERKNS_4pairIKS7_iEE, symObjAddr: 0x9988, symBinAddr: 0x10000AEC0, symSize: 0x50 }
  - { offsetInCU: 0x1D43C, offset: 0x3489D, size: 0x8, addend: 0x0, symName: __ZNKSt3__125__hash_map_const_iteratorINS_21__hash_const_iteratorIPNS_11__hash_nodeINS_17__hash_value_typeINS_12basic_stringIcNS_11char_traitsIcEENS_9allocatorIcEEEEiEEPvEEEEEdeB8ue170006Ev, symObjAddr: 0x99D8, symBinAddr: 0x10000AF10, symSize: 0x28 }
  - { offsetInCU: 0x1D462, offset: 0x348C3, size: 0x8, addend: 0x0, symName: __ZNSt3__125__hash_map_const_iteratorINS_21__hash_const_iteratorIPNS_11__hash_nodeINS_17__hash_value_typeINS_12basic_stringIcNS_11char_traitsIcEENS_9allocatorIcEEEEiEEPvEEEEEppB8ue170006Ev, symObjAddr: 0x9A00, symBinAddr: 0x10000AF38, symSize: 0x2C }
  - { offsetInCU: 0x1D488, offset: 0x348E9, size: 0x8, addend: 0x0, symName: __ZNSt3__112__hash_tableINS_17__hash_value_typeINS_12basic_stringIcNS_11char_traitsIcEENS_9allocatorIcEEEEiEENS_22__unordered_map_hasherIS7_S8_NS_4hashIS7_EENS_8equal_toIS7_EELb1EEENS_21__unordered_map_equalIS7_S8_SD_SB_Lb1EEENS5_IS8_EEE25__emplace_unique_key_argsIS7_JRKNS_4pairIKS7_iEEEEENSK_INS_15__hash_iteratorIPNS_11__hash_nodeIS8_PvEEEEbEERKT_DpOT0_, symObjAddr: 0x9A90, symBinAddr: 0x10000AFC8, symSize: 0x4A0 }
  - { offsetInCU: 0x1D569, offset: 0x349CA, size: 0x8, addend: 0x0, symName: __ZNSt3__122__hash_key_value_typesINS_17__hash_value_typeINS_12basic_stringIcNS_11char_traitsIcEENS_9allocatorIcEEEEiEEE9__get_keyB8ue170006ERKNS_4pairIKS7_iEE, symObjAddr: 0x9F30, symBinAddr: 0x10000B468, symSize: 0x14 }
  - { offsetInCU: 0x1D58C, offset: 0x349ED, size: 0x8, addend: 0x0, symName: __ZNSt3__112__hash_tableINS_17__hash_value_typeINS_12basic_stringIcNS_11char_traitsIcEENS_9allocatorIcEEEEiEENS_22__unordered_map_hasherIS7_S8_NS_4hashIS7_EENS_8equal_toIS7_EELb1EEENS_21__unordered_map_equalIS7_S8_SD_SB_Lb1EEENS5_IS8_EEE21__construct_node_hashIRKNS_4pairIKS7_iEEJEEENS_10unique_ptrINS_11__hash_nodeIS8_PvEENS_22__hash_node_destructorINS5_ISS_EEEEEEmOT_DpOT0_, symObjAddr: 0x9F44, symBinAddr: 0x10000B47C, symSize: 0x140 }
  - { offsetInCU: 0x1D5FF, offset: 0x34A60, size: 0x8, addend: 0x0, symName: __ZNSt3__116allocator_traitsINS_9allocatorINS_11__hash_nodeINS_17__hash_value_typeINS_12basic_stringIcNS_11char_traitsIcEENS1_IcEEEEiEEPvEEEEE9constructB8ue170006INS_4pairIKS8_iEEJRKSH_EvEEvRSC_PT_DpOT0_, symObjAddr: 0xA084, symBinAddr: 0x10000B5BC, symSize: 0x34 }
  - { offsetInCU: 0x1D656, offset: 0x34AB7, size: 0x8, addend: 0x0, symName: __ZNSt3__19allocatorINS_11__hash_nodeINS_17__hash_value_typeINS_12basic_stringIcNS_11char_traitsIcEENS0_IcEEEEiEEPvEEE9constructB8ue170006INS_4pairIKS7_iEEJRKSF_EEEvPT_DpOT0_, symObjAddr: 0xA0B8, symBinAddr: 0x10000B5F0, symSize: 0x30 }
  - { offsetInCU: 0x1D6AC, offset: 0x34B0D, size: 0x8, addend: 0x0, symName: __ZNSt3__14pairIKNS_12basic_stringIcNS_11char_traitsIcEENS_9allocatorIcEEEEiEC1B8ue170006ERKS8_, symObjAddr: 0xA0E8, symBinAddr: 0x10000B620, symSize: 0x34 }
  - { offsetInCU: 0x1D6E1, offset: 0x34B42, size: 0x8, addend: 0x0, symName: __ZNSt3__14pairIKNS_12basic_stringIcNS_11char_traitsIcEENS_9allocatorIcEEEEiEC2B8ue170006ERKS8_, symObjAddr: 0xA11C, symBinAddr: 0x10000B654, symSize: 0x40 }
  - { offsetInCU: 0x1D716, offset: 0x34B77, size: 0x8, addend: 0x0, symName: __ZNKSt3__121__hash_const_iteratorIPNS_11__hash_nodeINS_17__hash_value_typeINS_12basic_stringIcNS_11char_traitsIcEENS_9allocatorIcEEEEiEEPvEEEptB8ue170006Ev, symObjAddr: 0xA15C, symBinAddr: 0x10000B694, symSize: 0x30 }
  - { offsetInCU: 0x1D73C, offset: 0x34B9D, size: 0x8, addend: 0x0, symName: __ZNSt3__114pointer_traitsIPKNS_17__hash_value_typeINS_12basic_stringIcNS_11char_traitsIcEENS_9allocatorIcEEEEiEEE10pointer_toB8ue170006ERS9_, symObjAddr: 0xA18C, symBinAddr: 0x10000B6C4, symSize: 0x14 }
  - { offsetInCU: 0x1D75F, offset: 0x34BC0, size: 0x8, addend: 0x0, symName: __ZNSt3__121__hash_const_iteratorIPNS_11__hash_nodeINS_17__hash_value_typeINS_12basic_stringIcNS_11char_traitsIcEENS_9allocatorIcEEEEiEEPvEEEppB8ue170006Ev, symObjAddr: 0xA1A0, symBinAddr: 0x10000B6D8, symSize: 0x20 }
  - { offsetInCU: 0x1D785, offset: 0x34BE6, size: 0x8, addend: 0x0, symName: __ZNKSt3__112__hash_tableINS_17__hash_value_typeINS_12basic_stringIcNS_11char_traitsIcEENS_9allocatorIcEEEEiEENS_22__unordered_map_hasherIS7_S8_NS_4hashIS7_EENS_8equal_toIS7_EELb1EEENS_21__unordered_map_equalIS7_S8_SD_SB_Lb1EEENS5_IS8_EEE5beginEv, symObjAddr: 0xA1C0, symBinAddr: 0x10000B6F8, symSize: 0x38 }
  - { offsetInCU: 0x1D7AD, offset: 0x34C0E, size: 0x8, addend: 0x0, symName: __ZNSt3__125__hash_map_const_iteratorINS_21__hash_const_iteratorIPNS_11__hash_nodeINS_17__hash_value_typeINS_12basic_stringIcNS_11char_traitsIcEENS_9allocatorIcEEEEiEEPvEEEEEC1B8ue170006ESE_, symObjAddr: 0xA1F8, symBinAddr: 0x10000B730, symSize: 0x34 }
  - { offsetInCU: 0x1D7E6, offset: 0x34C47, size: 0x8, addend: 0x0, symName: __ZNKSt3__117__compressed_pairINS_16__hash_node_baseIPNS_11__hash_nodeINS_17__hash_value_typeINS_12basic_stringIcNS_11char_traitsIcEENS_9allocatorIcEEEEiEEPvEEEENS7_ISC_EEE5firstB8ue170006Ev, symObjAddr: 0xA22C, symBinAddr: 0x10000B764, symSize: 0x24 }
  - { offsetInCU: 0x1D80C, offset: 0x34C6D, size: 0x8, addend: 0x0, symName: __ZNSt3__121__hash_const_iteratorIPNS_11__hash_nodeINS_17__hash_value_typeINS_12basic_stringIcNS_11char_traitsIcEENS_9allocatorIcEEEEiEEPvEEEC1B8ue170006EPNS_16__hash_node_baseISC_EE, symObjAddr: 0xA250, symBinAddr: 0x10000B788, symSize: 0x34 }
  - { offsetInCU: 0x1D845, offset: 0x34CA6, size: 0x8, addend: 0x0, symName: __ZNKSt3__122__compressed_pair_elemINS_16__hash_node_baseIPNS_11__hash_nodeINS_17__hash_value_typeINS_12basic_stringIcNS_11char_traitsIcEENS_9allocatorIcEEEEiEEPvEEEELi0ELb0EE5__getB8ue170006Ev, symObjAddr: 0xA284, symBinAddr: 0x10000B7BC, symSize: 0x14 }
  - { offsetInCU: 0x1D86B, offset: 0x34CCC, size: 0x8, addend: 0x0, symName: __ZNSt3__121__hash_const_iteratorIPNS_11__hash_nodeINS_17__hash_value_typeINS_12basic_stringIcNS_11char_traitsIcEENS_9allocatorIcEEEEiEEPvEEEC2B8ue170006EPNS_16__hash_node_baseISC_EE, symObjAddr: 0xA298, symBinAddr: 0x10000B7D0, symSize: 0x20 }
  - { offsetInCU: 0x1D8A4, offset: 0x34D05, size: 0x8, addend: 0x0, symName: __ZNSt3__125__hash_map_const_iteratorINS_21__hash_const_iteratorIPNS_11__hash_nodeINS_17__hash_value_typeINS_12basic_stringIcNS_11char_traitsIcEENS_9allocatorIcEEEEiEEPvEEEEEC2B8ue170006ESE_, symObjAddr: 0xA2B8, symBinAddr: 0x10000B7F0, symSize: 0x20 }
  - { offsetInCU: 0x1D8DD, offset: 0x34D3E, size: 0x8, addend: 0x0, symName: __ZNKSt3__112__hash_tableINS_17__hash_value_typeINS_12basic_stringIcNS_11char_traitsIcEENS_9allocatorIcEEEEiEENS_22__unordered_map_hasherIS7_S8_NS_4hashIS7_EENS_8equal_toIS7_EELb1EEENS_21__unordered_map_equalIS7_S8_SD_SB_Lb1EEENS5_IS8_EEE3endEv, symObjAddr: 0xA2D8, symBinAddr: 0x10000B810, symSize: 0x2C }
  - { offsetInCU: 0x1D905, offset: 0x34D66, size: 0x8, addend: 0x0, symName: __ZNSt3__112__hash_tableINS_17__hash_value_typeINS_12basic_stringIcNS_11char_traitsIcEENS_9allocatorIcEEEEP6TraderEENS_22__unordered_map_hasherIS7_SA_NS_4hashIS7_EENS_8equal_toIS7_EELb1EEENS_21__unordered_map_equalIS7_SA_SF_SD_Lb1EEENS5_ISA_EEE25__emplace_unique_key_argsIS7_JRKNS_21piecewise_construct_tENS_5tupleIJRKS7_EEENSP_IJEEEEEENS_4pairINS_15__hash_iteratorIPNS_11__hash_nodeISA_PvEEEEbEERKT_DpOT0_, symObjAddr: 0xA304, symBinAddr: 0x10000B83C, symSize: 0x4CC }
  - { offsetInCU: 0x1DA10, offset: 0x34E71, size: 0x8, addend: 0x0, symName: __ZNKSt3__115__hash_iteratorIPNS_11__hash_nodeINS_17__hash_value_typeINS_12basic_stringIcNS_11char_traitsIcEENS_9allocatorIcEEEEP6TraderEEPvEEEptB8ue170006Ev, symObjAddr: 0xA7D0, symBinAddr: 0x10000BD08, symSize: 0x30 }
  - { offsetInCU: 0x1DA36, offset: 0x34E97, size: 0x8, addend: 0x0, symName: __ZNSt3__112__hash_tableINS_17__hash_value_typeINS_12basic_stringIcNS_11char_traitsIcEENS_9allocatorIcEEEEP6TraderEENS_22__unordered_map_hasherIS7_SA_NS_4hashIS7_EENS_8equal_toIS7_EELb1EEENS_21__unordered_map_equalIS7_SA_SF_SD_Lb1EEENS5_ISA_EEE13hash_functionB8ue170006Ev, symObjAddr: 0xA800, symBinAddr: 0x10000BD38, symSize: 0x28 }
  - { offsetInCU: 0x1DA5C, offset: 0x34EBD, size: 0x8, addend: 0x0, symName: __ZNKSt3__122__unordered_map_hasherINS_12basic_stringIcNS_11char_traitsIcEENS_9allocatorIcEEEENS_17__hash_value_typeIS6_P6TraderEENS_4hashIS6_EENS_8equal_toIS6_EELb1EEclB8ue170006ERKS6_, symObjAddr: 0xA828, symBinAddr: 0x10000BD60, symSize: 0x2C }
  - { offsetInCU: 0x1DA91, offset: 0x34EF2, size: 0x8, addend: 0x0, symName: __ZNKSt3__112__hash_tableINS_17__hash_value_typeINS_12basic_stringIcNS_11char_traitsIcEENS_9allocatorIcEEEEP6TraderEENS_22__unordered_map_hasherIS7_SA_NS_4hashIS7_EENS_8equal_toIS7_EELb1EEENS_21__unordered_map_equalIS7_SA_SF_SD_Lb1EEENS5_ISA_EEE12bucket_countB8ue170006Ev, symObjAddr: 0xA854, symBinAddr: 0x10000BD8C, symSize: 0x28 }
  - { offsetInCU: 0x1DAB7, offset: 0x34F18, size: 0x8, addend: 0x0, symName: __ZNKSt3__110unique_ptrIA_PNS_16__hash_node_baseIPNS_11__hash_nodeINS_17__hash_value_typeINS_12basic_stringIcNS_11char_traitsIcEENS_9allocatorIcEEEEP6TraderEEPvEEEENS_25__bucket_list_deallocatorINS7_ISH_EEEEEixB8ue170006Em, symObjAddr: 0xA87C, symBinAddr: 0x10000BDB4, symSize: 0x34 }
  - { offsetInCU: 0x1DAEC, offset: 0x34F4D, size: 0x8, addend: 0x0, symName: __ZNKSt3__116__hash_node_baseIPNS_11__hash_nodeINS_17__hash_value_typeINS_12basic_stringIcNS_11char_traitsIcEENS_9allocatorIcEEEEP6TraderEEPvEEE6__hashB8ue170006Ev, symObjAddr: 0xA8B0, symBinAddr: 0x10000BDE8, symSize: 0x18 }
  - { offsetInCU: 0x1DB12, offset: 0x34F73, size: 0x8, addend: 0x0, symName: __ZNSt3__112__hash_tableINS_17__hash_value_typeINS_12basic_stringIcNS_11char_traitsIcEENS_9allocatorIcEEEEP6TraderEENS_22__unordered_map_hasherIS7_SA_NS_4hashIS7_EENS_8equal_toIS7_EELb1EEENS_21__unordered_map_equalIS7_SA_SF_SD_Lb1EEENS5_ISA_EEE6key_eqB8ue170006Ev, symObjAddr: 0xA8C8, symBinAddr: 0x10000BE00, symSize: 0x28 }
  - { offsetInCU: 0x1DB38, offset: 0x34F99, size: 0x8, addend: 0x0, symName: __ZNKSt3__121__unordered_map_equalINS_12basic_stringIcNS_11char_traitsIcEENS_9allocatorIcEEEENS_17__hash_value_typeIS6_P6TraderEENS_8equal_toIS6_EENS_4hashIS6_EELb1EEclB8ue170006ERKSA_RKS6_, symObjAddr: 0xA8F0, symBinAddr: 0x10000BE28, symSize: 0x48 }
  - { offsetInCU: 0x1DB7C, offset: 0x34FDD, size: 0x8, addend: 0x0, symName: __ZNSt3__112__hash_tableINS_17__hash_value_typeINS_12basic_stringIcNS_11char_traitsIcEENS_9allocatorIcEEEEP6TraderEENS_22__unordered_map_hasherIS7_SA_NS_4hashIS7_EENS_8equal_toIS7_EELb1EEENS_21__unordered_map_equalIS7_SA_SF_SD_Lb1EEENS5_ISA_EEE21__construct_node_hashIRKNS_21piecewise_construct_tEJNS_5tupleIJRKS7_EEENSP_IJEEEEEENS_10unique_ptrINS_11__hash_nodeISA_PvEENS_22__hash_node_destructorINS5_ISX_EEEEEEmOT_DpOT0_, symObjAddr: 0xA938, symBinAddr: 0x10000BE70, symSize: 0x150 }
  - { offsetInCU: 0x1DC18, offset: 0x35079, size: 0x8, addend: 0x0, symName: __ZNSt3__112__hash_tableINS_17__hash_value_typeINS_12basic_stringIcNS_11char_traitsIcEENS_9allocatorIcEEEEP6TraderEENS_22__unordered_map_hasherIS7_SA_NS_4hashIS7_EENS_8equal_toIS7_EELb1EEENS_21__unordered_map_equalIS7_SA_SF_SD_Lb1EEENS5_ISA_EEE4sizeB8ue170006Ev, symObjAddr: 0xAA88, symBinAddr: 0x10000BFC0, symSize: 0x28 }
  - { offsetInCU: 0x1DC3E, offset: 0x3509F, size: 0x8, addend: 0x0, symName: __ZNSt3__112__hash_tableINS_17__hash_value_typeINS_12basic_stringIcNS_11char_traitsIcEENS_9allocatorIcEEEEP6TraderEENS_22__unordered_map_hasherIS7_SA_NS_4hashIS7_EENS_8equal_toIS7_EELb1EEENS_21__unordered_map_equalIS7_SA_SF_SD_Lb1EEENS5_ISA_EEE15max_load_factorB8ue170006Ev, symObjAddr: 0xAAB0, symBinAddr: 0x10000BFE8, symSize: 0x28 }
  - { offsetInCU: 0x1DC64, offset: 0x350C5, size: 0x8, addend: 0x0, symName: __ZNSt3__112__hash_tableINS_17__hash_value_typeINS_12basic_stringIcNS_11char_traitsIcEENS_9allocatorIcEEEEP6TraderEENS_22__unordered_map_hasherIS7_SA_NS_4hashIS7_EENS_8equal_toIS7_EELb1EEENS_21__unordered_map_equalIS7_SA_SF_SD_Lb1EEENS5_ISA_EEE15__rehash_uniqueB8ue170006Em, symObjAddr: 0xAAD8, symBinAddr: 0x10000C010, symSize: 0x2C }
  - { offsetInCU: 0x1DC99, offset: 0x350FA, size: 0x8, addend: 0x0, symName: __ZNSt3__116__hash_node_baseIPNS_11__hash_nodeINS_17__hash_value_typeINS_12basic_stringIcNS_11char_traitsIcEENS_9allocatorIcEEEEP6TraderEEPvEEE5__ptrB8ue170006Ev, symObjAddr: 0xAB04, symBinAddr: 0x10000C03C, symSize: 0x24 }
  - { offsetInCU: 0x1DCBF, offset: 0x35120, size: 0x8, addend: 0x0, symName: __ZNKSt3__110unique_ptrINS_11__hash_nodeINS_17__hash_value_typeINS_12basic_stringIcNS_11char_traitsIcEENS_9allocatorIcEEEEP6TraderEEPvEENS_22__hash_node_destructorINS6_ISD_EEEEEptB8ue170006Ev, symObjAddr: 0xAB28, symBinAddr: 0x10000C060, symSize: 0x28 }
  - { offsetInCU: 0x1DCE5, offset: 0x35146, size: 0x8, addend: 0x0, symName: __ZNKSt3__110unique_ptrINS_11__hash_nodeINS_17__hash_value_typeINS_12basic_stringIcNS_11char_traitsIcEENS_9allocatorIcEEEEP6TraderEEPvEENS_22__hash_node_destructorINS6_ISD_EEEEE3getB8ue170006Ev, symObjAddr: 0xAB50, symBinAddr: 0x10000C088, symSize: 0x28 }
  - { offsetInCU: 0x1DD0B, offset: 0x3516C, size: 0x8, addend: 0x0, symName: __ZNSt3__110unique_ptrINS_11__hash_nodeINS_17__hash_value_typeINS_12basic_stringIcNS_11char_traitsIcEENS_9allocatorIcEEEEP6TraderEEPvEENS_22__hash_node_destructorINS6_ISD_EEEEE7releaseB8ue170006Ev, symObjAddr: 0xAB78, symBinAddr: 0x10000C0B0, symSize: 0x44 }
  - { offsetInCU: 0x1DD40, offset: 0x351A1, size: 0x8, addend: 0x0, symName: __ZNSt3__110unique_ptrINS_11__hash_nodeINS_17__hash_value_typeINS_12basic_stringIcNS_11char_traitsIcEENS_9allocatorIcEEEEP6TraderEEPvEENS_22__hash_node_destructorINS6_ISD_EEEEED1B8ue170006Ev, symObjAddr: 0xABBC, symBinAddr: 0x10000C0F4, symSize: 0x2C }
  - { offsetInCU: 0x1DD6A, offset: 0x351CB, size: 0x8, addend: 0x0, symName: __ZNSt3__115__hash_iteratorIPNS_11__hash_nodeINS_17__hash_value_typeINS_12basic_stringIcNS_11char_traitsIcEENS_9allocatorIcEEEEP6TraderEEPvEEEC1B8ue170006EPNS_16__hash_node_baseISE_EE, symObjAddr: 0xABE8, symBinAddr: 0x10000C120, symSize: 0x34 }
  - { offsetInCU: 0x1DDA8, offset: 0x35209, size: 0x8, addend: 0x0, symName: __ZNSt3__14pairINS_15__hash_iteratorIPNS_11__hash_nodeINS_17__hash_value_typeINS_12basic_stringIcNS_11char_traitsIcEENS_9allocatorIcEEEEP6TraderEEPvEEEEbEC1B8ue170006ISG_RbLSD_0EEEOT_OT0_, symObjAddr: 0xAC1C, symBinAddr: 0x10000C154, symSize: 0x3C }
  - { offsetInCU: 0x1DE06, offset: 0x35267, size: 0x8, addend: 0x0, symName: __ZNSt3__117__compressed_pairImNS_22__unordered_map_hasherINS_12basic_stringIcNS_11char_traitsIcEENS_9allocatorIcEEEENS_17__hash_value_typeIS7_P6TraderEENS_4hashIS7_EENS_8equal_toIS7_EELb1EEEE6secondB8ue170006Ev, symObjAddr: 0xAC58, symBinAddr: 0x10000C190, symSize: 0x24 }
  - { offsetInCU: 0x1DE2C, offset: 0x3528D, size: 0x8, addend: 0x0, symName: __ZNSt3__122__compressed_pair_elemINS_22__unordered_map_hasherINS_12basic_stringIcNS_11char_traitsIcEENS_9allocatorIcEEEENS_17__hash_value_typeIS7_P6TraderEENS_4hashIS7_EENS_8equal_toIS7_EELb1EEELi1ELb1EE5__getB8ue170006Ev, symObjAddr: 0xAC7C, symBinAddr: 0x10000C1B4, symSize: 0x14 }
  - { offsetInCU: 0x1DE52, offset: 0x352B3, size: 0x8, addend: 0x0, symName: __ZNKSt3__110unique_ptrIA_PNS_16__hash_node_baseIPNS_11__hash_nodeINS_17__hash_value_typeINS_12basic_stringIcNS_11char_traitsIcEENS_9allocatorIcEEEEP6TraderEEPvEEEENS_25__bucket_list_deallocatorINS7_ISH_EEEEE11get_deleterB8ue170006Ev, symObjAddr: 0xAC90, symBinAddr: 0x10000C1C8, symSize: 0x24 }
  - { offsetInCU: 0x1DE78, offset: 0x352D9, size: 0x8, addend: 0x0, symName: __ZNKSt3__125__bucket_list_deallocatorINS_9allocatorIPNS_16__hash_node_baseIPNS_11__hash_nodeINS_17__hash_value_typeINS_12basic_stringIcNS_11char_traitsIcEENS1_IcEEEEP6TraderEEPvEEEEEEE4sizeB8ue170006Ev, symObjAddr: 0xACB4, symBinAddr: 0x10000C1EC, symSize: 0x28 }
  - { offsetInCU: 0x1DE9E, offset: 0x352FF, size: 0x8, addend: 0x0, symName: __ZNKSt3__117__compressed_pairIPPNS_16__hash_node_baseIPNS_11__hash_nodeINS_17__hash_value_typeINS_12basic_stringIcNS_11char_traitsIcEENS_9allocatorIcEEEEP6TraderEEPvEEEENS_25__bucket_list_deallocatorINS7_ISH_EEEEE6secondB8ue170006Ev, symObjAddr: 0xACDC, symBinAddr: 0x10000C214, symSize: 0x28 }
  - { offsetInCU: 0x1DEC4, offset: 0x35325, size: 0x8, addend: 0x0, symName: __ZNKSt3__122__compressed_pair_elemINS_25__bucket_list_deallocatorINS_9allocatorIPNS_16__hash_node_baseIPNS_11__hash_nodeINS_17__hash_value_typeINS_12basic_stringIcNS_11char_traitsIcEENS2_IcEEEEP6TraderEEPvEEEEEEEELi1ELb0EE5__getB8ue170006Ev, symObjAddr: 0xAD04, symBinAddr: 0x10000C23C, symSize: 0x14 }
  - { offsetInCU: 0x1DEEA, offset: 0x3534B, size: 0x8, addend: 0x0, symName: __ZNKSt3__117__compressed_pairImNS_9allocatorIPNS_16__hash_node_baseIPNS_11__hash_nodeINS_17__hash_value_typeINS_12basic_stringIcNS_11char_traitsIcEENS1_IcEEEEP6TraderEEPvEEEEEEE5firstB8ue170006Ev, symObjAddr: 0xAD18, symBinAddr: 0x10000C250, symSize: 0x24 }
  - { offsetInCU: 0x1DF10, offset: 0x35371, size: 0x8, addend: 0x0, symName: __ZNKSt3__117__compressed_pairIPPNS_16__hash_node_baseIPNS_11__hash_nodeINS_17__hash_value_typeINS_12basic_stringIcNS_11char_traitsIcEENS_9allocatorIcEEEEP6TraderEEPvEEEENS_25__bucket_list_deallocatorINS7_ISH_EEEEE5firstB8ue170006Ev, symObjAddr: 0xAD3C, symBinAddr: 0x10000C274, symSize: 0x24 }
  - { offsetInCU: 0x1DF36, offset: 0x35397, size: 0x8, addend: 0x0, symName: __ZNKSt3__122__compressed_pair_elemIPPNS_16__hash_node_baseIPNS_11__hash_nodeINS_17__hash_value_typeINS_12basic_stringIcNS_11char_traitsIcEENS_9allocatorIcEEEEP6TraderEEPvEEEELi0ELb0EE5__getB8ue170006Ev, symObjAddr: 0xAD60, symBinAddr: 0x10000C298, symSize: 0x14 }
  - { offsetInCU: 0x1DF5C, offset: 0x353BD, size: 0x8, addend: 0x0, symName: __ZNSt3__117__compressed_pairIfNS_21__unordered_map_equalINS_12basic_stringIcNS_11char_traitsIcEENS_9allocatorIcEEEENS_17__hash_value_typeIS7_P6TraderEENS_8equal_toIS7_EENS_4hashIS7_EELb1EEEE6secondB8ue170006Ev, symObjAddr: 0xAD74, symBinAddr: 0x10000C2AC, symSize: 0x24 }
  - { offsetInCU: 0x1DF82, offset: 0x353E3, size: 0x8, addend: 0x0, symName: __ZNSt3__122__compressed_pair_elemINS_21__unordered_map_equalINS_12basic_stringIcNS_11char_traitsIcEENS_9allocatorIcEEEENS_17__hash_value_typeIS7_P6TraderEENS_8equal_toIS7_EENS_4hashIS7_EELb1EEELi1ELb1EE5__getB8ue170006Ev, symObjAddr: 0xAD98, symBinAddr: 0x10000C2D0, symSize: 0x14 }
  - { offsetInCU: 0x1DFA8, offset: 0x35409, size: 0x8, addend: 0x0, symName: __ZNKSt3__117__hash_value_typeINS_12basic_stringIcNS_11char_traitsIcEENS_9allocatorIcEEEEP6TraderE11__get_valueB8ue170006Ev, symObjAddr: 0xADAC, symBinAddr: 0x10000C2E4, symSize: 0x24 }
  - { offsetInCU: 0x1DFCE, offset: 0x3542F, size: 0x8, addend: 0x0, symName: __ZNSt3__116allocator_traitsINS_9allocatorINS_11__hash_nodeINS_17__hash_value_typeINS_12basic_stringIcNS_11char_traitsIcEENS1_IcEEEEP6TraderEEPvEEEEE8allocateB8ue170006ERSE_m, symObjAddr: 0xAE08, symBinAddr: 0x10000C340, symSize: 0x2C }
  - { offsetInCU: 0x1E001, offset: 0x35462, size: 0x8, addend: 0x0, symName: __ZNSt3__122__hash_node_destructorINS_9allocatorINS_11__hash_nodeINS_17__hash_value_typeINS_12basic_stringIcNS_11char_traitsIcEENS1_IcEEEEP6TraderEEPvEEEEEC1B8ue170006ERSE_b, symObjAddr: 0xAE34, symBinAddr: 0x10000C36C, symSize: 0x48 }
  - { offsetInCU: 0x1E04E, offset: 0x354AF, size: 0x8, addend: 0x0, symName: __ZNSt3__110unique_ptrINS_11__hash_nodeINS_17__hash_value_typeINS_12basic_stringIcNS_11char_traitsIcEENS_9allocatorIcEEEEP6TraderEEPvEENS_22__hash_node_destructorINS6_ISD_EEEEEC1B8ue170006ILb1EvEEPSD_NS_16__dependent_typeINS_27__unique_ptr_deleter_sfinaeISG_EEXT_EE20__good_rval_ref_typeE, symObjAddr: 0xAE7C, symBinAddr: 0x10000C3B4, symSize: 0x3C }
  - { offsetInCU: 0x1E09F, offset: 0x35500, size: 0x8, addend: 0x0, symName: __ZNSt3__116allocator_traitsINS_9allocatorINS_11__hash_nodeINS_17__hash_value_typeINS_12basic_stringIcNS_11char_traitsIcEENS1_IcEEEEP6TraderEEPvEEEEE9constructB8ue170006INS_4pairIKS8_SA_EEJRKNS_21piecewise_construct_tENS_5tupleIJRSI_EEENSN_IJEEEEvEEvRSE_PT_DpOT0_, symObjAddr: 0xAEB8, symBinAddr: 0x10000C3F0, symSize: 0x44 }
  - { offsetInCU: 0x1E11E, offset: 0x3557F, size: 0x8, addend: 0x0, symName: __ZNSt3__110unique_ptrINS_11__hash_nodeINS_17__hash_value_typeINS_12basic_stringIcNS_11char_traitsIcEENS_9allocatorIcEEEEP6TraderEEPvEENS_22__hash_node_destructorINS6_ISD_EEEEE11get_deleterB8ue170006Ev, symObjAddr: 0xAEFC, symBinAddr: 0x10000C434, symSize: 0x24 }
  - { offsetInCU: 0x1E144, offset: 0x355A5, size: 0x8, addend: 0x0, symName: __ZNSt3__19allocatorINS_11__hash_nodeINS_17__hash_value_typeINS_12basic_stringIcNS_11char_traitsIcEENS0_IcEEEEP6TraderEEPvEEE8allocateB8ue170006Em, symObjAddr: 0xAF20, symBinAddr: 0x10000C458, symSize: 0x5C }
  - { offsetInCU: 0x1E182, offset: 0x355E3, size: 0x8, addend: 0x0, symName: __ZNSt3__116allocator_traitsINS_9allocatorINS_11__hash_nodeINS_17__hash_value_typeINS_12basic_stringIcNS_11char_traitsIcEENS1_IcEEEEP6TraderEEPvEEEEE8max_sizeB8ue170006ISE_vEEmRKSE_, symObjAddr: 0xAF7C, symBinAddr: 0x10000C4B4, symSize: 0x24 }
  - { offsetInCU: 0x1E1B0, offset: 0x35611, size: 0x8, addend: 0x0, symName: __ZNKSt3__19allocatorINS_11__hash_nodeINS_17__hash_value_typeINS_12basic_stringIcNS_11char_traitsIcEENS0_IcEEEEP6TraderEEPvEEE8max_sizeB8ue170006Ev, symObjAddr: 0xAFA0, symBinAddr: 0x10000C4D8, symSize: 0x18 }
  - { offsetInCU: 0x1E1D6, offset: 0x35637, size: 0x8, addend: 0x0, symName: __ZNSt3__122__hash_node_destructorINS_9allocatorINS_11__hash_nodeINS_17__hash_value_typeINS_12basic_stringIcNS_11char_traitsIcEENS1_IcEEEEP6TraderEEPvEEEEEC2B8ue170006ERSE_b, symObjAddr: 0xAFB8, symBinAddr: 0x10000C4F0, symSize: 0x38 }
  - { offsetInCU: 0x1E21E, offset: 0x3567F, size: 0x8, addend: 0x0, symName: __ZNSt3__110unique_ptrINS_11__hash_nodeINS_17__hash_value_typeINS_12basic_stringIcNS_11char_traitsIcEENS_9allocatorIcEEEEP6TraderEEPvEENS_22__hash_node_destructorINS6_ISD_EEEEEC2B8ue170006ILb1EvEEPSD_NS_16__dependent_typeINS_27__unique_ptr_deleter_sfinaeISG_EEXT_EE20__good_rval_ref_typeE, symObjAddr: 0xAFF0, symBinAddr: 0x10000C528, symSize: 0x48 }
  - { offsetInCU: 0x1E26F, offset: 0x356D0, size: 0x8, addend: 0x0, symName: __ZNSt3__117__compressed_pairIPNS_11__hash_nodeINS_17__hash_value_typeINS_12basic_stringIcNS_11char_traitsIcEENS_9allocatorIcEEEEP6TraderEEPvEENS_22__hash_node_destructorINS6_ISD_EEEEEC1B8ue170006IRSE_SH_EEOT_OT0_, symObjAddr: 0xB038, symBinAddr: 0x10000C570, symSize: 0x3C }
  - { offsetInCU: 0x1E2C7, offset: 0x35728, size: 0x8, addend: 0x0, symName: __ZNSt3__117__compressed_pairIPNS_11__hash_nodeINS_17__hash_value_typeINS_12basic_stringIcNS_11char_traitsIcEENS_9allocatorIcEEEEP6TraderEEPvEENS_22__hash_node_destructorINS6_ISD_EEEEEC2B8ue170006IRSE_SH_EEOT_OT0_, symObjAddr: 0xB074, symBinAddr: 0x10000C5AC, symSize: 0x48 }
  - { offsetInCU: 0x1E31F, offset: 0x35780, size: 0x8, addend: 0x0, symName: __ZNSt3__122__compressed_pair_elemIPNS_11__hash_nodeINS_17__hash_value_typeINS_12basic_stringIcNS_11char_traitsIcEENS_9allocatorIcEEEEP6TraderEEPvEELi0ELb0EEC2B8ue170006IRSE_vEEOT_, symObjAddr: 0xB0BC, symBinAddr: 0x10000C5F4, symSize: 0x24 }
  - { offsetInCU: 0x1E361, offset: 0x357C2, size: 0x8, addend: 0x0, symName: __ZNSt3__122__compressed_pair_elemINS_22__hash_node_destructorINS_9allocatorINS_11__hash_nodeINS_17__hash_value_typeINS_12basic_stringIcNS_11char_traitsIcEENS2_IcEEEEP6TraderEEPvEEEEEELi1ELb0EEC2B8ue170006ISG_vEEOT_, symObjAddr: 0xB0E0, symBinAddr: 0x10000C618, symSize: 0x24 }
  - { offsetInCU: 0x1E3A3, offset: 0x35804, size: 0x8, addend: 0x0, symName: __ZNSt3__19allocatorINS_11__hash_nodeINS_17__hash_value_typeINS_12basic_stringIcNS_11char_traitsIcEENS0_IcEEEEP6TraderEEPvEEE9constructB8ue170006INS_4pairIKS7_S9_EEJRKNS_21piecewise_construct_tENS_5tupleIJRSG_EEENSL_IJEEEEEEvPT_DpOT0_, symObjAddr: 0xB104, symBinAddr: 0x10000C63C, symSize: 0x44 }
  - { offsetInCU: 0x1E41F, offset: 0x35880, size: 0x8, addend: 0x0, symName: __ZNSt3__14pairIKNS_12basic_stringIcNS_11char_traitsIcEENS_9allocatorIcEEEEP6TraderEC1B8ue170006IJRS7_EJEEENS_21piecewise_construct_tENS_5tupleIJDpT_EEENSE_IJDpT0_EEE, symObjAddr: 0xB148, symBinAddr: 0x10000C680, symSize: 0x3C }
  - { offsetInCU: 0x1E486, offset: 0x358E7, size: 0x8, addend: 0x0, symName: __ZNSt3__14pairIKNS_12basic_stringIcNS_11char_traitsIcEENS_9allocatorIcEEEEP6TraderEC1B8ue170006IJRS7_EJEJLm0EEJEEENS_21piecewise_construct_tERNS_5tupleIJDpT_EEERNSE_IJDpT0_EEENS_15__tuple_indicesIJXspT1_EEEENSN_IJXspT2_EEEE, symObjAddr: 0xB184, symBinAddr: 0x10000C6BC, symSize: 0x3C }
  - { offsetInCU: 0x1E516, offset: 0x35977, size: 0x8, addend: 0x0, symName: __ZNSt3__14pairIKNS_12basic_stringIcNS_11char_traitsIcEENS_9allocatorIcEEEEP6TraderEC2B8ue170006IJRS7_EJEJLm0EEJEEENS_21piecewise_construct_tERNS_5tupleIJDpT_EEERNSE_IJDpT0_EEENS_15__tuple_indicesIJXspT1_EEEENSN_IJXspT2_EEEE, symObjAddr: 0xB1C0, symBinAddr: 0x10000C6F8, symSize: 0x48 }
  - { offsetInCU: 0x1E5A6, offset: 0x35A07, size: 0x8, addend: 0x0, symName: __ZNSt3__117__compressed_pairIPNS_11__hash_nodeINS_17__hash_value_typeINS_12basic_stringIcNS_11char_traitsIcEENS_9allocatorIcEEEEP6TraderEEPvEENS_22__hash_node_destructorINS6_ISD_EEEEE6secondB8ue170006Ev, symObjAddr: 0xB208, symBinAddr: 0x10000C740, symSize: 0x28 }
  - { offsetInCU: 0x1E5CC, offset: 0x35A2D, size: 0x8, addend: 0x0, symName: __ZNSt3__122__compressed_pair_elemINS_22__hash_node_destructorINS_9allocatorINS_11__hash_nodeINS_17__hash_value_typeINS_12basic_stringIcNS_11char_traitsIcEENS2_IcEEEEP6TraderEEPvEEEEEELi1ELb0EE5__getB8ue170006Ev, symObjAddr: 0xB230, symBinAddr: 0x10000C768, symSize: 0x14 }
  - { offsetInCU: 0x1E5F2, offset: 0x35A53, size: 0x8, addend: 0x0, symName: __ZNSt3__117__compressed_pairImNS_22__unordered_map_hasherINS_12basic_stringIcNS_11char_traitsIcEENS_9allocatorIcEEEENS_17__hash_value_typeIS7_P6TraderEENS_4hashIS7_EENS_8equal_toIS7_EELb1EEEE5firstB8ue170006Ev, symObjAddr: 0xB244, symBinAddr: 0x10000C77C, symSize: 0x24 }
  - { offsetInCU: 0x1E618, offset: 0x35A79, size: 0x8, addend: 0x0, symName: __ZNSt3__117__compressed_pairIfNS_21__unordered_map_equalINS_12basic_stringIcNS_11char_traitsIcEENS_9allocatorIcEEEENS_17__hash_value_typeIS7_P6TraderEENS_8equal_toIS7_EENS_4hashIS7_EELb1EEEE5firstB8ue170006Ev, symObjAddr: 0xB268, symBinAddr: 0x10000C7A0, symSize: 0x24 }
  - { offsetInCU: 0x1E63E, offset: 0x35A9F, size: 0x8, addend: 0x0, symName: __ZNSt3__112__hash_tableINS_17__hash_value_typeINS_12basic_stringIcNS_11char_traitsIcEENS_9allocatorIcEEEEP6TraderEENS_22__unordered_map_hasherIS7_SA_NS_4hashIS7_EENS_8equal_toIS7_EELb1EEENS_21__unordered_map_equalIS7_SA_SF_SD_Lb1EEENS5_ISA_EEE8__rehashILb1EEEvm, symObjAddr: 0xB28C, symBinAddr: 0x10000C7C4, symSize: 0x1A8 }
  - { offsetInCU: 0x1E68E, offset: 0x35AEF, size: 0x8, addend: 0x0, symName: __ZNSt3__112__hash_tableINS_17__hash_value_typeINS_12basic_stringIcNS_11char_traitsIcEENS_9allocatorIcEEEEP6TraderEENS_22__unordered_map_hasherIS7_SA_NS_4hashIS7_EENS_8equal_toIS7_EELb1EEENS_21__unordered_map_equalIS7_SA_SF_SD_Lb1EEENS5_ISA_EEE11__do_rehashILb1EEEvm, symObjAddr: 0xB434, symBinAddr: 0x10000C96C, symSize: 0x288 }
  - { offsetInCU: 0x1E771, offset: 0x35BD2, size: 0x8, addend: 0x0, symName: __ZNSt3__110unique_ptrIA_PNS_16__hash_node_baseIPNS_11__hash_nodeINS_17__hash_value_typeINS_12basic_stringIcNS_11char_traitsIcEENS_9allocatorIcEEEEP6TraderEEPvEEEENS_25__bucket_list_deallocatorINS7_ISH_EEEEE11get_deleterB8ue170006Ev, symObjAddr: 0xB6BC, symBinAddr: 0x10000CBF4, symSize: 0x24 }
  - { offsetInCU: 0x1E797, offset: 0x35BF8, size: 0x8, addend: 0x0, symName: __ZNSt3__110unique_ptrIA_PNS_16__hash_node_baseIPNS_11__hash_nodeINS_17__hash_value_typeINS_12basic_stringIcNS_11char_traitsIcEENS_9allocatorIcEEEEP6TraderEEPvEEEENS_25__bucket_list_deallocatorINS7_ISH_EEEEE5resetB8ue170006IPSH_EENS_9enable_ifIXsr28_CheckArrayPointerConversionIT_EE5valueEvE4typeESQ_, symObjAddr: 0xB6E0, symBinAddr: 0x10000CC18, symSize: 0x78 }
  - { offsetInCU: 0x1E7E4, offset: 0x35C45, size: 0x8, addend: 0x0, symName: __ZNSt3__116allocator_traitsINS_9allocatorIPNS_16__hash_node_baseIPNS_11__hash_nodeINS_17__hash_value_typeINS_12basic_stringIcNS_11char_traitsIcEENS1_IcEEEEP6TraderEEPvEEEEEEE8allocateB8ue170006ERSI_m, symObjAddr: 0xB758, symBinAddr: 0x10000CC90, symSize: 0x2C }
  - { offsetInCU: 0x1E817, offset: 0x35C78, size: 0x8, addend: 0x0, symName: __ZNSt3__19allocatorIPNS_16__hash_node_baseIPNS_11__hash_nodeINS_17__hash_value_typeINS_12basic_stringIcNS_11char_traitsIcEENS0_IcEEEEP6TraderEEPvEEEEE8allocateB8ue170006Em, symObjAddr: 0xB784, symBinAddr: 0x10000CCBC, symSize: 0x58 }
  - { offsetInCU: 0x1E855, offset: 0x35CB6, size: 0x8, addend: 0x0, symName: __ZNSt3__116allocator_traitsINS_9allocatorIPNS_16__hash_node_baseIPNS_11__hash_nodeINS_17__hash_value_typeINS_12basic_stringIcNS_11char_traitsIcEENS1_IcEEEEP6TraderEEPvEEEEEEE8max_sizeB8ue170006ISI_vEEmRKSI_, symObjAddr: 0xB7DC, symBinAddr: 0x10000CD14, symSize: 0x24 }
  - { offsetInCU: 0x1E883, offset: 0x35CE4, size: 0x8, addend: 0x0, symName: __ZNKSt3__19allocatorIPNS_16__hash_node_baseIPNS_11__hash_nodeINS_17__hash_value_typeINS_12basic_stringIcNS_11char_traitsIcEENS0_IcEEEEP6TraderEEPvEEEEE8max_sizeB8ue170006Ev, symObjAddr: 0xB800, symBinAddr: 0x10000CD38, symSize: 0x14 }
  - { offsetInCU: 0x1E8A9, offset: 0x35D0A, size: 0x8, addend: 0x0, symName: __ZNKSt3__117__compressed_pairIPNS_11__hash_nodeINS_17__hash_value_typeINS_12basic_stringIcNS_11char_traitsIcEENS_9allocatorIcEEEEP6TraderEEPvEENS_22__hash_node_destructorINS6_ISD_EEEEE5firstB8ue170006Ev, symObjAddr: 0xB814, symBinAddr: 0x10000CD4C, symSize: 0x24 }
  - { offsetInCU: 0x1E8CF, offset: 0x35D30, size: 0x8, addend: 0x0, symName: __ZNKSt3__122__compressed_pair_elemIPNS_11__hash_nodeINS_17__hash_value_typeINS_12basic_stringIcNS_11char_traitsIcEENS_9allocatorIcEEEEP6TraderEEPvEELi0ELb0EE5__getB8ue170006Ev, symObjAddr: 0xB838, symBinAddr: 0x10000CD70, symSize: 0x14 }
  - { offsetInCU: 0x1E8F5, offset: 0x35D56, size: 0x8, addend: 0x0, symName: __ZNSt3__117__compressed_pairIPNS_11__hash_nodeINS_17__hash_value_typeINS_12basic_stringIcNS_11char_traitsIcEENS_9allocatorIcEEEEP6TraderEEPvEENS_22__hash_node_destructorINS6_ISD_EEEEE5firstB8ue170006Ev, symObjAddr: 0xB84C, symBinAddr: 0x10000CD84, symSize: 0x24 }
  - { offsetInCU: 0x1E91B, offset: 0x35D7C, size: 0x8, addend: 0x0, symName: __ZNSt3__122__compressed_pair_elemIPNS_11__hash_nodeINS_17__hash_value_typeINS_12basic_stringIcNS_11char_traitsIcEENS_9allocatorIcEEEEP6TraderEEPvEELi0ELb0EE5__getB8ue170006Ev, symObjAddr: 0xB870, symBinAddr: 0x10000CDA8, symSize: 0x14 }
  - { offsetInCU: 0x1E941, offset: 0x35DA2, size: 0x8, addend: 0x0, symName: __ZNSt3__110unique_ptrINS_11__hash_nodeINS_17__hash_value_typeINS_12basic_stringIcNS_11char_traitsIcEENS_9allocatorIcEEEEP6TraderEEPvEENS_22__hash_node_destructorINS6_ISD_EEEEED2B8ue170006Ev, symObjAddr: 0xB884, symBinAddr: 0x10000CDBC, symSize: 0x30 }
  - { offsetInCU: 0x1E96B, offset: 0x35DCC, size: 0x8, addend: 0x0, symName: __ZNSt3__110unique_ptrINS_11__hash_nodeINS_17__hash_value_typeINS_12basic_stringIcNS_11char_traitsIcEENS_9allocatorIcEEEEP6TraderEEPvEENS_22__hash_node_destructorINS6_ISD_EEEEE5resetB8ue170006EPSD_, symObjAddr: 0xB8B4, symBinAddr: 0x10000CDEC, symSize: 0x78 }
  - { offsetInCU: 0x1E9AF, offset: 0x35E10, size: 0x8, addend: 0x0, symName: __ZNSt3__122__hash_node_destructorINS_9allocatorINS_11__hash_nodeINS_17__hash_value_typeINS_12basic_stringIcNS_11char_traitsIcEENS1_IcEEEEP6TraderEEPvEEEEEclB8ue170006EPSD_, symObjAddr: 0xB92C, symBinAddr: 0x10000CE64, symSize: 0x94 }
  - { offsetInCU: 0x1E9E4, offset: 0x35E45, size: 0x8, addend: 0x0, symName: __ZNSt3__115__hash_iteratorIPNS_11__hash_nodeINS_17__hash_value_typeINS_12basic_stringIcNS_11char_traitsIcEENS_9allocatorIcEEEEP6TraderEEPvEEEC2B8ue170006EPNS_16__hash_node_baseISE_EE, symObjAddr: 0xB9C0, symBinAddr: 0x10000CEF8, symSize: 0x20 }
  - { offsetInCU: 0x1EA1D, offset: 0x35E7E, size: 0x8, addend: 0x0, symName: __ZNSt3__14pairINS_15__hash_iteratorIPNS_11__hash_nodeINS_17__hash_value_typeINS_12basic_stringIcNS_11char_traitsIcEENS_9allocatorIcEEEEP6TraderEEPvEEEEbEC2B8ue170006ISG_RbLSD_0EEEOT_OT0_, symObjAddr: 0xB9E0, symBinAddr: 0x10000CF18, symSize: 0x38 }
  - { offsetInCU: 0x1EA7B, offset: 0x35EDC, size: 0x8, addend: 0x0, symName: __ZNSt3__114pointer_traitsIPNS_17__hash_value_typeINS_12basic_stringIcNS_11char_traitsIcEENS_9allocatorIcEEEEP6TraderEEE10pointer_toB8ue170006ERSA_, symObjAddr: 0xBA18, symBinAddr: 0x10000CF50, symSize: 0x14 }
  - { offsetInCU: 0x1EA9E, offset: 0x35EFF, size: 0x8, addend: 0x0, symName: __ZNSt3__16chrono8durationIdNS_5ratioILl1ELl1EEEE4zeroB8ue170006Ev, symObjAddr: 0xBA5C, symBinAddr: 0x10000CF94, symSize: 0x3C }
  - { offsetInCU: 0x1EAB2, offset: 0x35F13, size: 0x8, addend: 0x0, symName: __ZNSt3__16chrono8durationIxNS_5ratioILl1ELl1000000000EEEEppB8ue170006Ev, symObjAddr: 0xBB30, symBinAddr: 0x10000D068, symSize: 0x20 }
  - { offsetInCU: 0x1EAD8, offset: 0x35F39, size: 0x8, addend: 0x0, symName: __ZNSt3__16chrono8durationIxNS_5ratioILl1ELl1000000000EEEE3maxB8ue170006Ev, symObjAddr: 0xBB50, symBinAddr: 0x10000D088, symSize: 0x3C }
  - { offsetInCU: 0x1EAF6, offset: 0x35F57, size: 0x8, addend: 0x0, symName: __ZNKSt3__16chrono13__duration_ltINS0_8durationIdNS_5ratioILl1ELl1EEEEES5_EclB8ue170006ERKS5_S8_, symObjAddr: 0xBBC0, symBinAddr: 0x10000D0F8, symSize: 0x4C }
  - { offsetInCU: 0x1EB3A, offset: 0x35F9B, size: 0x8, addend: 0x0, symName: __ZNKSt3__16chrono8durationIdNS_5ratioILl1ELl1EEEE5countB8ue170006Ev, symObjAddr: 0xBC0C, symBinAddr: 0x10000D144, symSize: 0x18 }
  - { offsetInCU: 0x1EB60, offset: 0x35FC1, size: 0x8, addend: 0x0, symName: __ZNSt3__16chrono15duration_valuesIdE4zeroB8ue170006Ev, symObjAddr: 0xBC24, symBinAddr: 0x10000D15C, symSize: 0x8 }
  - { offsetInCU: 0x1EB74, offset: 0x35FD5, size: 0x8, addend: 0x0, symName: __ZNSt3__16chrono8durationIeNS_5ratioILl1ELl1EEEEC1B8ue170006IdS3_EERKNS1_IT_T0_EEPNS_9enable_ifIXaasr13__no_overflowIS7_S3_EE5valueooL_ZNS_17integral_constantIbLb1EE5valueEEaaeqsr13__no_overflowIS7_S3_E4typeE3denLi1Entsr23treat_as_floating_pointIS6_EE5valueEvE4typeE, symObjAddr: 0xBC98, symBinAddr: 0x10000D1D0, symSize: 0x3C }
  - { offsetInCU: 0x1EBCB, offset: 0x3602C, size: 0x8, addend: 0x0, symName: __ZNKSt3__16chrono8durationIeNS_5ratioILl1ELl1EEEE5countB8ue170006Ev, symObjAddr: 0xBCD4, symBinAddr: 0x10000D20C, symSize: 0x18 }
  - { offsetInCU: 0x1EBF1, offset: 0x36052, size: 0x8, addend: 0x0, symName: __ZNSt3__16chrono8durationIeNS_5ratioILl1ELl1EEEEC2B8ue170006IdS3_EERKNS1_IT_T0_EEPNS_9enable_ifIXaasr13__no_overflowIS7_S3_EE5valueooL_ZNS_17integral_constantIbLb1EE5valueEEaaeqsr13__no_overflowIS7_S3_E4typeE3denLi1Entsr23treat_as_floating_pointIS6_EE5valueEvE4typeE, symObjAddr: 0xBCEC, symBinAddr: 0x10000D224, symSize: 0x48 }
  - { offsetInCU: 0x1EC52, offset: 0x360B3, size: 0x8, addend: 0x0, symName: __ZNKSt3__16chrono15__duration_castINS0_8durationIdNS_5ratioILl1ELl1EEEEENS2_IeS4_EES4_Lb1ELb1EEclB8ue170006ERKS5_, symObjAddr: 0xBD64, symBinAddr: 0x10000D29C, symSize: 0x40 }
  - { offsetInCU: 0x1EC90, offset: 0x360F1, size: 0x8, addend: 0x0, symName: __ZNSt3__16chrono8durationIeNS_5ratioILl1ELl1EEEEC1B8ue170006IeEERKT_PNS_9enable_ifIXaasr14is_convertibleIS8_eEE5valueooL_ZNS_17integral_constantIbLb1EE5valueEEntsr23treat_as_floating_pointIS6_EE5valueEvE4typeE, symObjAddr: 0xBDA4, symBinAddr: 0x10000D2DC, symSize: 0x3C }
  - { offsetInCU: 0x1ECDD, offset: 0x3613E, size: 0x8, addend: 0x0, symName: __ZNSt3__16chrono8durationIeNS_5ratioILl1ELl1EEEEC2B8ue170006IeEERKT_PNS_9enable_ifIXaasr14is_convertibleIS8_eEE5valueooL_ZNS_17integral_constantIbLb1EE5valueEEntsr23treat_as_floating_pointIS6_EE5valueEvE4typeE, symObjAddr: 0xBDE0, symBinAddr: 0x10000D318, symSize: 0x28 }
  - { offsetInCU: 0x1ED34, offset: 0x36195, size: 0x8, addend: 0x0, symName: __ZNSt3__16chrono8durationIxNS_5ratioILl1ELl1000000000EEEEC1B8ue170006IxEERKT_PNS_9enable_ifIXaasr14is_convertibleIS8_xEE5valueooL_ZNS_17integral_constantIbLb0EE5valueEEntsr23treat_as_floating_pointIS6_EE5valueEvE4typeE, symObjAddr: 0xBE58, symBinAddr: 0x10000D390, symSize: 0x3C }
  - { offsetInCU: 0x1ED81, offset: 0x361E2, size: 0x8, addend: 0x0, symName: __ZNSt3__16chrono8durationIxNS_5ratioILl1ELl1000000000EEEEC2B8ue170006IxEERKT_PNS_9enable_ifIXaasr14is_convertibleIS8_xEE5valueooL_ZNS_17integral_constantIbLb0EE5valueEEntsr23treat_as_floating_pointIS6_EE5valueEvE4typeE, symObjAddr: 0xBE94, symBinAddr: 0x10000D3CC, symSize: 0x28 }
  - { offsetInCU: 0x1EDCE, offset: 0x3622F, size: 0x8, addend: 0x0, symName: __ZNSt3__16chrono8durationIdNS_5ratioILl1ELl1000000000EEEEC1B8ue170006IxS3_EERKNS1_IT_T0_EEPNS_9enable_ifIXaasr13__no_overflowIS7_S3_EE5valueooL_ZNS_17integral_constantIbLb1EE5valueEEaaeqsr13__no_overflowIS7_S3_E4typeE3denLi1Entsr23treat_as_floating_pointIS6_EE5valueEvE4typeE, symObjAddr: 0xBF34, symBinAddr: 0x10000D46C, symSize: 0x3C }
  - { offsetInCU: 0x1EE25, offset: 0x36286, size: 0x8, addend: 0x0, symName: __ZNKSt3__16chrono8durationIdNS_5ratioILl1ELl1000000000EEEE5countB8ue170006Ev, symObjAddr: 0xBF70, symBinAddr: 0x10000D4A8, symSize: 0x18 }
  - { offsetInCU: 0x1EE4B, offset: 0x362AC, size: 0x8, addend: 0x0, symName: __ZNSt3__16chrono8durationIdNS_5ratioILl1ELl1000000000EEEEC1B8ue170006IdNS2_ILl1ELl1EEEEERKNS1_IT_T0_EEPNS_9enable_ifIXaasr13__no_overflowIS8_S3_EE5valueooL_ZNS_17integral_constantIbLb1EE5valueEEaaeqsr13__no_overflowIS8_S3_E4typeE3denLi1Entsr23treat_as_floating_pointIS7_EE5valueEvE4typeE, symObjAddr: 0xBF88, symBinAddr: 0x10000D4C0, symSize: 0x3C }
  - { offsetInCU: 0x1EEA2, offset: 0x36303, size: 0x8, addend: 0x0, symName: __ZNSt3__16chrono8durationIdNS_5ratioILl1ELl1000000000EEEEC2B8ue170006IxS3_EERKNS1_IT_T0_EEPNS_9enable_ifIXaasr13__no_overflowIS7_S3_EE5valueooL_ZNS_17integral_constantIbLb1EE5valueEEaaeqsr13__no_overflowIS7_S3_E4typeE3denLi1Entsr23treat_as_floating_pointIS6_EE5valueEvE4typeE, symObjAddr: 0xBFC4, symBinAddr: 0x10000D4FC, symSize: 0x48 }
  - { offsetInCU: 0x1EF03, offset: 0x36364, size: 0x8, addend: 0x0, symName: __ZNKSt3__16chrono15__duration_castINS0_8durationIxNS_5ratioILl1ELl1000000000EEEEENS2_IdS4_EENS3_ILl1ELl1EEELb1ELb1EEclB8ue170006ERKS5_, symObjAddr: 0xC03C, symBinAddr: 0x10000D574, symSize: 0x44 }
  - { offsetInCU: 0x1EF37, offset: 0x36398, size: 0x8, addend: 0x0, symName: __ZNKSt3__16chrono8durationIxNS_5ratioILl1ELl1000000000EEEE5countB8ue170006Ev, symObjAddr: 0xC080, symBinAddr: 0x10000D5B8, symSize: 0x18 }
  - { offsetInCU: 0x1EF5D, offset: 0x363BE, size: 0x8, addend: 0x0, symName: __ZNSt3__16chrono8durationIdNS_5ratioILl1ELl1000000000EEEEC1B8ue170006IdEERKT_PNS_9enable_ifIXaasr14is_convertibleIS8_dEE5valueooL_ZNS_17integral_constantIbLb1EE5valueEEntsr23treat_as_floating_pointIS6_EE5valueEvE4typeE, symObjAddr: 0xC098, symBinAddr: 0x10000D5D0, symSize: 0x3C }
  - { offsetInCU: 0x1EFAA, offset: 0x3640B, size: 0x8, addend: 0x0, symName: __ZNSt3__16chrono8durationIdNS_5ratioILl1ELl1000000000EEEEC2B8ue170006IdEERKT_PNS_9enable_ifIXaasr14is_convertibleIS8_dEE5valueooL_ZNS_17integral_constantIbLb1EE5valueEEntsr23treat_as_floating_pointIS6_EE5valueEvE4typeE, symObjAddr: 0xC0D4, symBinAddr: 0x10000D60C, symSize: 0x28 }
  - { offsetInCU: 0x1EFF7, offset: 0x36458, size: 0x8, addend: 0x0, symName: __ZNSt3__16chrono8durationIdNS_5ratioILl1ELl1000000000EEEEC2B8ue170006IdNS2_ILl1ELl1EEEEERKNS1_IT_T0_EEPNS_9enable_ifIXaasr13__no_overflowIS8_S3_EE5valueooL_ZNS_17integral_constantIbLb1EE5valueEEaaeqsr13__no_overflowIS8_S3_E4typeE3denLi1Entsr23treat_as_floating_pointIS7_EE5valueEvE4typeE, symObjAddr: 0xC0FC, symBinAddr: 0x10000D634, symSize: 0x48 }
  - { offsetInCU: 0x1F04E, offset: 0x364AF, size: 0x8, addend: 0x0, symName: __ZNSt3__16chrono15duration_valuesIxE3maxB8ue170006Ev, symObjAddr: 0xC1C0, symBinAddr: 0x10000D6F8, symSize: 0x14 }
  - { offsetInCU: 0x1F062, offset: 0x364C3, size: 0x8, addend: 0x0, symName: __ZNSt3__114numeric_limitsIxE3maxB8ue170006Ev, symObjAddr: 0xC1D4, symBinAddr: 0x10000D70C, symSize: 0x14 }
  - { offsetInCU: 0x1F076, offset: 0x364D7, size: 0x8, addend: 0x0, symName: __ZNSt3__123__libcpp_numeric_limitsIxLb1EE3maxB8ue170006Ev, symObjAddr: 0xC1E8, symBinAddr: 0x10000D720, symSize: 0x8 }
  - { offsetInCU: 0x1F08A, offset: 0x364EB, size: 0x8, addend: 0x0, symName: __ZNSt3__112__hash_tableINS_17__hash_value_typeINS_12basic_stringIcNS_11char_traitsIcEENS_9allocatorIcEEEEP6TraderEENS_22__unordered_map_hasherIS7_SA_NS_4hashIS7_EENS_8equal_toIS7_EELb1EEENS_21__unordered_map_equalIS7_SA_SF_SD_Lb1EEENS5_ISA_EEE5beginEv, symObjAddr: 0xC1F0, symBinAddr: 0x10000D728, symSize: 0x38 }
  - { offsetInCU: 0x1F0B2, offset: 0x36513, size: 0x8, addend: 0x0, symName: __ZNSt3__119__hash_map_iteratorINS_15__hash_iteratorIPNS_11__hash_nodeINS_17__hash_value_typeINS_12basic_stringIcNS_11char_traitsIcEENS_9allocatorIcEEEEP6TraderEEPvEEEEEC1B8ue170006ESG_, symObjAddr: 0xC228, symBinAddr: 0x10000D760, symSize: 0x34 }
  - { offsetInCU: 0x1F0EB, offset: 0x3654C, size: 0x8, addend: 0x0, symName: __ZNSt3__119__hash_map_iteratorINS_15__hash_iteratorIPNS_11__hash_nodeINS_17__hash_value_typeINS_12basic_stringIcNS_11char_traitsIcEENS_9allocatorIcEEEEP6TraderEEPvEEEEEC2B8ue170006ESG_, symObjAddr: 0xC25C, symBinAddr: 0x10000D794, symSize: 0x20 }
  - { offsetInCU: 0x1F124, offset: 0x36585, size: 0x8, addend: 0x0, symName: __ZNSt3__112__hash_tableINS_17__hash_value_typeINS_12basic_stringIcNS_11char_traitsIcEENS_9allocatorIcEEEEP6TraderEENS_22__unordered_map_hasherIS7_SA_NS_4hashIS7_EENS_8equal_toIS7_EELb1EEENS_21__unordered_map_equalIS7_SA_SF_SD_Lb1EEENS5_ISA_EEE3endEv, symObjAddr: 0xC27C, symBinAddr: 0x10000D7B4, symSize: 0x2C }
  - { offsetInCU: 0x1F14C, offset: 0x365AD, size: 0x8, addend: 0x0, symName: __ZNSt3__115__hash_iteratorIPNS_11__hash_nodeINS_17__hash_value_typeINS_12basic_stringIcNS_11char_traitsIcEENS_9allocatorIcEEEEP6TraderEEPvEEEppB8ue170006Ev, symObjAddr: 0xC30C, symBinAddr: 0x10000D844, symSize: 0x20 }
  - { offsetInCU: 0x1F172, offset: 0x365D3, size: 0x8, addend: 0x0, symName: __ZNSt3__16vectorINS_12basic_stringIcNS_11char_traitsIcEENS_9allocatorIcEEEENS4_IS6_EEE11__make_iterB8ue170006EPS6_, symObjAddr: 0xC32C, symBinAddr: 0x10000D864, symSize: 0x30 }
  - { offsetInCU: 0x1F1A7, offset: 0x36608, size: 0x8, addend: 0x0, symName: __ZNSt3__111__wrap_iterIPNS_12basic_stringIcNS_11char_traitsIcEENS_9allocatorIcEEEEEC1B8ue170006ES7_, symObjAddr: 0xC35C, symBinAddr: 0x10000D894, symSize: 0x34 }
  - { offsetInCU: 0x1F1DF, offset: 0x36640, size: 0x8, addend: 0x0, symName: __ZNSt3__111__wrap_iterIPNS_12basic_stringIcNS_11char_traitsIcEENS_9allocatorIcEEEEEC2B8ue170006ES7_, symObjAddr: 0xC390, symBinAddr: 0x10000D8C8, symSize: 0x20 }
  - { offsetInCU: 0xE255, offset: 0x44B80, size: 0x8, addend: 0x0, symName: __ZNSt3__117__floyd_sift_downB8ue170006INS_17_ClassicAlgPolicyER18BuyOrderComparatorNS_11__wrap_iterIP5OrderEEEET1_S8_OT0_NS_15iterator_traitsIS8_E15difference_typeE, symObjAddr: 0xF268, symBinAddr: 0x100018A5C, symSize: 0x148 }
  - { offsetInCU: 0xE322, offset: 0x44C4D, size: 0x8, addend: 0x0, symName: __ZNSt3__117__floyd_sift_downB8ue170006INS_17_ClassicAlgPolicyER19SellOrderComparatorNS_11__wrap_iterIP5OrderEEEET1_S8_OT0_NS_15iterator_traitsIS8_E15difference_typeE, symObjAddr: 0xFC74, symBinAddr: 0x100019368, symSize: 0x148 }
  - { offsetInCU: 0x118B1, offset: 0x481DC, size: 0x8, addend: 0x0, symName: __ZNSt3__17reverseB8ue170006INS_11__wrap_iterIP5OrderEEEEvT_S5_, symObjAddr: 0xE90, symBinAddr: 0x10000E5FC, symSize: 0x3C }
  - { offsetInCU: 0x118F1, offset: 0x4821C, size: 0x8, addend: 0x0, symName: __ZNSt3__13minB8ue170006IiEERKT_S3_S3_, symObjAddr: 0x19B4, symBinAddr: 0x10000EF5C, symSize: 0x2C }
  - { offsetInCU: 0x11934, offset: 0x4825F, size: 0x8, addend: 0x0, symName: __ZNSt3__1neB8ue170006ERKNS_19__hash_map_iteratorINS_15__hash_iteratorIPNS_11__hash_nodeINS_17__hash_value_typeINS_12basic_stringIcNS_11char_traitsIcEENS_9allocatorIcEEEEdEEPvEEEEEESH_, symObjAddr: 0x1CF4, symBinAddr: 0x10000F21C, symSize: 0x30 }
  - { offsetInCU: 0x11971, offset: 0x4829C, size: 0x8, addend: 0x0, symName: __ZNSt3__13minB8ue170006IiNS_6__lessIvvEEEERKT_S5_S5_T0_, symObjAddr: 0x205C, symBinAddr: 0x10000F524, symSize: 0x54 }
  - { offsetInCU: 0x11A74, offset: 0x4839F, size: 0x8, addend: 0x0, symName: __ZNSt3__17launderB8ue170006INS_4pairIKNS_12basic_stringIcNS_11char_traitsIcEENS_9allocatorIcEEEENS_14priority_queueI5OrderNS_6vectorISA_NS5_ISA_EEEE18BuyOrderComparatorEEEEEEPT_SI_, symObjAddr: 0x3E80, symBinAddr: 0x100010BA0, symSize: 0x24 }
  - { offsetInCU: 0x11AAB, offset: 0x483D6, size: 0x8, addend: 0x0, symName: __ZNSt3__19__launderB8ue170006INS_4pairIKNS_12basic_stringIcNS_11char_traitsIcEENS_9allocatorIcEEEENS_14priority_queueI5OrderNS_6vectorISA_NS5_ISA_EEEE18BuyOrderComparatorEEEEEEPT_SI_, symObjAddr: 0x3EA4, symBinAddr: 0x100010BC4, symSize: 0x14 }
  - { offsetInCU: 0x11B15, offset: 0x48440, size: 0x8, addend: 0x0, symName: __ZNSt3__17launderB8ue170006INS_4pairIKNS_12basic_stringIcNS_11char_traitsIcEENS_9allocatorIcEEEENS_14priority_queueI5OrderNS_6vectorISA_NS5_ISA_EEEE19SellOrderComparatorEEEEEEPT_SI_, symObjAddr: 0x4604, symBinAddr: 0x1000111E8, symSize: 0x24 }
  - { offsetInCU: 0x11B4C, offset: 0x48477, size: 0x8, addend: 0x0, symName: __ZNSt3__19__launderB8ue170006INS_4pairIKNS_12basic_stringIcNS_11char_traitsIcEENS_9allocatorIcEEEENS_14priority_queueI5OrderNS_6vectorISA_NS5_ISA_EEEE19SellOrderComparatorEEEEEEPT_SI_, symObjAddr: 0x4628, symBinAddr: 0x10001120C, symSize: 0x14 }
  - { offsetInCU: 0x11BB6, offset: 0x484E1, size: 0x8, addend: 0x0, symName: __ZNSt3__17launderB8ue170006INS_4pairIKNS_12basic_stringIcNS_11char_traitsIcEENS_9allocatorIcEEEEdEEEEPT_SB_, symObjAddr: 0x4BE8, symBinAddr: 0x1000117CC, symSize: 0x24 }
  - { offsetInCU: 0x11BED, offset: 0x48518, size: 0x8, addend: 0x0, symName: __ZNSt3__19__launderB8ue170006INS_4pairIKNS_12basic_stringIcNS_11char_traitsIcEENS_9allocatorIcEEEEdEEEEPT_SB_, symObjAddr: 0x4C0C, symBinAddr: 0x1000117F0, symSize: 0x14 }
  - { offsetInCU: 0x11C24, offset: 0x4854F, size: 0x8, addend: 0x0, symName: __ZNSt3__17launderB8ue170006IKNS_4pairIKNS_12basic_stringIcNS_11char_traitsIcEENS_9allocatorIcEEEEdEEEEPT_SC_, symObjAddr: 0x78E0, symBinAddr: 0x1000125C4, symSize: 0x24 }
  - { offsetInCU: 0x11C5B, offset: 0x48586, size: 0x8, addend: 0x0, symName: __ZNSt3__19__launderB8ue170006IKNS_4pairIKNS_12basic_stringIcNS_11char_traitsIcEENS_9allocatorIcEEEEdEEEEPT_SC_, symObjAddr: 0x7904, symBinAddr: 0x1000125E8, symSize: 0x14 }
  - { offsetInCU: 0x11CE3, offset: 0x4860E, size: 0x8, addend: 0x0, symName: __ZNSt3__17launderB8ue170006IKNS_4pairIKNS_12basic_stringIcNS_11char_traitsIcEENS_9allocatorIcEEEENS_14priority_queueI5OrderNS_6vectorISA_NS5_ISA_EEEE18BuyOrderComparatorEEEEEEPT_SJ_, symObjAddr: 0x9340, symBinAddr: 0x100013CF0, symSize: 0x24 }
  - { offsetInCU: 0x11D1A, offset: 0x48645, size: 0x8, addend: 0x0, symName: __ZNSt3__19__launderB8ue170006IKNS_4pairIKNS_12basic_stringIcNS_11char_traitsIcEENS_9allocatorIcEEEENS_14priority_queueI5OrderNS_6vectorISA_NS5_ISA_EEEE18BuyOrderComparatorEEEEEEPT_SJ_, symObjAddr: 0x9364, symBinAddr: 0x100013D14, symSize: 0x14 }
  - { offsetInCU: 0x11DA2, offset: 0x486CD, size: 0x8, addend: 0x0, symName: __ZNSt3__112__to_addressB8ue170006I5OrderEEPT_S3_, symObjAddr: 0xA350, symBinAddr: 0x100014D00, symSize: 0x14 }
  - { offsetInCU: 0x11DD7, offset: 0x48702, size: 0x8, addend: 0x0, symName: __ZNSt3__17launderB8ue170006IKNS_4pairIKNS_12basic_stringIcNS_11char_traitsIcEENS_9allocatorIcEEEENS_14priority_queueI5OrderNS_6vectorISA_NS5_ISA_EEEE19SellOrderComparatorEEEEEEPT_SJ_, symObjAddr: 0xB2D8, symBinAddr: 0x100015C88, symSize: 0x24 }
  - { offsetInCU: 0x11E0E, offset: 0x48739, size: 0x8, addend: 0x0, symName: __ZNSt3__19__launderB8ue170006IKNS_4pairIKNS_12basic_stringIcNS_11char_traitsIcEENS_9allocatorIcEEEENS_14priority_queueI5OrderNS_6vectorISA_NS5_ISA_EEEE19SellOrderComparatorEEEEEEPT_SJ_, symObjAddr: 0xB2FC, symBinAddr: 0x100015CAC, symSize: 0x14 }
  - { offsetInCU: 0x11E96, offset: 0x487C1, size: 0x8, addend: 0x0, symName: __ZNSt3__116forward_as_tupleB8ue170006IJNS_12basic_stringIcNS_11char_traitsIcEENS_9allocatorIcEEEEEEENS_5tupleIJDpOT_EEESA_, symObjAddr: 0xC43C, symBinAddr: 0x100016DEC, symSize: 0x2C }
  - { offsetInCU: 0x11ECF, offset: 0x487FA, size: 0x8, addend: 0x0, symName: __ZNSt3__13getB8ue170006ILm0EJONS_12basic_stringIcNS_11char_traitsIcEENS_9allocatorIcEEEEEEERNS_13tuple_elementIXT_ENS_5tupleIJDpT0_EEEE4typeERSC_, symObjAddr: 0xCEA8, symBinAddr: 0x1000170B8, symSize: 0x24 }
  - { offsetInCU: 0x11F27, offset: 0x48852, size: 0x8, addend: 0x0, symName: __ZNSt3__119__allocate_at_leastB8ue170006INS_9allocatorI5OrderEEEENS_19__allocation_resultINS_16allocator_traitsIT_E7pointerEEERS6_m, symObjAddr: 0xE2E4, symBinAddr: 0x100017AD8, symSize: 0x40 }
  - { offsetInCU: 0x11F6A, offset: 0x48895, size: 0x8, addend: 0x0, symName: __ZNSt3__142__uninitialized_allocator_move_if_noexceptB8ue170006INS_9allocatorI5OrderEENS_16reverse_iteratorIPS2_EES6_S6_EET2_RT_T0_T1_S7_, symObjAddr: 0xE49C, symBinAddr: 0x100017C90, symSize: 0x12C }
  - { offsetInCU: 0x1200A, offset: 0x48935, size: 0x8, addend: 0x0, symName: __ZNSt3__14swapB8ue170006IP5OrderEENS_9enable_ifIXaasr21is_move_constructibleIT_EE5valuesr18is_move_assignableIS4_EE5valueEvE4typeERS4_S7_, symObjAddr: 0xE614, symBinAddr: 0x100017E08, symSize: 0x3C }
  - { offsetInCU: 0x1205C, offset: 0x48987, size: 0x8, addend: 0x0, symName: __ZNSt3__122__make_exception_guardB8ue170006INS_29_AllocatorDestroyRangeReverseINS_9allocatorI5OrderEENS_16reverse_iteratorIPS3_EEEEEENS_28__exception_guard_exceptionsIT_EESA_, symObjAddr: 0xE718, symBinAddr: 0x100017F0C, symSize: 0x4C }
  - { offsetInCU: 0x12092, offset: 0x489BD, size: 0x8, addend: 0x0, symName: __ZNSt3__1neB8ue170006IP5OrderS2_EEbRKNS_16reverse_iteratorIT_EERKNS3_IT0_EE, symObjAddr: 0xE7A8, symBinAddr: 0x100017F9C, symSize: 0x48 }
  - { offsetInCU: 0x120DE, offset: 0x48A09, size: 0x8, addend: 0x0, symName: __ZNSt3__112__to_addressB8ue170006INS_16reverse_iteratorIP5OrderEEvEEu7__decayIDTclsr19__to_address_helperIT_EE6__callclsr3stdE7declvalIRKS5_EEEEES7_, symObjAddr: 0xE824, symBinAddr: 0x100018018, symSize: 0x24 }
  - { offsetInCU: 0x1213D, offset: 0x48A68, size: 0x8, addend: 0x0, symName: __ZNSt3__119__allocator_destroyB8ue170006INS_9allocatorI5OrderEENS_16reverse_iteratorINS4_IPS2_EEEES7_EEvRT_T0_T1_, symObjAddr: 0xEBA8, symBinAddr: 0x10001839C, symSize: 0x70 }
  - { offsetInCU: 0x121A2, offset: 0x48ACD, size: 0x8, addend: 0x0, symName: __ZNSt3__1neB8ue170006INS_16reverse_iteratorIP5OrderEES4_EEbRKNS1_IT_EERKNS1_IT0_EE, symObjAddr: 0xEC54, symBinAddr: 0x100018448, symSize: 0x60 }
  - { offsetInCU: 0x121EE, offset: 0x48B19, size: 0x8, addend: 0x0, symName: __ZNSt3__112__to_addressB8ue170006INS_16reverse_iteratorINS1_IP5OrderEEEEvEEu7__decayIDTclsr19__to_address_helperIT_EE6__callclsr3stdE7declvalIRKS6_EEEEES8_, symObjAddr: 0xECB4, symBinAddr: 0x1000184A8, symSize: 0x24 }
  - { offsetInCU: 0x1224D, offset: 0x48B78, size: 0x8, addend: 0x0, symName: __ZNSt3__18pop_heapB8ue170006INS_11__wrap_iterIP5OrderEE18BuyOrderComparatorEEvT_S6_T0_, symObjAddr: 0xF01C, symBinAddr: 0x100018810, symSize: 0x58 }
  - { offsetInCU: 0x122B3, offset: 0x48BDE, size: 0x8, addend: 0x0, symName: __ZNSt3__1miB8ue170006IP5OrderS2_EEDTmicldtfp_4baseEcldtfp0_4baseEERKNS_11__wrap_iterIT_EERKNS4_IT0_EE, symObjAddr: 0xF074, symBinAddr: 0x100018868, symSize: 0x48 }
  - { offsetInCU: 0x122FF, offset: 0x48C2A, size: 0x8, addend: 0x0, symName: __ZNSt3__110__pop_heapB8ue170006INS_17_ClassicAlgPolicyE18BuyOrderComparatorNS_11__wrap_iterIP5OrderEEEEvT1_S7_RT0_NS_15iterator_traitsIS7_E15difference_typeE, symObjAddr: 0xF0BC, symBinAddr: 0x1000188B0, symSize: 0x16C }
  - { offsetInCU: 0x12440, offset: 0x48D6B, size: 0x8, addend: 0x0, symName: __ZNSt3__1eqB8ue170006IP5OrderEEbRKNS_11__wrap_iterIT_EES7_, symObjAddr: 0xF3D0, symBinAddr: 0x100018BC4, symSize: 0x48 }
  - { offsetInCU: 0x12483, offset: 0x48DAE, size: 0x8, addend: 0x0, symName: __ZNSt3__19__sift_upB8ue170006INS_17_ClassicAlgPolicyER18BuyOrderComparatorNS_11__wrap_iterIP5OrderEEEEvT1_S8_OT0_NS_15iterator_traitsIS8_E15difference_typeE, symObjAddr: 0xF4C0, symBinAddr: 0x100018CB4, symSize: 0x190 }
  - { offsetInCU: 0x12529, offset: 0x48E54, size: 0x8, addend: 0x0, symName: __ZNSt3__18pop_heapB8ue170006INS_11__wrap_iterIP5OrderEE19SellOrderComparatorEEvT_S6_T0_, symObjAddr: 0xFAB0, symBinAddr: 0x1000191A4, symSize: 0x58 }
  - { offsetInCU: 0x1258F, offset: 0x48EBA, size: 0x8, addend: 0x0, symName: __ZNSt3__110__pop_heapB8ue170006INS_17_ClassicAlgPolicyE19SellOrderComparatorNS_11__wrap_iterIP5OrderEEEEvT1_S7_RT0_NS_15iterator_traitsIS7_E15difference_typeE, symObjAddr: 0xFB08, symBinAddr: 0x1000191FC, symSize: 0x16C }
  - { offsetInCU: 0x1263E, offset: 0x48F69, size: 0x8, addend: 0x0, symName: __ZNSt3__19__sift_upB8ue170006INS_17_ClassicAlgPolicyER19SellOrderComparatorNS_11__wrap_iterIP5OrderEEEEvT1_S8_OT0_NS_15iterator_traitsIS8_E15difference_typeE, symObjAddr: 0xFDBC, symBinAddr: 0x1000194B0, symSize: 0x190 }
  - { offsetInCU: 0x126E4, offset: 0x4900F, size: 0x8, addend: 0x0, symName: __ZNSt3__19__reverseB8ue170006INS_17_ClassicAlgPolicyENS_11__wrap_iterIP5OrderEES5_EEvT0_T1_, symObjAddr: 0x10060, symBinAddr: 0x100019754, symSize: 0x3C }
  - { offsetInCU: 0x12736, offset: 0x49061, size: 0x8, addend: 0x0, symName: __ZNSt3__114__reverse_implB8ue170006INS_17_ClassicAlgPolicyENS_11__wrap_iterIP5OrderEEEEvT0_S6_NS_26random_access_iterator_tagE, symObjAddr: 0x1009C, symBinAddr: 0x100019790, symSize: 0x7C }
  - { offsetInCU: 0x1278A, offset: 0x490B5, size: 0x8, addend: 0x0, symName: __ZNSt3__1neB8ue170006IP5OrderEEbRKNS_11__wrap_iterIT_EES7_, symObjAddr: 0x10118, symBinAddr: 0x10001980C, symSize: 0x34 }
  - { offsetInCU: 0x127CD, offset: 0x490F8, size: 0x8, addend: 0x0, symName: __ZNSt3__1ltB8ue170006IP5OrderEEbRKNS_11__wrap_iterIT_EES7_, symObjAddr: 0x1014C, symBinAddr: 0x100019840, symSize: 0x48 }
  - { offsetInCU: 0x12810, offset: 0x4913B, size: 0x8, addend: 0x0, symName: __ZNSt3__19iter_swapB8ue170006INS_11__wrap_iterIP5OrderEES4_EEvT_T0_, symObjAddr: 0x101D8, symBinAddr: 0x1000198CC, symSize: 0x50 }
  - { offsetInCU: 0x12859, offset: 0x49184, size: 0x8, addend: 0x0, symName: __ZNSt3__14swapB8ue170006I5OrderEENS_9enable_ifIXaasr21is_move_constructibleIT_EE5valuesr18is_move_assignableIS3_EE5valueEvE4typeERS3_S6_, symObjAddr: 0x10228, symBinAddr: 0x10001991C, symSize: 0x50 }
  - { offsetInCU: 0x128AB, offset: 0x491D6, size: 0x8, addend: 0x0, symName: __ZNSt3__122__make_exception_guardB8ue170006INS_6vectorI5OrderNS_9allocatorIS2_EEE16__destroy_vectorEEENS_28__exception_guard_exceptionsIT_EES8_, symObjAddr: 0x1046C, symBinAddr: 0x100019B60, symSize: 0x40 }
  - { offsetInCU: 0x128E0, offset: 0x4920B, size: 0x8, addend: 0x0, symName: __ZNSt3__130__uninitialized_allocator_copyB8ue170006INS_9allocatorI5OrderEEPS2_S4_S4_EET2_RT_T0_T1_S5_, symObjAddr: 0x1068C, symBinAddr: 0x100019D80, symSize: 0x80 }
  - { offsetInCU: 0x1297D, offset: 0x492A8, size: 0x8, addend: 0x0, symName: __ZNSt3__114__unwrap_rangeB8ue170006IP5OrderS2_EENS_4pairIT0_S4_EET_S6_, symObjAddr: 0x1070C, symBinAddr: 0x100019E00, symSize: 0x60 }
  - { offsetInCU: 0x129C9, offset: 0x492F4, size: 0x8, addend: 0x0, symName: __ZNSt3__135__uninitialized_allocator_copy_implB8ue170006INS_9allocatorI5OrderEEPS2_S4_S4_EET2_RT_T0_T1_S5_, symObjAddr: 0x1076C, symBinAddr: 0x100019E60, symSize: 0xF4 }
  - { offsetInCU: 0x12A67, offset: 0x49392, size: 0x8, addend: 0x0, symName: __ZNSt3__113__unwrap_iterB8ue170006IP5OrderNS_18__unwrap_iter_implIS2_Lb1EEELi0EEEDTclsrT0_8__unwrapclsr3stdE7declvalIT_EEEES6_, symObjAddr: 0x10860, symBinAddr: 0x100019F54, symSize: 0x24 }
  - { offsetInCU: 0x12AAB, offset: 0x493D6, size: 0x8, addend: 0x0, symName: __ZNSt3__113__rewrap_iterB8ue170006IP5OrderS2_NS_18__unwrap_iter_implIS2_Lb1EEEEET_S5_T0_, symObjAddr: 0x10884, symBinAddr: 0x100019F78, symSize: 0x3C }
  - { offsetInCU: 0x12B00, offset: 0x4942B, size: 0x8, addend: 0x0, symName: __ZNSt3__19make_pairB8ue170006IP5OrderS2_EENS_4pairINS_18__unwrap_ref_decayIT_E4typeENS4_IT0_E4typeEEEOS5_OS8_, symObjAddr: 0x108C0, symBinAddr: 0x100019FB4, symSize: 0x38 }
  - { offsetInCU: 0x12C23, offset: 0x4954E, size: 0x8, addend: 0x0, symName: __ZNSt3__122__make_exception_guardB8ue170006INS_29_AllocatorDestroyRangeReverseINS_9allocatorI5OrderEEPS3_EEEENS_28__exception_guard_exceptionsIT_EES8_, symObjAddr: 0x10968, symBinAddr: 0x10001A05C, symSize: 0x4C }
  - { offsetInCU: 0x12C59, offset: 0x49584, size: 0x8, addend: 0x0, symName: __ZNSt3__119__allocator_destroyB8ue170006INS_9allocatorI5OrderEENS_16reverse_iteratorIPS2_EES6_EEvRT_T0_T1_, symObjAddr: 0x10BF8, symBinAddr: 0x10001A2EC, symSize: 0x70 }
  - { offsetInCU: 0x12D0F, offset: 0x4963A, size: 0x8, addend: 0x0, symName: __ZNSt3__19push_heapB8ue170006INS_11__wrap_iterIP5OrderEE18BuyOrderComparatorEEvT_S6_T0_, symObjAddr: 0x10D84, symBinAddr: 0x10001A420, symSize: 0x40 }
  - { offsetInCU: 0x12D66, offset: 0x49691, size: 0x8, addend: 0x0, symName: __ZNSt3__111__push_heapB8ue170006INS_17_ClassicAlgPolicyENS_11__wrap_iterIP5OrderEE18BuyOrderComparatorEEvT0_S7_RT1_, symObjAddr: 0x10DC4, symBinAddr: 0x10001A460, symSize: 0x5C }
  - { offsetInCU: 0x12DD5, offset: 0x49700, size: 0x8, addend: 0x0, symName: __ZNSt3__19push_heapB8ue170006INS_11__wrap_iterIP5OrderEE19SellOrderComparatorEEvT_S6_T0_, symObjAddr: 0x10E20, symBinAddr: 0x10001A4BC, symSize: 0x40 }
  - { offsetInCU: 0x12E2C, offset: 0x49757, size: 0x8, addend: 0x0, symName: __ZNSt3__111__push_heapB8ue170006INS_17_ClassicAlgPolicyENS_11__wrap_iterIP5OrderEE19SellOrderComparatorEEvT0_S7_RT1_, symObjAddr: 0x10E60, symBinAddr: 0x10001A4FC, symSize: 0x5C }
  - { offsetInCU: 0x12E9B, offset: 0x497C6, size: 0x8, addend: 0x0, symName: __ZNSt3__1neB8ue170006ERKNS_15__hash_iteratorIPNS_11__hash_nodeINS_17__hash_value_typeINS_12basic_stringIcNS_11char_traitsIcEENS_9allocatorIcEEEEdEEPvEEEESF_, symObjAddr: 0x120BC, symBinAddr: 0x10001A65C, symSize: 0x34 }
  - { offsetInCU: 0x12ED8, offset: 0x49803, size: 0x8, addend: 0x0, symName: __ZNSt3__1eqB8ue170006ERKNS_15__hash_iteratorIPNS_11__hash_nodeINS_17__hash_value_typeINS_12basic_stringIcNS_11char_traitsIcEENS_9allocatorIcEEEEdEEPvEEEESF_, symObjAddr: 0x120F0, symBinAddr: 0x10001A690, symSize: 0x30 }
  - { offsetInCU: 0x144E4, offset: 0x4AE0F, size: 0x8, addend: 0x0, symName: __ZNSt3__16vectorI5OrderNS_9allocatorIS1_EEE26__swap_out_circular_bufferERNS_14__split_bufferIS1_RS3_EE, symObjAddr: 0xDDF4, symBinAddr: 0x100017768, symSize: 0x110 }
  - { offsetInCU: 0x1679D, offset: 0x4D0C8, size: 0x8, addend: 0x0, symName: __ZN13StockExchangeC2EddRNSt3__16vectorINS0_12basic_stringIcNS0_11char_traitsIcEENS0_9allocatorIcEEEENS5_IS7_EEEEP12OrderManager, symObjAddr: 0x0, symBinAddr: 0x10000D8E8, symSize: 0x240 }
  - { offsetInCU: 0x16850, offset: 0x4D17B, size: 0x8, addend: 0x0, symName: __ZNSt3__113unordered_mapINS_12basic_stringIcNS_11char_traitsIcEENS_9allocatorIcEEEENS_14priority_queueI5OrderNS_6vectorIS8_NS4_IS8_EEEE18BuyOrderComparatorEENS_4hashIS6_EENS_8equal_toIS6_EENS4_INS_4pairIKS6_SD_EEEEEC1B8ue170006Ev, symObjAddr: 0x240, symBinAddr: 0x10000DB28, symSize: 0x2C }
  - { offsetInCU: 0x1687A, offset: 0x4D1A5, size: 0x8, addend: 0x0, symName: __ZNSt3__113unordered_mapINS_12basic_stringIcNS_11char_traitsIcEENS_9allocatorIcEEEENS_14priority_queueI5OrderNS_6vectorIS8_NS4_IS8_EEEE19SellOrderComparatorEENS_4hashIS6_EENS_8equal_toIS6_EENS4_INS_4pairIKS6_SD_EEEEEC1B8ue170006Ev, symObjAddr: 0x26C, symBinAddr: 0x10000DB54, symSize: 0x2C }
  - { offsetInCU: 0x168A4, offset: 0x4D1CF, size: 0x8, addend: 0x0, symName: __ZNSt3__113unordered_mapINS_12basic_stringIcNS_11char_traitsIcEENS_9allocatorIcEEEEdNS_4hashIS6_EENS_8equal_toIS6_EENS4_INS_4pairIKS6_dEEEEEC1B8ue170006Ev, symObjAddr: 0x298, symBinAddr: 0x10000DB80, symSize: 0x2C }
  - { offsetInCU: 0x168CE, offset: 0x4D1F9, size: 0x8, addend: 0x0, symName: __ZNSt3__113unordered_mapINS_12basic_stringIcNS_11char_traitsIcEENS_9allocatorIcEEEEdNS_4hashIS6_EENS_8equal_toIS6_EENS4_INS_4pairIKS6_dEEEEEixERSC_, symObjAddr: 0x3C8, symBinAddr: 0x10000DBAC, symSize: 0x80 }
  - { offsetInCU: 0x16905, offset: 0x4D230, size: 0x8, addend: 0x0, symName: __ZNSt3__114priority_queueI5OrderNS_6vectorIS1_NS_9allocatorIS1_EEEE18BuyOrderComparatorEC1B8ue170006Ev, symObjAddr: 0x448, symBinAddr: 0x10000DC2C, symSize: 0x2C }
  - { offsetInCU: 0x1692F, offset: 0x4D25A, size: 0x8, addend: 0x0, symName: __ZNSt3__113unordered_mapINS_12basic_stringIcNS_11char_traitsIcEENS_9allocatorIcEEEENS_14priority_queueI5OrderNS_6vectorIS8_NS4_IS8_EEEE18BuyOrderComparatorEENS_4hashIS6_EENS_8equal_toIS6_EENS4_INS_4pairIKS6_SD_EEEEEixERSJ_, symObjAddr: 0x474, symBinAddr: 0x10000DC58, symSize: 0x80 }
  - { offsetInCU: 0x16966, offset: 0x4D291, size: 0x8, addend: 0x0, symName: __ZNSt3__114priority_queueI5OrderNS_6vectorIS1_NS_9allocatorIS1_EEEE18BuyOrderComparatorEaSB8ue170006EOS7_, symObjAddr: 0x4F4, symBinAddr: 0x10000DCD8, symSize: 0x34 }
  - { offsetInCU: 0x1699B, offset: 0x4D2C6, size: 0x8, addend: 0x0, symName: __ZNSt3__114priority_queueI5OrderNS_6vectorIS1_NS_9allocatorIS1_EEEE18BuyOrderComparatorED1Ev, symObjAddr: 0x528, symBinAddr: 0x10000DD0C, symSize: 0x2C }
  - { offsetInCU: 0x169C8, offset: 0x4D2F3, size: 0x8, addend: 0x0, symName: __ZNSt3__114priority_queueI5OrderNS_6vectorIS1_NS_9allocatorIS1_EEEE19SellOrderComparatorEC1B8ue170006Ev, symObjAddr: 0x554, symBinAddr: 0x10000DD38, symSize: 0x2C }
  - { offsetInCU: 0x169F2, offset: 0x4D31D, size: 0x8, addend: 0x0, symName: __ZNSt3__113unordered_mapINS_12basic_stringIcNS_11char_traitsIcEENS_9allocatorIcEEEENS_14priority_queueI5OrderNS_6vectorIS8_NS4_IS8_EEEE19SellOrderComparatorEENS_4hashIS6_EENS_8equal_toIS6_EENS4_INS_4pairIKS6_SD_EEEEEixERSJ_, symObjAddr: 0x580, symBinAddr: 0x10000DD64, symSize: 0x80 }
  - { offsetInCU: 0x16A29, offset: 0x4D354, size: 0x8, addend: 0x0, symName: __ZNSt3__114priority_queueI5OrderNS_6vectorIS1_NS_9allocatorIS1_EEEE19SellOrderComparatorEaSB8ue170006EOS7_, symObjAddr: 0x600, symBinAddr: 0x10000DDE4, symSize: 0x34 }
  - { offsetInCU: 0x16A5E, offset: 0x4D389, size: 0x8, addend: 0x0, symName: __ZNSt3__114priority_queueI5OrderNS_6vectorIS1_NS_9allocatorIS1_EEEE19SellOrderComparatorED1Ev, symObjAddr: 0x634, symBinAddr: 0x10000DE18, symSize: 0x2C }
  - { offsetInCU: 0x16A8B, offset: 0x4D3B6, size: 0x8, addend: 0x0, symName: __ZNSt3__113unordered_mapINS_12basic_stringIcNS_11char_traitsIcEENS_9allocatorIcEEEEdNS_4hashIS6_EENS_8equal_toIS6_EENS4_INS_4pairIKS6_dEEEEED1B8ue170006Ev, symObjAddr: 0x6D8, symBinAddr: 0x10000DE44, symSize: 0x2C }
  - { offsetInCU: 0x16AB5, offset: 0x4D3E0, size: 0x8, addend: 0x0, symName: __ZNSt3__113unordered_mapINS_12basic_stringIcNS_11char_traitsIcEENS_9allocatorIcEEEENS_14priority_queueI5OrderNS_6vectorIS8_NS4_IS8_EEEE19SellOrderComparatorEENS_4hashIS6_EENS_8equal_toIS6_EENS4_INS_4pairIKS6_SD_EEEEED1B8ue170006Ev, symObjAddr: 0x704, symBinAddr: 0x10000DE70, symSize: 0x2C }
  - { offsetInCU: 0x16ADF, offset: 0x4D40A, size: 0x8, addend: 0x0, symName: __ZNSt3__113unordered_mapINS_12basic_stringIcNS_11char_traitsIcEENS_9allocatorIcEEEENS_14priority_queueI5OrderNS_6vectorIS8_NS4_IS8_EEEE18BuyOrderComparatorEENS_4hashIS6_EENS_8equal_toIS6_EENS4_INS_4pairIKS6_SD_EEEEED1B8ue170006Ev, symObjAddr: 0x730, symBinAddr: 0x10000DE9C, symSize: 0x2C }
  - { offsetInCU: 0x16B09, offset: 0x4D434, size: 0x8, addend: 0x0, symName: __ZN13StockExchangeC1EddRNSt3__16vectorINS0_12basic_stringIcNS0_11char_traitsIcEENS0_9allocatorIcEEEENS5_IS7_EEEEP12OrderManager, symObjAddr: 0x75C, symBinAddr: 0x10000DEC8, symSize: 0x4C }
  - { offsetInCU: 0x16B6D, offset: 0x4D498, size: 0x8, addend: 0x0, symName: __ZN13StockExchange14registerTraderEP6Trader, symObjAddr: 0x7A8, symBinAddr: 0x10000DF14, symSize: 0x8C }
  - { offsetInCU: 0x16BA3, offset: 0x4D4CE, size: 0x8, addend: 0x0, symName: __ZNSt3__113unordered_mapINS_12basic_stringIcNS_11char_traitsIcEENS_9allocatorIcEEEEP6TraderNS_4hashIS6_EENS_8equal_toIS6_EENS4_INS_4pairIKS6_S8_EEEEEixEOS6_, symObjAddr: 0x834, symBinAddr: 0x10000DFA0, symSize: 0x80 }
  - { offsetInCU: 0x16BDA, offset: 0x4D505, size: 0x8, addend: 0x0, symName: __ZN13StockExchange16LastClosingPriceENSt3__112basic_stringIcNS0_11char_traitsIcEENS0_9allocatorIcEEEE, symObjAddr: 0x8B4, symBinAddr: 0x10000E020, symSize: 0x34 }
  - { offsetInCU: 0x16C11, offset: 0x4D53C, size: 0x8, addend: 0x0, symName: __ZN13StockExchange22CurrentBestBidandOfferENSt3__112basic_stringIcNS0_11char_traitsIcEENS0_9allocatorIcEEEE, symObjAddr: 0x8E8, symBinAddr: 0x10000E054, symSize: 0xCC }
  - { offsetInCU: 0x16C48, offset: 0x4D573, size: 0x8, addend: 0x0, symName: __ZNKSt3__114priority_queueI5OrderNS_6vectorIS1_NS_9allocatorIS1_EEEE18BuyOrderComparatorE5emptyB8ue170006Ev, symObjAddr: 0x9B4, symBinAddr: 0x10000E120, symSize: 0x28 }
  - { offsetInCU: 0x16C6E, offset: 0x4D599, size: 0x8, addend: 0x0, symName: __ZNKSt3__114priority_queueI5OrderNS_6vectorIS1_NS_9allocatorIS1_EEEE19SellOrderComparatorE5emptyB8ue170006Ev, symObjAddr: 0x9DC, symBinAddr: 0x10000E148, symSize: 0x28 }
  - { offsetInCU: 0x16C99, offset: 0x4D5C4, size: 0x8, addend: 0x0, symName: __ZNSt3__14pairIddEC1B8ue170006IddLPv0EEEOT_OT0_, symObjAddr: 0xA04, symBinAddr: 0x10000E170, symSize: 0x3C }
  - { offsetInCU: 0x16CF7, offset: 0x4D622, size: 0x8, addend: 0x0, symName: __ZNKSt3__114priority_queueI5OrderNS_6vectorIS1_NS_9allocatorIS1_EEEE18BuyOrderComparatorE3topB8ue170006Ev, symObjAddr: 0xA40, symBinAddr: 0x10000E1AC, symSize: 0x24 }
  - { offsetInCU: 0x16D1D, offset: 0x4D648, size: 0x8, addend: 0x0, symName: __ZNKSt3__114priority_queueI5OrderNS_6vectorIS1_NS_9allocatorIS1_EEEE19SellOrderComparatorE3topB8ue170006Ev, symObjAddr: 0xA64, symBinAddr: 0x10000E1D0, symSize: 0x24 }
  - { offsetInCU: 0x16D4D, offset: 0x4D678, size: 0x8, addend: 0x0, symName: __ZNSt3__14pairIddEC1B8ue170006ILb1ELPv0EEERKdS5_, symObjAddr: 0xA88, symBinAddr: 0x10000E1F4, symSize: 0x3C }
  - { offsetInCU: 0x16DA3, offset: 0x4D6CE, size: 0x8, addend: 0x0, symName: __ZN13StockExchange20Top5BuyandSellOrdersENSt3__112basic_stringIcNS0_11char_traitsIcEENS0_9allocatorIcEEEE, symObjAddr: 0xAC4, symBinAddr: 0x10000E230, symSize: 0x294 }
  - { offsetInCU: 0x16E17, offset: 0x4D742, size: 0x8, addend: 0x0, symName: __ZNSt3__16vectorI5OrderNS_9allocatorIS1_EEEC1B8ue170006Ev, symObjAddr: 0xD58, symBinAddr: 0x10000E4C4, symSize: 0x2C }
  - { offsetInCU: 0x16E41, offset: 0x4D76C, size: 0x8, addend: 0x0, symName: __ZNSt3__16vectorI5OrderNS_9allocatorIS1_EEE9push_backB8ue170006ERKS1_, symObjAddr: 0xD84, symBinAddr: 0x10000E4F0, symSize: 0x6C }
  - { offsetInCU: 0x16E78, offset: 0x4D7A3, size: 0x8, addend: 0x0, symName: __ZNSt3__114priority_queueI5OrderNS_6vectorIS1_NS_9allocatorIS1_EEEE18BuyOrderComparatorE3popEv, symObjAddr: 0xDF0, symBinAddr: 0x10000E55C, symSize: 0x50 }
  - { offsetInCU: 0x16EA0, offset: 0x4D7CB, size: 0x8, addend: 0x0, symName: __ZNSt3__114priority_queueI5OrderNS_6vectorIS1_NS_9allocatorIS1_EEEE19SellOrderComparatorE3popEv, symObjAddr: 0xE40, symBinAddr: 0x10000E5AC, symSize: 0x50 }
  - { offsetInCU: 0x16EC8, offset: 0x4D7F3, size: 0x8, addend: 0x0, symName: __ZNSt3__16vectorI5OrderNS_9allocatorIS1_EEE5beginB8ue170006Ev, symObjAddr: 0xECC, symBinAddr: 0x10000E638, symSize: 0x30 }
  - { offsetInCU: 0x16EF0, offset: 0x4D81B, size: 0x8, addend: 0x0, symName: __ZNSt3__16vectorI5OrderNS_9allocatorIS1_EEE3endB8ue170006Ev, symObjAddr: 0xEFC, symBinAddr: 0x10000E668, symSize: 0x30 }
  - { offsetInCU: 0x16F18, offset: 0x4D843, size: 0x8, addend: 0x0, symName: __ZN13StockExchange21cancelRemainingOrdersENSt3__112basic_stringIcNS0_11char_traitsIcEENS0_9allocatorIcEEEE, symObjAddr: 0xF2C, symBinAddr: 0x10000E698, symSize: 0x9C }
  - { offsetInCU: 0x16F4F, offset: 0x4D87A, size: 0x8, addend: 0x0, symName: __ZNSt3__14pairINS_6vectorI5OrderNS_9allocatorIS2_EEEES5_EC1B8ue170006IRS5_S8_LPv0EEEOT_OT0_, symObjAddr: 0xFC8, symBinAddr: 0x10000E734, symSize: 0x3C }
  - { offsetInCU: 0x16FAD, offset: 0x4D8D8, size: 0x8, addend: 0x0, symName: __ZNSt3__16vectorI5OrderNS_9allocatorIS1_EEED1B8ue170006Ev, symObjAddr: 0x1004, symBinAddr: 0x10000E770, symSize: 0x2C }
  - { offsetInCU: 0x16FD7, offset: 0x4D902, size: 0x8, addend: 0x0, symName: __ZN13StockExchange8addOrderE5Order, symObjAddr: 0x1030, symBinAddr: 0x10000E79C, symSize: 0xB4 }
  - { offsetInCU: 0x1700E, offset: 0x4D939, size: 0x8, addend: 0x0, symName: __ZNSt3__114priority_queueI5OrderNS_6vectorIS1_NS_9allocatorIS1_EEEE18BuyOrderComparatorE4pushERKS1_, symObjAddr: 0x1190, symBinAddr: 0x10000E850, symSize: 0x58 }
  - { offsetInCU: 0x17045, offset: 0x4D970, size: 0x8, addend: 0x0, symName: __ZNSt3__114priority_queueI5OrderNS_6vectorIS1_NS_9allocatorIS1_EEEE19SellOrderComparatorE4pushERKS1_, symObjAddr: 0x11E8, symBinAddr: 0x10000E8A8, symSize: 0x58 }
  - { offsetInCU: 0x1707C, offset: 0x4D9A7, size: 0x8, addend: 0x0, symName: __ZN13StockExchange14AcceptedOrdersENSt3__112basic_stringIcNS0_11char_traitsIcEENS0_9allocatorIcEEEE, symObjAddr: 0x1358, symBinAddr: 0x10000E900, symSize: 0x7C }
  - { offsetInCU: 0x170C3, offset: 0x4D9EE, size: 0x8, addend: 0x0, symName: __ZNSt3__14pairINS_6vectorI5OrderNS_9allocatorIS2_EEEES5_ED1Ev, symObjAddr: 0x13D4, symBinAddr: 0x10000E97C, symSize: 0x2C }
  - { offsetInCU: 0x170EF, offset: 0x4DA1A, size: 0x8, addend: 0x0, symName: __ZN13StockExchange11MatchOrdersENSt3__112basic_stringIcNS0_11char_traitsIcEENS0_9allocatorIcEEEE, symObjAddr: 0x1400, symBinAddr: 0x10000E9A8, symSize: 0x508 }
  - { offsetInCU: 0x1718D, offset: 0x4DAB8, size: 0x8, addend: 0x0, symName: __ZNSt3__16vectorI5OrderNS_9allocatorIS1_EEEC1ERKS4_, symObjAddr: 0x1908, symBinAddr: 0x10000EEB0, symSize: 0x34 }
  - { offsetInCU: 0x171C8, offset: 0x4DAF3, size: 0x8, addend: 0x0, symName: __ZNKSt3__16vectorI5OrderNS_9allocatorIS1_EEE5emptyB8ue170006Ev, symObjAddr: 0x193C, symBinAddr: 0x10000EEE4, symSize: 0x28 }
  - { offsetInCU: 0x171EE, offset: 0x4DB19, size: 0x8, addend: 0x0, symName: __ZNSt3__16vectorI5OrderNS_9allocatorIS1_EEE4backB8ue170006Ev, symObjAddr: 0x1964, symBinAddr: 0x10000EF0C, symSize: 0x1C }
  - { offsetInCU: 0x17219, offset: 0x4DB44, size: 0x8, addend: 0x0, symName: __ZN5OrderC1ERKS_, symObjAddr: 0x1980, symBinAddr: 0x10000EF28, symSize: 0x34 }
  - { offsetInCU: 0x1724E, offset: 0x4DB79, size: 0x8, addend: 0x0, symName: __ZNSt3__16vectorI5OrderNS_9allocatorIS1_EEE8pop_backEv, symObjAddr: 0x19E0, symBinAddr: 0x10000EF88, symSize: 0x2C }
  - { offsetInCU: 0x17276, offset: 0x4DBA1, size: 0x8, addend: 0x0, symName: __ZN5OrderD1Ev, symObjAddr: 0x1A8C, symBinAddr: 0x10000EFB4, symSize: 0x2C }
  - { offsetInCU: 0x172A2, offset: 0x4DBCD, size: 0x8, addend: 0x0, symName: __ZN13StockExchange11closeMarketEv, symObjAddr: 0x1AB8, symBinAddr: 0x10000EFE0, symSize: 0x1CC }
  - { offsetInCU: 0x1735D, offset: 0x4DC88, size: 0x8, addend: 0x0, symName: __ZNSt3__113unordered_mapINS_12basic_stringIcNS_11char_traitsIcEENS_9allocatorIcEEEEdNS_4hashIS6_EENS_8equal_toIS6_EENS4_INS_4pairIKS6_dEEEEE5beginB8ue170006Ev, symObjAddr: 0x1C84, symBinAddr: 0x10000F1AC, symSize: 0x38 }
  - { offsetInCU: 0x17383, offset: 0x4DCAE, size: 0x8, addend: 0x0, symName: __ZNSt3__113unordered_mapINS_12basic_stringIcNS_11char_traitsIcEENS_9allocatorIcEEEEdNS_4hashIS6_EENS_8equal_toIS6_EENS4_INS_4pairIKS6_dEEEEE3endB8ue170006Ev, symObjAddr: 0x1CBC, symBinAddr: 0x10000F1E4, symSize: 0x38 }
  - { offsetInCU: 0x173A9, offset: 0x4DCD4, size: 0x8, addend: 0x0, symName: __ZNKSt3__119__hash_map_iteratorINS_15__hash_iteratorIPNS_11__hash_nodeINS_17__hash_value_typeINS_12basic_stringIcNS_11char_traitsIcEENS_9allocatorIcEEEEdEEPvEEEEEdeB8ue170006Ev, symObjAddr: 0x1D24, symBinAddr: 0x10000F24C, symSize: 0x28 }
  - { offsetInCU: 0x173CF, offset: 0x4DCFA, size: 0x8, addend: 0x0, symName: __ZNSt3__14pairIKNS_12basic_stringIcNS_11char_traitsIcEENS_9allocatorIcEEEEdEC1B8ue170006ERKS8_, symObjAddr: 0x1D4C, symBinAddr: 0x10000F274, symSize: 0x34 }
  - { offsetInCU: 0x17404, offset: 0x4DD2F, size: 0x8, addend: 0x0, symName: __ZNSt3__14pairIKNS_12basic_stringIcNS_11char_traitsIcEENS_9allocatorIcEEEEdED1Ev, symObjAddr: 0x1D80, symBinAddr: 0x10000F2A8, symSize: 0x2C }
  - { offsetInCU: 0x17430, offset: 0x4DD5B, size: 0x8, addend: 0x0, symName: __ZNSt3__119__hash_map_iteratorINS_15__hash_iteratorIPNS_11__hash_nodeINS_17__hash_value_typeINS_12basic_stringIcNS_11char_traitsIcEENS_9allocatorIcEEEEdEEPvEEEEEppB8ue170006Ev, symObjAddr: 0x1DAC, symBinAddr: 0x10000F2D4, symSize: 0x2C }
  - { offsetInCU: 0x17456, offset: 0x4DD81, size: 0x8, addend: 0x0, symName: __ZNSt3__114priority_queueI5OrderNS_6vectorIS1_NS_9allocatorIS1_EEEE18BuyOrderComparatorED2Ev, symObjAddr: 0x1E38, symBinAddr: 0x10000F300, symSize: 0x2C }
  - { offsetInCU: 0x17483, offset: 0x4DDAE, size: 0x8, addend: 0x0, symName: __ZNSt3__114priority_queueI5OrderNS_6vectorIS1_NS_9allocatorIS1_EEEE19SellOrderComparatorED2Ev, symObjAddr: 0x1E64, symBinAddr: 0x10000F32C, symSize: 0x2C }
  - { offsetInCU: 0x174B0, offset: 0x4DDDB, size: 0x8, addend: 0x0, symName: __ZNSt3__14pairIddEC2B8ue170006IddLPv0EEEOT_OT0_, symObjAddr: 0x1E90, symBinAddr: 0x10000F358, symSize: 0x34 }
  - { offsetInCU: 0x1750E, offset: 0x4DE39, size: 0x8, addend: 0x0, symName: __ZNSt3__14pairIddEC2B8ue170006ILb1ELPv0EEERKdS5_, symObjAddr: 0x1EC4, symBinAddr: 0x10000F38C, symSize: 0x34 }
  - { offsetInCU: 0x17564, offset: 0x4DE8F, size: 0x8, addend: 0x0, symName: __ZNSt3__14pairINS_6vectorI5OrderNS_9allocatorIS2_EEEES5_EC2B8ue170006IRS5_S8_LPv0EEEOT_OT0_, symObjAddr: 0x1EF8, symBinAddr: 0x10000F3C0, symSize: 0x70 }
  - { offsetInCU: 0x175C2, offset: 0x4DEED, size: 0x8, addend: 0x0, symName: __ZNSt3__14pairINS_6vectorI5OrderNS_9allocatorIS2_EEEES5_ED2Ev, symObjAddr: 0x1F68, symBinAddr: 0x10000F430, symSize: 0x38 }
  - { offsetInCU: 0x175EE, offset: 0x4DF19, size: 0x8, addend: 0x0, symName: __ZN5OrderC2ERKS_, symObjAddr: 0x1FA0, symBinAddr: 0x10000F468, symSize: 0xBC }
  - { offsetInCU: 0x17632, offset: 0x4DF5D, size: 0x8, addend: 0x0, symName: __ZNKSt3__16__lessIvvEclB8ue170006IiiEEbRKT_RKT0_, symObjAddr: 0x20B0, symBinAddr: 0x10000F578, symSize: 0x34 }
  - { offsetInCU: 0x17686, offset: 0x4DFB1, size: 0x8, addend: 0x0, symName: __ZN5OrderD2Ev, symObjAddr: 0x20E4, symBinAddr: 0x10000F5AC, symSize: 0x44 }
  - { offsetInCU: 0x176B2, offset: 0x4DFDD, size: 0x8, addend: 0x0, symName: __ZNSt3__14pairIKNS_12basic_stringIcNS_11char_traitsIcEENS_9allocatorIcEEEEdEC2B8ue170006ERKS8_, symObjAddr: 0x2128, symBinAddr: 0x10000F5F0, symSize: 0x40 }
  - { offsetInCU: 0x176E7, offset: 0x4E012, size: 0x8, addend: 0x0, symName: __ZNSt3__14pairIKNS_12basic_stringIcNS_11char_traitsIcEENS_9allocatorIcEEEEdED2Ev, symObjAddr: 0x2168, symBinAddr: 0x10000F630, symSize: 0x2C }
  - { offsetInCU: 0x17713, offset: 0x4E03E, size: 0x8, addend: 0x0, symName: __ZNSt3__113unordered_mapINS_12basic_stringIcNS_11char_traitsIcEENS_9allocatorIcEEEENS_14priority_queueI5OrderNS_6vectorIS8_NS4_IS8_EEEE18BuyOrderComparatorEENS_4hashIS6_EENS_8equal_toIS6_EENS4_INS_4pairIKS6_SD_EEEEEC2B8ue170006Ev, symObjAddr: 0x2194, symBinAddr: 0x10000F65C, symSize: 0x2C }
  - { offsetInCU: 0x1773D, offset: 0x4E068, size: 0x8, addend: 0x0, symName: __ZNSt3__112__hash_tableINS_17__hash_value_typeINS_12basic_stringIcNS_11char_traitsIcEENS_9allocatorIcEEEENS_14priority_queueI5OrderNS_6vectorIS9_NS5_IS9_EEEE18BuyOrderComparatorEEEENS_22__unordered_map_hasherIS7_SF_NS_4hashIS7_EENS_8equal_toIS7_EELb1EEENS_21__unordered_map_equalIS7_SF_SK_SI_Lb1EEENS5_ISF_EEEC1Ev, symObjAddr: 0x21C0, symBinAddr: 0x10000F688, symSize: 0x2C }
  - { offsetInCU: 0x17769, offset: 0x4E094, size: 0x8, addend: 0x0, symName: __ZNSt3__112__hash_tableINS_17__hash_value_typeINS_12basic_stringIcNS_11char_traitsIcEENS_9allocatorIcEEEENS_14priority_queueI5OrderNS_6vectorIS9_NS5_IS9_EEEE18BuyOrderComparatorEEEENS_22__unordered_map_hasherIS7_SF_NS_4hashIS7_EENS_8equal_toIS7_EELb1EEENS_21__unordered_map_equalIS7_SF_SK_SI_Lb1EEENS5_ISF_EEEC2Ev, symObjAddr: 0x21EC, symBinAddr: 0x10000F6B4, symSize: 0x7C }
  - { offsetInCU: 0x17795, offset: 0x4E0C0, size: 0x8, addend: 0x0, symName: __ZNSt3__110unique_ptrIA_PNS_16__hash_node_baseIPNS_11__hash_nodeINS_17__hash_value_typeINS_12basic_stringIcNS_11char_traitsIcEENS_9allocatorIcEEEENS_14priority_queueI5OrderNS_6vectorISB_NS7_ISB_EEEE18BuyOrderComparatorEEEEPvEEEENS_25__bucket_list_deallocatorINS7_ISM_EEEEEC1B8ue170006ILb1EvEEv, symObjAddr: 0x2268, symBinAddr: 0x10000F730, symSize: 0x2C }
  - { offsetInCU: 0x177CA, offset: 0x4E0F5, size: 0x8, addend: 0x0, symName: __ZNSt3__117__compressed_pairINS_16__hash_node_baseIPNS_11__hash_nodeINS_17__hash_value_typeINS_12basic_stringIcNS_11char_traitsIcEENS_9allocatorIcEEEENS_14priority_queueI5OrderNS_6vectorISB_NS7_ISB_EEEE18BuyOrderComparatorEEEEPvEEEENS7_ISJ_EEEC1B8ue170006ILb1EvEEv, symObjAddr: 0x2294, symBinAddr: 0x10000F75C, symSize: 0x2C }
  - { offsetInCU: 0x17809, offset: 0x4E134, size: 0x8, addend: 0x0, symName: __ZNSt3__117__compressed_pairImNS_22__unordered_map_hasherINS_12basic_stringIcNS_11char_traitsIcEENS_9allocatorIcEEEENS_17__hash_value_typeIS7_NS_14priority_queueI5OrderNS_6vectorISA_NS5_ISA_EEEE18BuyOrderComparatorEEEENS_4hashIS7_EENS_8equal_toIS7_EELb1EEEEC1B8ue170006IiNS_18__default_init_tagEEEOT_OT0_, symObjAddr: 0x22CC, symBinAddr: 0x10000F788, symSize: 0x3C }
  - { offsetInCU: 0x17866, offset: 0x4E191, size: 0x8, addend: 0x0, symName: __ZNSt3__117__compressed_pairIfNS_21__unordered_map_equalINS_12basic_stringIcNS_11char_traitsIcEENS_9allocatorIcEEEENS_17__hash_value_typeIS7_NS_14priority_queueI5OrderNS_6vectorISA_NS5_ISA_EEEE18BuyOrderComparatorEEEENS_8equal_toIS7_EENS_4hashIS7_EELb1EEEEC1B8ue170006IfNS_18__default_init_tagEEEOT_OT0_, symObjAddr: 0x2308, symBinAddr: 0x10000F7C4, symSize: 0x3C }
  - { offsetInCU: 0x178BE, offset: 0x4E1E9, size: 0x8, addend: 0x0, symName: __ZNSt3__110unique_ptrIA_PNS_16__hash_node_baseIPNS_11__hash_nodeINS_17__hash_value_typeINS_12basic_stringIcNS_11char_traitsIcEENS_9allocatorIcEEEENS_14priority_queueI5OrderNS_6vectorISB_NS7_ISB_EEEE18BuyOrderComparatorEEEEPvEEEENS_25__bucket_list_deallocatorINS7_ISM_EEEEEC2B8ue170006ILb1EvEEv, symObjAddr: 0x2344, symBinAddr: 0x10000F800, symSize: 0x3C }
  - { offsetInCU: 0x178F8, offset: 0x4E223, size: 0x8, addend: 0x0, symName: __ZNSt3__117__compressed_pairIPPNS_16__hash_node_baseIPNS_11__hash_nodeINS_17__hash_value_typeINS_12basic_stringIcNS_11char_traitsIcEENS_9allocatorIcEEEENS_14priority_queueI5OrderNS_6vectorISB_NS7_ISB_EEEE18BuyOrderComparatorEEEEPvEEEENS_25__bucket_list_deallocatorINS7_ISM_EEEEEC1B8ue170006INS_16__value_init_tagEST_EEOT_OT0_, symObjAddr: 0x2380, symBinAddr: 0x10000F83C, symSize: 0x3C }
  - { offsetInCU: 0x17950, offset: 0x4E27B, size: 0x8, addend: 0x0, symName: __ZNSt3__117__compressed_pairIPPNS_16__hash_node_baseIPNS_11__hash_nodeINS_17__hash_value_typeINS_12basic_stringIcNS_11char_traitsIcEENS_9allocatorIcEEEENS_14priority_queueI5OrderNS_6vectorISB_NS7_ISB_EEEE18BuyOrderComparatorEEEEPvEEEENS_25__bucket_list_deallocatorINS7_ISM_EEEEEC2B8ue170006INS_16__value_init_tagEST_EEOT_OT0_, symObjAddr: 0x23BC, symBinAddr: 0x10000F878, symSize: 0x40 }
  - { offsetInCU: 0x179A8, offset: 0x4E2D3, size: 0x8, addend: 0x0, symName: __ZNSt3__122__compressed_pair_elemIPPNS_16__hash_node_baseIPNS_11__hash_nodeINS_17__hash_value_typeINS_12basic_stringIcNS_11char_traitsIcEENS_9allocatorIcEEEENS_14priority_queueI5OrderNS_6vectorISB_NS7_ISB_EEEE18BuyOrderComparatorEEEEPvEEEELi0ELb0EEC2B8ue170006ENS_16__value_init_tagE, symObjAddr: 0x23FC, symBinAddr: 0x10000F8B8, symSize: 0x18 }
  - { offsetInCU: 0x179DD, offset: 0x4E308, size: 0x8, addend: 0x0, symName: __ZNSt3__122__compressed_pair_elemINS_25__bucket_list_deallocatorINS_9allocatorIPNS_16__hash_node_baseIPNS_11__hash_nodeINS_17__hash_value_typeINS_12basic_stringIcNS_11char_traitsIcEENS2_IcEEEENS_14priority_queueI5OrderNS_6vectorISC_NS2_ISC_EEEE18BuyOrderComparatorEEEEPvEEEEEEEELi1ELb0EEC2B8ue170006ENS_16__value_init_tagE, symObjAddr: 0x2414, symBinAddr: 0x10000F8D0, symSize: 0x2C }
  - { offsetInCU: 0x17A12, offset: 0x4E33D, size: 0x8, addend: 0x0, symName: __ZNSt3__125__bucket_list_deallocatorINS_9allocatorIPNS_16__hash_node_baseIPNS_11__hash_nodeINS_17__hash_value_typeINS_12basic_stringIcNS_11char_traitsIcEENS1_IcEEEENS_14priority_queueI5OrderNS_6vectorISB_NS1_ISB_EEEE18BuyOrderComparatorEEEEPvEEEEEEEC1B8ue170006Ev, symObjAddr: 0x2440, symBinAddr: 0x10000F8FC, symSize: 0x2C }
  - { offsetInCU: 0x17A3C, offset: 0x4E367, size: 0x8, addend: 0x0, symName: __ZNSt3__125__bucket_list_deallocatorINS_9allocatorIPNS_16__hash_node_baseIPNS_11__hash_nodeINS_17__hash_value_typeINS_12basic_stringIcNS_11char_traitsIcEENS1_IcEEEENS_14priority_queueI5OrderNS_6vectorISB_NS1_ISB_EEEE18BuyOrderComparatorEEEEPvEEEEEEEC2B8ue170006Ev, symObjAddr: 0x246C, symBinAddr: 0x10000F928, symSize: 0x40 }
  - { offsetInCU: 0x17A66, offset: 0x4E391, size: 0x8, addend: 0x0, symName: __ZNSt3__117__compressed_pairImNS_9allocatorIPNS_16__hash_node_baseIPNS_11__hash_nodeINS_17__hash_value_typeINS_12basic_stringIcNS_11char_traitsIcEENS1_IcEEEENS_14priority_queueI5OrderNS_6vectorISB_NS1_ISB_EEEE18BuyOrderComparatorEEEEPvEEEEEEEC1B8ue170006IiNS_18__default_init_tagEEEOT_OT0_, symObjAddr: 0x24AC, symBinAddr: 0x10000F968, symSize: 0x3C }
  - { offsetInCU: 0x17ABE, offset: 0x4E3E9, size: 0x8, addend: 0x0, symName: __ZNSt3__117__compressed_pairImNS_9allocatorIPNS_16__hash_node_baseIPNS_11__hash_nodeINS_17__hash_value_typeINS_12basic_stringIcNS_11char_traitsIcEENS1_IcEEEENS_14priority_queueI5OrderNS_6vectorISB_NS1_ISB_EEEE18BuyOrderComparatorEEEEPvEEEEEEEC2B8ue170006IiNS_18__default_init_tagEEEOT_OT0_, symObjAddr: 0x24E8, symBinAddr: 0x10000F9A4, symSize: 0x40 }
  - { offsetInCU: 0x17B16, offset: 0x4E441, size: 0x8, addend: 0x0, symName: __ZNSt3__122__compressed_pair_elemINS_9allocatorIPNS_16__hash_node_baseIPNS_11__hash_nodeINS_17__hash_value_typeINS_12basic_stringIcNS_11char_traitsIcEENS1_IcEEEENS_14priority_queueI5OrderNS_6vectorISB_NS1_ISB_EEEE18BuyOrderComparatorEEEEPvEEEEEELi1ELb1EEC2B8ue170006ENS_18__default_init_tagE, symObjAddr: 0x254C, symBinAddr: 0x10000F9E4, symSize: 0x2C }
  - { offsetInCU: 0x17B4B, offset: 0x4E476, size: 0x8, addend: 0x0, symName: __ZNSt3__19allocatorIPNS_16__hash_node_baseIPNS_11__hash_nodeINS_17__hash_value_typeINS_12basic_stringIcNS_11char_traitsIcEENS0_IcEEEENS_14priority_queueI5OrderNS_6vectorISA_NS0_ISA_EEEE18BuyOrderComparatorEEEEPvEEEEEC2B8ue170006Ev, symObjAddr: 0x2578, symBinAddr: 0x10000FA10, symSize: 0x2C }
  - { offsetInCU: 0x17B75, offset: 0x4E4A0, size: 0x8, addend: 0x0, symName: __ZNSt3__116__non_trivial_ifILb1ENS_9allocatorIPNS_16__hash_node_baseIPNS_11__hash_nodeINS_17__hash_value_typeINS_12basic_stringIcNS_11char_traitsIcEENS1_IcEEEENS_14priority_queueI5OrderNS_6vectorISB_NS1_ISB_EEEE18BuyOrderComparatorEEEEPvEEEEEEEC2B8ue170006Ev, symObjAddr: 0x25A4, symBinAddr: 0x10000FA3C, symSize: 0x14 }
  - { offsetInCU: 0x17B9F, offset: 0x4E4CA, size: 0x8, addend: 0x0, symName: __ZNSt3__117__compressed_pairINS_16__hash_node_baseIPNS_11__hash_nodeINS_17__hash_value_typeINS_12basic_stringIcNS_11char_traitsIcEENS_9allocatorIcEEEENS_14priority_queueI5OrderNS_6vectorISB_NS7_ISB_EEEE18BuyOrderComparatorEEEEPvEEEENS7_ISJ_EEEC2B8ue170006ILb1EvEEv, symObjAddr: 0x25B8, symBinAddr: 0x10000FA50, symSize: 0x34 }
  - { offsetInCU: 0x17BD4, offset: 0x4E4FF, size: 0x8, addend: 0x0, symName: __ZNSt3__122__compressed_pair_elemINS_16__hash_node_baseIPNS_11__hash_nodeINS_17__hash_value_typeINS_12basic_stringIcNS_11char_traitsIcEENS_9allocatorIcEEEENS_14priority_queueI5OrderNS_6vectorISB_NS7_ISB_EEEE18BuyOrderComparatorEEEEPvEEEELi0ELb0EEC2B8ue170006ENS_16__value_init_tagE, symObjAddr: 0x25EC, symBinAddr: 0x10000FA84, symSize: 0x2C }
  - { offsetInCU: 0x17C09, offset: 0x4E534, size: 0x8, addend: 0x0, symName: __ZNSt3__122__compressed_pair_elemINS_9allocatorINS_11__hash_nodeINS_17__hash_value_typeINS_12basic_stringIcNS_11char_traitsIcEENS1_IcEEEENS_14priority_queueI5OrderNS_6vectorISA_NS1_ISA_EEEE18BuyOrderComparatorEEEEPvEEEELi1ELb1EEC2B8ue170006ENS_16__value_init_tagE, symObjAddr: 0x2618, symBinAddr: 0x10000FAB0, symSize: 0x2C }
  - { offsetInCU: 0x17C3E, offset: 0x4E569, size: 0x8, addend: 0x0, symName: __ZNSt3__116__hash_node_baseIPNS_11__hash_nodeINS_17__hash_value_typeINS_12basic_stringIcNS_11char_traitsIcEENS_9allocatorIcEEEENS_14priority_queueI5OrderNS_6vectorISA_NS6_ISA_EEEE18BuyOrderComparatorEEEEPvEEEC1B8ue170006Ev, symObjAddr: 0x2644, symBinAddr: 0x10000FADC, symSize: 0x2C }
  - { offsetInCU: 0x17C68, offset: 0x4E593, size: 0x8, addend: 0x0, symName: __ZNSt3__116__hash_node_baseIPNS_11__hash_nodeINS_17__hash_value_typeINS_12basic_stringIcNS_11char_traitsIcEENS_9allocatorIcEEEENS_14priority_queueI5OrderNS_6vectorISA_NS6_ISA_EEEE18BuyOrderComparatorEEEEPvEEEC2B8ue170006Ev, symObjAddr: 0x2670, symBinAddr: 0x10000FB08, symSize: 0x18 }
  - { offsetInCU: 0x17C92, offset: 0x4E5BD, size: 0x8, addend: 0x0, symName: __ZNSt3__19allocatorINS_11__hash_nodeINS_17__hash_value_typeINS_12basic_stringIcNS_11char_traitsIcEENS0_IcEEEENS_14priority_queueI5OrderNS_6vectorIS9_NS0_IS9_EEEE18BuyOrderComparatorEEEEPvEEEC2B8ue170006Ev, symObjAddr: 0x2688, symBinAddr: 0x10000FB20, symSize: 0x2C }
  - { offsetInCU: 0x17CBC, offset: 0x4E5E7, size: 0x8, addend: 0x0, symName: __ZNSt3__116__non_trivial_ifILb1ENS_9allocatorINS_11__hash_nodeINS_17__hash_value_typeINS_12basic_stringIcNS_11char_traitsIcEENS1_IcEEEENS_14priority_queueI5OrderNS_6vectorISA_NS1_ISA_EEEE18BuyOrderComparatorEEEEPvEEEEEC2B8ue170006Ev, symObjAddr: 0x26B4, symBinAddr: 0x10000FB4C, symSize: 0x14 }
  - { offsetInCU: 0x17CE6, offset: 0x4E611, size: 0x8, addend: 0x0, symName: __ZNSt3__117__compressed_pairImNS_22__unordered_map_hasherINS_12basic_stringIcNS_11char_traitsIcEENS_9allocatorIcEEEENS_17__hash_value_typeIS7_NS_14priority_queueI5OrderNS_6vectorISA_NS5_ISA_EEEE18BuyOrderComparatorEEEENS_4hashIS7_EENS_8equal_toIS7_EELb1EEEEC2B8ue170006IiNS_18__default_init_tagEEEOT_OT0_, symObjAddr: 0x26C8, symBinAddr: 0x10000FB60, symSize: 0x40 }
  - { offsetInCU: 0x17D3E, offset: 0x4E669, size: 0x8, addend: 0x0, symName: __ZNSt3__122__compressed_pair_elemINS_22__unordered_map_hasherINS_12basic_stringIcNS_11char_traitsIcEENS_9allocatorIcEEEENS_17__hash_value_typeIS7_NS_14priority_queueI5OrderNS_6vectorISA_NS5_ISA_EEEE18BuyOrderComparatorEEEENS_4hashIS7_EENS_8equal_toIS7_EELb1EEELi1ELb1EEC2B8ue170006ENS_18__default_init_tagE, symObjAddr: 0x2708, symBinAddr: 0x10000FBA0, symSize: 0x2C }
  - { offsetInCU: 0x17D73, offset: 0x4E69E, size: 0x8, addend: 0x0, symName: __ZNSt3__122__unordered_map_hasherINS_12basic_stringIcNS_11char_traitsIcEENS_9allocatorIcEEEENS_17__hash_value_typeIS6_NS_14priority_queueI5OrderNS_6vectorIS9_NS4_IS9_EEEE18BuyOrderComparatorEEEENS_4hashIS6_EENS_8equal_toIS6_EELb1EEC2B8ue170006Ev, symObjAddr: 0x2734, symBinAddr: 0x10000FBCC, symSize: 0x14 }
  - { offsetInCU: 0x17D9D, offset: 0x4E6C8, size: 0x8, addend: 0x0, symName: __ZNSt3__117__compressed_pairIfNS_21__unordered_map_equalINS_12basic_stringIcNS_11char_traitsIcEENS_9allocatorIcEEEENS_17__hash_value_typeIS7_NS_14priority_queueI5OrderNS_6vectorISA_NS5_ISA_EEEE18BuyOrderComparatorEEEENS_8equal_toIS7_EENS_4hashIS7_EELb1EEEEC2B8ue170006IfNS_18__default_init_tagEEEOT_OT0_, symObjAddr: 0x2748, symBinAddr: 0x10000FBE0, symSize: 0x40 }
  - { offsetInCU: 0x17DF5, offset: 0x4E720, size: 0x8, addend: 0x0, symName: __ZNSt3__122__compressed_pair_elemINS_21__unordered_map_equalINS_12basic_stringIcNS_11char_traitsIcEENS_9allocatorIcEEEENS_17__hash_value_typeIS7_NS_14priority_queueI5OrderNS_6vectorISA_NS5_ISA_EEEE18BuyOrderComparatorEEEENS_8equal_toIS7_EENS_4hashIS7_EELb1EEELi1ELb1EEC2B8ue170006ENS_18__default_init_tagE, symObjAddr: 0x27AC, symBinAddr: 0x10000FC20, symSize: 0x2C }
  - { offsetInCU: 0x17E2A, offset: 0x4E755, size: 0x8, addend: 0x0, symName: __ZNSt3__121__unordered_map_equalINS_12basic_stringIcNS_11char_traitsIcEENS_9allocatorIcEEEENS_17__hash_value_typeIS6_NS_14priority_queueI5OrderNS_6vectorIS9_NS4_IS9_EEEE18BuyOrderComparatorEEEENS_8equal_toIS6_EENS_4hashIS6_EELb1EEC2B8ue170006Ev, symObjAddr: 0x27D8, symBinAddr: 0x10000FC4C, symSize: 0x14 }
  - { offsetInCU: 0x17E54, offset: 0x4E77F, size: 0x8, addend: 0x0, symName: __ZNSt3__113unordered_mapINS_12basic_stringIcNS_11char_traitsIcEENS_9allocatorIcEEEENS_14priority_queueI5OrderNS_6vectorIS8_NS4_IS8_EEEE19SellOrderComparatorEENS_4hashIS6_EENS_8equal_toIS6_EENS4_INS_4pairIKS6_SD_EEEEEC2B8ue170006Ev, symObjAddr: 0x27EC, symBinAddr: 0x10000FC60, symSize: 0x2C }
  - { offsetInCU: 0x17E7E, offset: 0x4E7A9, size: 0x8, addend: 0x0, symName: __ZNSt3__112__hash_tableINS_17__hash_value_typeINS_12basic_stringIcNS_11char_traitsIcEENS_9allocatorIcEEEENS_14priority_queueI5OrderNS_6vectorIS9_NS5_IS9_EEEE19SellOrderComparatorEEEENS_22__unordered_map_hasherIS7_SF_NS_4hashIS7_EENS_8equal_toIS7_EELb1EEENS_21__unordered_map_equalIS7_SF_SK_SI_Lb1EEENS5_ISF_EEEC1Ev, symObjAddr: 0x2818, symBinAddr: 0x10000FC8C, symSize: 0x2C }
  - { offsetInCU: 0x17EAA, offset: 0x4E7D5, size: 0x8, addend: 0x0, symName: __ZNSt3__112__hash_tableINS_17__hash_value_typeINS_12basic_stringIcNS_11char_traitsIcEENS_9allocatorIcEEEENS_14priority_queueI5OrderNS_6vectorIS9_NS5_IS9_EEEE19SellOrderComparatorEEEENS_22__unordered_map_hasherIS7_SF_NS_4hashIS7_EENS_8equal_toIS7_EELb1EEENS_21__unordered_map_equalIS7_SF_SK_SI_Lb1EEENS5_ISF_EEEC2Ev, symObjAddr: 0x2844, symBinAddr: 0x10000FCB8, symSize: 0x7C }
  - { offsetInCU: 0x17ED6, offset: 0x4E801, size: 0x8, addend: 0x0, symName: __ZNSt3__110unique_ptrIA_PNS_16__hash_node_baseIPNS_11__hash_nodeINS_17__hash_value_typeINS_12basic_stringIcNS_11char_traitsIcEENS_9allocatorIcEEEENS_14priority_queueI5OrderNS_6vectorISB_NS7_ISB_EEEE19SellOrderComparatorEEEEPvEEEENS_25__bucket_list_deallocatorINS7_ISM_EEEEEC1B8ue170006ILb1EvEEv, symObjAddr: 0x28C0, symBinAddr: 0x10000FD34, symSize: 0x2C }
  - { offsetInCU: 0x17F0B, offset: 0x4E836, size: 0x8, addend: 0x0, symName: __ZNSt3__117__compressed_pairINS_16__hash_node_baseIPNS_11__hash_nodeINS_17__hash_value_typeINS_12basic_stringIcNS_11char_traitsIcEENS_9allocatorIcEEEENS_14priority_queueI5OrderNS_6vectorISB_NS7_ISB_EEEE19SellOrderComparatorEEEEPvEEEENS7_ISJ_EEEC1B8ue170006ILb1EvEEv, symObjAddr: 0x28EC, symBinAddr: 0x10000FD60, symSize: 0x2C }
  - { offsetInCU: 0x17F40, offset: 0x4E86B, size: 0x8, addend: 0x0, symName: __ZNSt3__117__compressed_pairImNS_22__unordered_map_hasherINS_12basic_stringIcNS_11char_traitsIcEENS_9allocatorIcEEEENS_17__hash_value_typeIS7_NS_14priority_queueI5OrderNS_6vectorISA_NS5_ISA_EEEE19SellOrderComparatorEEEENS_4hashIS7_EENS_8equal_toIS7_EELb1EEEEC1B8ue170006IiNS_18__default_init_tagEEEOT_OT0_, symObjAddr: 0x2918, symBinAddr: 0x10000FD8C, symSize: 0x3C }
  - { offsetInCU: 0x17F98, offset: 0x4E8C3, size: 0x8, addend: 0x0, symName: __ZNSt3__117__compressed_pairIfNS_21__unordered_map_equalINS_12basic_stringIcNS_11char_traitsIcEENS_9allocatorIcEEEENS_17__hash_value_typeIS7_NS_14priority_queueI5OrderNS_6vectorISA_NS5_ISA_EEEE19SellOrderComparatorEEEENS_8equal_toIS7_EENS_4hashIS7_EELb1EEEEC1B8ue170006IfNS_18__default_init_tagEEEOT_OT0_, symObjAddr: 0x2954, symBinAddr: 0x10000FDC8, symSize: 0x3C }
  - { offsetInCU: 0x17FF0, offset: 0x4E91B, size: 0x8, addend: 0x0, symName: __ZNSt3__110unique_ptrIA_PNS_16__hash_node_baseIPNS_11__hash_nodeINS_17__hash_value_typeINS_12basic_stringIcNS_11char_traitsIcEENS_9allocatorIcEEEENS_14priority_queueI5OrderNS_6vectorISB_NS7_ISB_EEEE19SellOrderComparatorEEEEPvEEEENS_25__bucket_list_deallocatorINS7_ISM_EEEEEC2B8ue170006ILb1EvEEv, symObjAddr: 0x2990, symBinAddr: 0x10000FE04, symSize: 0x3C }
  - { offsetInCU: 0x18025, offset: 0x4E950, size: 0x8, addend: 0x0, symName: __ZNSt3__117__compressed_pairIPPNS_16__hash_node_baseIPNS_11__hash_nodeINS_17__hash_value_typeINS_12basic_stringIcNS_11char_traitsIcEENS_9allocatorIcEEEENS_14priority_queueI5OrderNS_6vectorISB_NS7_ISB_EEEE19SellOrderComparatorEEEEPvEEEENS_25__bucket_list_deallocatorINS7_ISM_EEEEEC1B8ue170006INS_16__value_init_tagEST_EEOT_OT0_, symObjAddr: 0x29CC, symBinAddr: 0x10000FE40, symSize: 0x3C }
  - { offsetInCU: 0x1807D, offset: 0x4E9A8, size: 0x8, addend: 0x0, symName: __ZNSt3__117__compressed_pairIPPNS_16__hash_node_baseIPNS_11__hash_nodeINS_17__hash_value_typeINS_12basic_stringIcNS_11char_traitsIcEENS_9allocatorIcEEEENS_14priority_queueI5OrderNS_6vectorISB_NS7_ISB_EEEE19SellOrderComparatorEEEEPvEEEENS_25__bucket_list_deallocatorINS7_ISM_EEEEEC2B8ue170006INS_16__value_init_tagEST_EEOT_OT0_, symObjAddr: 0x2A08, symBinAddr: 0x10000FE7C, symSize: 0x40 }
  - { offsetInCU: 0x180D5, offset: 0x4EA00, size: 0x8, addend: 0x0, symName: __ZNSt3__122__compressed_pair_elemIPPNS_16__hash_node_baseIPNS_11__hash_nodeINS_17__hash_value_typeINS_12basic_stringIcNS_11char_traitsIcEENS_9allocatorIcEEEENS_14priority_queueI5OrderNS_6vectorISB_NS7_ISB_EEEE19SellOrderComparatorEEEEPvEEEELi0ELb0EEC2B8ue170006ENS_16__value_init_tagE, symObjAddr: 0x2A48, symBinAddr: 0x10000FEBC, symSize: 0x18 }
  - { offsetInCU: 0x1810A, offset: 0x4EA35, size: 0x8, addend: 0x0, symName: __ZNSt3__122__compressed_pair_elemINS_25__bucket_list_deallocatorINS_9allocatorIPNS_16__hash_node_baseIPNS_11__hash_nodeINS_17__hash_value_typeINS_12basic_stringIcNS_11char_traitsIcEENS2_IcEEEENS_14priority_queueI5OrderNS_6vectorISC_NS2_ISC_EEEE19SellOrderComparatorEEEEPvEEEEEEEELi1ELb0EEC2B8ue170006ENS_16__value_init_tagE, symObjAddr: 0x2A60, symBinAddr: 0x10000FED4, symSize: 0x2C }
  - { offsetInCU: 0x1813F, offset: 0x4EA6A, size: 0x8, addend: 0x0, symName: __ZNSt3__125__bucket_list_deallocatorINS_9allocatorIPNS_16__hash_node_baseIPNS_11__hash_nodeINS_17__hash_value_typeINS_12basic_stringIcNS_11char_traitsIcEENS1_IcEEEENS_14priority_queueI5OrderNS_6vectorISB_NS1_ISB_EEEE19SellOrderComparatorEEEEPvEEEEEEEC1B8ue170006Ev, symObjAddr: 0x2A8C, symBinAddr: 0x10000FF00, symSize: 0x2C }
  - { offsetInCU: 0x18169, offset: 0x4EA94, size: 0x8, addend: 0x0, symName: __ZNSt3__125__bucket_list_deallocatorINS_9allocatorIPNS_16__hash_node_baseIPNS_11__hash_nodeINS_17__hash_value_typeINS_12basic_stringIcNS_11char_traitsIcEENS1_IcEEEENS_14priority_queueI5OrderNS_6vectorISB_NS1_ISB_EEEE19SellOrderComparatorEEEEPvEEEEEEEC2B8ue170006Ev, symObjAddr: 0x2AB8, symBinAddr: 0x10000FF2C, symSize: 0x40 }
  - { offsetInCU: 0x18193, offset: 0x4EABE, size: 0x8, addend: 0x0, symName: __ZNSt3__117__compressed_pairImNS_9allocatorIPNS_16__hash_node_baseIPNS_11__hash_nodeINS_17__hash_value_typeINS_12basic_stringIcNS_11char_traitsIcEENS1_IcEEEENS_14priority_queueI5OrderNS_6vectorISB_NS1_ISB_EEEE19SellOrderComparatorEEEEPvEEEEEEEC1B8ue170006IiNS_18__default_init_tagEEEOT_OT0_, symObjAddr: 0x2AF8, symBinAddr: 0x10000FF6C, symSize: 0x3C }
  - { offsetInCU: 0x181EB, offset: 0x4EB16, size: 0x8, addend: 0x0, symName: __ZNSt3__117__compressed_pairImNS_9allocatorIPNS_16__hash_node_baseIPNS_11__hash_nodeINS_17__hash_value_typeINS_12basic_stringIcNS_11char_traitsIcEENS1_IcEEEENS_14priority_queueI5OrderNS_6vectorISB_NS1_ISB_EEEE19SellOrderComparatorEEEEPvEEEEEEEC2B8ue170006IiNS_18__default_init_tagEEEOT_OT0_, symObjAddr: 0x2B34, symBinAddr: 0x10000FFA8, symSize: 0x40 }
  - { offsetInCU: 0x18243, offset: 0x4EB6E, size: 0x8, addend: 0x0, symName: __ZNSt3__122__compressed_pair_elemINS_9allocatorIPNS_16__hash_node_baseIPNS_11__hash_nodeINS_17__hash_value_typeINS_12basic_stringIcNS_11char_traitsIcEENS1_IcEEEENS_14priority_queueI5OrderNS_6vectorISB_NS1_ISB_EEEE19SellOrderComparatorEEEEPvEEEEEELi1ELb1EEC2B8ue170006ENS_18__default_init_tagE, symObjAddr: 0x2B74, symBinAddr: 0x10000FFE8, symSize: 0x2C }
  - { offsetInCU: 0x18278, offset: 0x4EBA3, size: 0x8, addend: 0x0, symName: __ZNSt3__19allocatorIPNS_16__hash_node_baseIPNS_11__hash_nodeINS_17__hash_value_typeINS_12basic_stringIcNS_11char_traitsIcEENS0_IcEEEENS_14priority_queueI5OrderNS_6vectorISA_NS0_ISA_EEEE19SellOrderComparatorEEEEPvEEEEEC2B8ue170006Ev, symObjAddr: 0x2BA0, symBinAddr: 0x100010014, symSize: 0x2C }
  - { offsetInCU: 0x182A2, offset: 0x4EBCD, size: 0x8, addend: 0x0, symName: __ZNSt3__116__non_trivial_ifILb1ENS_9allocatorIPNS_16__hash_node_baseIPNS_11__hash_nodeINS_17__hash_value_typeINS_12basic_stringIcNS_11char_traitsIcEENS1_IcEEEENS_14priority_queueI5OrderNS_6vectorISB_NS1_ISB_EEEE19SellOrderComparatorEEEEPvEEEEEEEC2B8ue170006Ev, symObjAddr: 0x2BCC, symBinAddr: 0x100010040, symSize: 0x14 }
  - { offsetInCU: 0x182CC, offset: 0x4EBF7, size: 0x8, addend: 0x0, symName: __ZNSt3__117__compressed_pairINS_16__hash_node_baseIPNS_11__hash_nodeINS_17__hash_value_typeINS_12basic_stringIcNS_11char_traitsIcEENS_9allocatorIcEEEENS_14priority_queueI5OrderNS_6vectorISB_NS7_ISB_EEEE19SellOrderComparatorEEEEPvEEEENS7_ISJ_EEEC2B8ue170006ILb1EvEEv, symObjAddr: 0x2BE0, symBinAddr: 0x100010054, symSize: 0x34 }
  - { offsetInCU: 0x18301, offset: 0x4EC2C, size: 0x8, addend: 0x0, symName: __ZNSt3__122__compressed_pair_elemINS_16__hash_node_baseIPNS_11__hash_nodeINS_17__hash_value_typeINS_12basic_stringIcNS_11char_traitsIcEENS_9allocatorIcEEEENS_14priority_queueI5OrderNS_6vectorISB_NS7_ISB_EEEE19SellOrderComparatorEEEEPvEEEELi0ELb0EEC2B8ue170006ENS_16__value_init_tagE, symObjAddr: 0x2C14, symBinAddr: 0x100010088, symSize: 0x2C }
  - { offsetInCU: 0x18336, offset: 0x4EC61, size: 0x8, addend: 0x0, symName: __ZNSt3__122__compressed_pair_elemINS_9allocatorINS_11__hash_nodeINS_17__hash_value_typeINS_12basic_stringIcNS_11char_traitsIcEENS1_IcEEEENS_14priority_queueI5OrderNS_6vectorISA_NS1_ISA_EEEE19SellOrderComparatorEEEEPvEEEELi1ELb1EEC2B8ue170006ENS_16__value_init_tagE, symObjAddr: 0x2C40, symBinAddr: 0x1000100B4, symSize: 0x2C }
  - { offsetInCU: 0x1836B, offset: 0x4EC96, size: 0x8, addend: 0x0, symName: __ZNSt3__116__hash_node_baseIPNS_11__hash_nodeINS_17__hash_value_typeINS_12basic_stringIcNS_11char_traitsIcEENS_9allocatorIcEEEENS_14priority_queueI5OrderNS_6vectorISA_NS6_ISA_EEEE19SellOrderComparatorEEEEPvEEEC1B8ue170006Ev, symObjAddr: 0x2C6C, symBinAddr: 0x1000100E0, symSize: 0x2C }
  - { offsetInCU: 0x18395, offset: 0x4ECC0, size: 0x8, addend: 0x0, symName: __ZNSt3__116__hash_node_baseIPNS_11__hash_nodeINS_17__hash_value_typeINS_12basic_stringIcNS_11char_traitsIcEENS_9allocatorIcEEEENS_14priority_queueI5OrderNS_6vectorISA_NS6_ISA_EEEE19SellOrderComparatorEEEEPvEEEC2B8ue170006Ev, symObjAddr: 0x2C98, symBinAddr: 0x10001010C, symSize: 0x18 }
  - { offsetInCU: 0x183BF, offset: 0x4ECEA, size: 0x8, addend: 0x0, symName: __ZNSt3__19allocatorINS_11__hash_nodeINS_17__hash_value_typeINS_12basic_stringIcNS_11char_traitsIcEENS0_IcEEEENS_14priority_queueI5OrderNS_6vectorIS9_NS0_IS9_EEEE19SellOrderComparatorEEEEPvEEEC2B8ue170006Ev, symObjAddr: 0x2CB0, symBinAddr: 0x100010124, symSize: 0x2C }
  - { offsetInCU: 0x183E9, offset: 0x4ED14, size: 0x8, addend: 0x0, symName: __ZNSt3__116__non_trivial_ifILb1ENS_9allocatorINS_11__hash_nodeINS_17__hash_value_typeINS_12basic_stringIcNS_11char_traitsIcEENS1_IcEEEENS_14priority_queueI5OrderNS_6vectorISA_NS1_ISA_EEEE19SellOrderComparatorEEEEPvEEEEEC2B8ue170006Ev, symObjAddr: 0x2CDC, symBinAddr: 0x100010150, symSize: 0x14 }
  - { offsetInCU: 0x18413, offset: 0x4ED3E, size: 0x8, addend: 0x0, symName: __ZNSt3__117__compressed_pairImNS_22__unordered_map_hasherINS_12basic_stringIcNS_11char_traitsIcEENS_9allocatorIcEEEENS_17__hash_value_typeIS7_NS_14priority_queueI5OrderNS_6vectorISA_NS5_ISA_EEEE19SellOrderComparatorEEEENS_4hashIS7_EENS_8equal_toIS7_EELb1EEEEC2B8ue170006IiNS_18__default_init_tagEEEOT_OT0_, symObjAddr: 0x2CF0, symBinAddr: 0x100010164, symSize: 0x40 }
  - { offsetInCU: 0x1846B, offset: 0x4ED96, size: 0x8, addend: 0x0, symName: __ZNSt3__122__compressed_pair_elemINS_22__unordered_map_hasherINS_12basic_stringIcNS_11char_traitsIcEENS_9allocatorIcEEEENS_17__hash_value_typeIS7_NS_14priority_queueI5OrderNS_6vectorISA_NS5_ISA_EEEE19SellOrderComparatorEEEENS_4hashIS7_EENS_8equal_toIS7_EELb1EEELi1ELb1EEC2B8ue170006ENS_18__default_init_tagE, symObjAddr: 0x2D30, symBinAddr: 0x1000101A4, symSize: 0x2C }
  - { offsetInCU: 0x184A0, offset: 0x4EDCB, size: 0x8, addend: 0x0, symName: __ZNSt3__122__unordered_map_hasherINS_12basic_stringIcNS_11char_traitsIcEENS_9allocatorIcEEEENS_17__hash_value_typeIS6_NS_14priority_queueI5OrderNS_6vectorIS9_NS4_IS9_EEEE19SellOrderComparatorEEEENS_4hashIS6_EENS_8equal_toIS6_EELb1EEC2B8ue170006Ev, symObjAddr: 0x2D5C, symBinAddr: 0x1000101D0, symSize: 0x14 }
  - { offsetInCU: 0x184CA, offset: 0x4EDF5, size: 0x8, addend: 0x0, symName: __ZNSt3__117__compressed_pairIfNS_21__unordered_map_equalINS_12basic_stringIcNS_11char_traitsIcEENS_9allocatorIcEEEENS_17__hash_value_typeIS7_NS_14priority_queueI5OrderNS_6vectorISA_NS5_ISA_EEEE19SellOrderComparatorEEEENS_8equal_toIS7_EENS_4hashIS7_EELb1EEEEC2B8ue170006IfNS_18__default_init_tagEEEOT_OT0_, symObjAddr: 0x2D70, symBinAddr: 0x1000101E4, symSize: 0x40 }
  - { offsetInCU: 0x18522, offset: 0x4EE4D, size: 0x8, addend: 0x0, symName: __ZNSt3__122__compressed_pair_elemINS_21__unordered_map_equalINS_12basic_stringIcNS_11char_traitsIcEENS_9allocatorIcEEEENS_17__hash_value_typeIS7_NS_14priority_queueI5OrderNS_6vectorISA_NS5_ISA_EEEE19SellOrderComparatorEEEENS_8equal_toIS7_EENS_4hashIS7_EELb1EEELi1ELb1EEC2B8ue170006ENS_18__default_init_tagE, symObjAddr: 0x2DB0, symBinAddr: 0x100010224, symSize: 0x2C }
  - { offsetInCU: 0x18557, offset: 0x4EE82, size: 0x8, addend: 0x0, symName: __ZNSt3__121__unordered_map_equalINS_12basic_stringIcNS_11char_traitsIcEENS_9allocatorIcEEEENS_17__hash_value_typeIS6_NS_14priority_queueI5OrderNS_6vectorIS9_NS4_IS9_EEEE19SellOrderComparatorEEEENS_8equal_toIS6_EENS_4hashIS6_EELb1EEC2B8ue170006Ev, symObjAddr: 0x2DDC, symBinAddr: 0x100010250, symSize: 0x14 }
  - { offsetInCU: 0x18581, offset: 0x4EEAC, size: 0x8, addend: 0x0, symName: __ZNSt3__113unordered_mapINS_12basic_stringIcNS_11char_traitsIcEENS_9allocatorIcEEEEdNS_4hashIS6_EENS_8equal_toIS6_EENS4_INS_4pairIKS6_dEEEEEC2B8ue170006Ev, symObjAddr: 0x2DF0, symBinAddr: 0x100010264, symSize: 0x2C }
  - { offsetInCU: 0x185AB, offset: 0x4EED6, size: 0x8, addend: 0x0, symName: __ZNSt3__112__hash_tableINS_17__hash_value_typeINS_12basic_stringIcNS_11char_traitsIcEENS_9allocatorIcEEEEdEENS_22__unordered_map_hasherIS7_S8_NS_4hashIS7_EENS_8equal_toIS7_EELb1EEENS_21__unordered_map_equalIS7_S8_SD_SB_Lb1EEENS5_IS8_EEEC1Ev, symObjAddr: 0x2E1C, symBinAddr: 0x100010290, symSize: 0x2C }
  - { offsetInCU: 0x185D7, offset: 0x4EF02, size: 0x8, addend: 0x0, symName: __ZNSt3__112__hash_tableINS_17__hash_value_typeINS_12basic_stringIcNS_11char_traitsIcEENS_9allocatorIcEEEEdEENS_22__unordered_map_hasherIS7_S8_NS_4hashIS7_EENS_8equal_toIS7_EELb1EEENS_21__unordered_map_equalIS7_S8_SD_SB_Lb1EEENS5_IS8_EEEC2Ev, symObjAddr: 0x2E48, symBinAddr: 0x1000102BC, symSize: 0x7C }
  - { offsetInCU: 0x18603, offset: 0x4EF2E, size: 0x8, addend: 0x0, symName: __ZNSt3__110unique_ptrIA_PNS_16__hash_node_baseIPNS_11__hash_nodeINS_17__hash_value_typeINS_12basic_stringIcNS_11char_traitsIcEENS_9allocatorIcEEEEdEEPvEEEENS_25__bucket_list_deallocatorINS7_ISF_EEEEEC1B8ue170006ILb1EvEEv, symObjAddr: 0x2EC4, symBinAddr: 0x100010338, symSize: 0x2C }
  - { offsetInCU: 0x18638, offset: 0x4EF63, size: 0x8, addend: 0x0, symName: __ZNSt3__117__compressed_pairINS_16__hash_node_baseIPNS_11__hash_nodeINS_17__hash_value_typeINS_12basic_stringIcNS_11char_traitsIcEENS_9allocatorIcEEEEdEEPvEEEENS7_ISC_EEEC1B8ue170006ILb1EvEEv, symObjAddr: 0x2EF0, symBinAddr: 0x100010364, symSize: 0x2C }
  - { offsetInCU: 0x1866D, offset: 0x4EF98, size: 0x8, addend: 0x0, symName: __ZNSt3__117__compressed_pairImNS_22__unordered_map_hasherINS_12basic_stringIcNS_11char_traitsIcEENS_9allocatorIcEEEENS_17__hash_value_typeIS7_dEENS_4hashIS7_EENS_8equal_toIS7_EELb1EEEEC1B8ue170006IiNS_18__default_init_tagEEEOT_OT0_, symObjAddr: 0x2F1C, symBinAddr: 0x100010390, symSize: 0x3C }
  - { offsetInCU: 0x186C5, offset: 0x4EFF0, size: 0x8, addend: 0x0, symName: __ZNSt3__117__compressed_pairIfNS_21__unordered_map_equalINS_12basic_stringIcNS_11char_traitsIcEENS_9allocatorIcEEEENS_17__hash_value_typeIS7_dEENS_8equal_toIS7_EENS_4hashIS7_EELb1EEEEC1B8ue170006IfNS_18__default_init_tagEEEOT_OT0_, symObjAddr: 0x2F58, symBinAddr: 0x1000103CC, symSize: 0x3C }
  - { offsetInCU: 0x1871D, offset: 0x4F048, size: 0x8, addend: 0x0, symName: __ZNSt3__110unique_ptrIA_PNS_16__hash_node_baseIPNS_11__hash_nodeINS_17__hash_value_typeINS_12basic_stringIcNS_11char_traitsIcEENS_9allocatorIcEEEEdEEPvEEEENS_25__bucket_list_deallocatorINS7_ISF_EEEEEC2B8ue170006ILb1EvEEv, symObjAddr: 0x2F94, symBinAddr: 0x100010408, symSize: 0x3C }
  - { offsetInCU: 0x18752, offset: 0x4F07D, size: 0x8, addend: 0x0, symName: __ZNSt3__117__compressed_pairIPPNS_16__hash_node_baseIPNS_11__hash_nodeINS_17__hash_value_typeINS_12basic_stringIcNS_11char_traitsIcEENS_9allocatorIcEEEEdEEPvEEEENS_25__bucket_list_deallocatorINS7_ISF_EEEEEC1B8ue170006INS_16__value_init_tagESM_EEOT_OT0_, symObjAddr: 0x2FD0, symBinAddr: 0x100010444, symSize: 0x3C }
  - { offsetInCU: 0x187AA, offset: 0x4F0D5, size: 0x8, addend: 0x0, symName: __ZNSt3__117__compressed_pairIPPNS_16__hash_node_baseIPNS_11__hash_nodeINS_17__hash_value_typeINS_12basic_stringIcNS_11char_traitsIcEENS_9allocatorIcEEEEdEEPvEEEENS_25__bucket_list_deallocatorINS7_ISF_EEEEEC2B8ue170006INS_16__value_init_tagESM_EEOT_OT0_, symObjAddr: 0x300C, symBinAddr: 0x100010480, symSize: 0x40 }
  - { offsetInCU: 0x18802, offset: 0x4F12D, size: 0x8, addend: 0x0, symName: __ZNSt3__122__compressed_pair_elemIPPNS_16__hash_node_baseIPNS_11__hash_nodeINS_17__hash_value_typeINS_12basic_stringIcNS_11char_traitsIcEENS_9allocatorIcEEEEdEEPvEEEELi0ELb0EEC2B8ue170006ENS_16__value_init_tagE, symObjAddr: 0x304C, symBinAddr: 0x1000104C0, symSize: 0x18 }
  - { offsetInCU: 0x18837, offset: 0x4F162, size: 0x8, addend: 0x0, symName: __ZNSt3__122__compressed_pair_elemINS_25__bucket_list_deallocatorINS_9allocatorIPNS_16__hash_node_baseIPNS_11__hash_nodeINS_17__hash_value_typeINS_12basic_stringIcNS_11char_traitsIcEENS2_IcEEEEdEEPvEEEEEEEELi1ELb0EEC2B8ue170006ENS_16__value_init_tagE, symObjAddr: 0x3064, symBinAddr: 0x1000104D8, symSize: 0x2C }
  - { offsetInCU: 0x1886C, offset: 0x4F197, size: 0x8, addend: 0x0, symName: __ZNSt3__125__bucket_list_deallocatorINS_9allocatorIPNS_16__hash_node_baseIPNS_11__hash_nodeINS_17__hash_value_typeINS_12basic_stringIcNS_11char_traitsIcEENS1_IcEEEEdEEPvEEEEEEEC1B8ue170006Ev, symObjAddr: 0x3090, symBinAddr: 0x100010504, symSize: 0x2C }
  - { offsetInCU: 0x18896, offset: 0x4F1C1, size: 0x8, addend: 0x0, symName: __ZNSt3__125__bucket_list_deallocatorINS_9allocatorIPNS_16__hash_node_baseIPNS_11__hash_nodeINS_17__hash_value_typeINS_12basic_stringIcNS_11char_traitsIcEENS1_IcEEEEdEEPvEEEEEEEC2B8ue170006Ev, symObjAddr: 0x30BC, symBinAddr: 0x100010530, symSize: 0x40 }
  - { offsetInCU: 0x188C0, offset: 0x4F1EB, size: 0x8, addend: 0x0, symName: __ZNSt3__117__compressed_pairImNS_9allocatorIPNS_16__hash_node_baseIPNS_11__hash_nodeINS_17__hash_value_typeINS_12basic_stringIcNS_11char_traitsIcEENS1_IcEEEEdEEPvEEEEEEEC1B8ue170006IiNS_18__default_init_tagEEEOT_OT0_, symObjAddr: 0x30FC, symBinAddr: 0x100010570, symSize: 0x3C }
  - { offsetInCU: 0x18918, offset: 0x4F243, size: 0x8, addend: 0x0, symName: __ZNSt3__117__compressed_pairImNS_9allocatorIPNS_16__hash_node_baseIPNS_11__hash_nodeINS_17__hash_value_typeINS_12basic_stringIcNS_11char_traitsIcEENS1_IcEEEEdEEPvEEEEEEEC2B8ue170006IiNS_18__default_init_tagEEEOT_OT0_, symObjAddr: 0x3138, symBinAddr: 0x1000105AC, symSize: 0x40 }
  - { offsetInCU: 0x18970, offset: 0x4F29B, size: 0x8, addend: 0x0, symName: __ZNSt3__122__compressed_pair_elemINS_9allocatorIPNS_16__hash_node_baseIPNS_11__hash_nodeINS_17__hash_value_typeINS_12basic_stringIcNS_11char_traitsIcEENS1_IcEEEEdEEPvEEEEEELi1ELb1EEC2B8ue170006ENS_18__default_init_tagE, symObjAddr: 0x3178, symBinAddr: 0x1000105EC, symSize: 0x2C }
  - { offsetInCU: 0x189A5, offset: 0x4F2D0, size: 0x8, addend: 0x0, symName: __ZNSt3__19allocatorIPNS_16__hash_node_baseIPNS_11__hash_nodeINS_17__hash_value_typeINS_12basic_stringIcNS_11char_traitsIcEENS0_IcEEEEdEEPvEEEEEC2B8ue170006Ev, symObjAddr: 0x31A4, symBinAddr: 0x100010618, symSize: 0x2C }
  - { offsetInCU: 0x189CF, offset: 0x4F2FA, size: 0x8, addend: 0x0, symName: __ZNSt3__116__non_trivial_ifILb1ENS_9allocatorIPNS_16__hash_node_baseIPNS_11__hash_nodeINS_17__hash_value_typeINS_12basic_stringIcNS_11char_traitsIcEENS1_IcEEEEdEEPvEEEEEEEC2B8ue170006Ev, symObjAddr: 0x31D0, symBinAddr: 0x100010644, symSize: 0x14 }
  - { offsetInCU: 0x189F9, offset: 0x4F324, size: 0x8, addend: 0x0, symName: __ZNSt3__117__compressed_pairINS_16__hash_node_baseIPNS_11__hash_nodeINS_17__hash_value_typeINS_12basic_stringIcNS_11char_traitsIcEENS_9allocatorIcEEEEdEEPvEEEENS7_ISC_EEEC2B8ue170006ILb1EvEEv, symObjAddr: 0x31E4, symBinAddr: 0x100010658, symSize: 0x34 }
  - { offsetInCU: 0x18A2E, offset: 0x4F359, size: 0x8, addend: 0x0, symName: __ZNSt3__122__compressed_pair_elemINS_16__hash_node_baseIPNS_11__hash_nodeINS_17__hash_value_typeINS_12basic_stringIcNS_11char_traitsIcEENS_9allocatorIcEEEEdEEPvEEEELi0ELb0EEC2B8ue170006ENS_16__value_init_tagE, symObjAddr: 0x3218, symBinAddr: 0x10001068C, symSize: 0x2C }
  - { offsetInCU: 0x18A63, offset: 0x4F38E, size: 0x8, addend: 0x0, symName: __ZNSt3__122__compressed_pair_elemINS_9allocatorINS_11__hash_nodeINS_17__hash_value_typeINS_12basic_stringIcNS_11char_traitsIcEENS1_IcEEEEdEEPvEEEELi1ELb1EEC2B8ue170006ENS_16__value_init_tagE, symObjAddr: 0x3244, symBinAddr: 0x1000106B8, symSize: 0x2C }
  - { offsetInCU: 0x18A98, offset: 0x4F3C3, size: 0x8, addend: 0x0, symName: __ZNSt3__116__hash_node_baseIPNS_11__hash_nodeINS_17__hash_value_typeINS_12basic_stringIcNS_11char_traitsIcEENS_9allocatorIcEEEEdEEPvEEEC1B8ue170006Ev, symObjAddr: 0x3270, symBinAddr: 0x1000106E4, symSize: 0x2C }
  - { offsetInCU: 0x18AC2, offset: 0x4F3ED, size: 0x8, addend: 0x0, symName: __ZNSt3__116__hash_node_baseIPNS_11__hash_nodeINS_17__hash_value_typeINS_12basic_stringIcNS_11char_traitsIcEENS_9allocatorIcEEEEdEEPvEEEC2B8ue170006Ev, symObjAddr: 0x329C, symBinAddr: 0x100010710, symSize: 0x18 }
  - { offsetInCU: 0x18AEC, offset: 0x4F417, size: 0x8, addend: 0x0, symName: __ZNSt3__19allocatorINS_11__hash_nodeINS_17__hash_value_typeINS_12basic_stringIcNS_11char_traitsIcEENS0_IcEEEEdEEPvEEEC2B8ue170006Ev, symObjAddr: 0x32B4, symBinAddr: 0x100010728, symSize: 0x2C }
  - { offsetInCU: 0x18B16, offset: 0x4F441, size: 0x8, addend: 0x0, symName: __ZNSt3__116__non_trivial_ifILb1ENS_9allocatorINS_11__hash_nodeINS_17__hash_value_typeINS_12basic_stringIcNS_11char_traitsIcEENS1_IcEEEEdEEPvEEEEEC2B8ue170006Ev, symObjAddr: 0x32E0, symBinAddr: 0x100010754, symSize: 0x14 }
  - { offsetInCU: 0x18B40, offset: 0x4F46B, size: 0x8, addend: 0x0, symName: __ZNSt3__117__compressed_pairImNS_22__unordered_map_hasherINS_12basic_stringIcNS_11char_traitsIcEENS_9allocatorIcEEEENS_17__hash_value_typeIS7_dEENS_4hashIS7_EENS_8equal_toIS7_EELb1EEEEC2B8ue170006IiNS_18__default_init_tagEEEOT_OT0_, symObjAddr: 0x32F4, symBinAddr: 0x100010768, symSize: 0x40 }
  - { offsetInCU: 0x18B98, offset: 0x4F4C3, size: 0x8, addend: 0x0, symName: __ZNSt3__122__compressed_pair_elemINS_22__unordered_map_hasherINS_12basic_stringIcNS_11char_traitsIcEENS_9allocatorIcEEEENS_17__hash_value_typeIS7_dEENS_4hashIS7_EENS_8equal_toIS7_EELb1EEELi1ELb1EEC2B8ue170006ENS_18__default_init_tagE, symObjAddr: 0x3334, symBinAddr: 0x1000107A8, symSize: 0x2C }
  - { offsetInCU: 0x18BCD, offset: 0x4F4F8, size: 0x8, addend: 0x0, symName: __ZNSt3__122__unordered_map_hasherINS_12basic_stringIcNS_11char_traitsIcEENS_9allocatorIcEEEENS_17__hash_value_typeIS6_dEENS_4hashIS6_EENS_8equal_toIS6_EELb1EEC2B8ue170006Ev, symObjAddr: 0x3360, symBinAddr: 0x1000107D4, symSize: 0x14 }
  - { offsetInCU: 0x18BF7, offset: 0x4F522, size: 0x8, addend: 0x0, symName: __ZNSt3__117__compressed_pairIfNS_21__unordered_map_equalINS_12basic_stringIcNS_11char_traitsIcEENS_9allocatorIcEEEENS_17__hash_value_typeIS7_dEENS_8equal_toIS7_EENS_4hashIS7_EELb1EEEEC2B8ue170006IfNS_18__default_init_tagEEEOT_OT0_, symObjAddr: 0x3374, symBinAddr: 0x1000107E8, symSize: 0x40 }
  - { offsetInCU: 0x18C4F, offset: 0x4F57A, size: 0x8, addend: 0x0, symName: __ZNSt3__122__compressed_pair_elemINS_21__unordered_map_equalINS_12basic_stringIcNS_11char_traitsIcEENS_9allocatorIcEEEENS_17__hash_value_typeIS7_dEENS_8equal_toIS7_EENS_4hashIS7_EELb1EEELi1ELb1EEC2B8ue170006ENS_18__default_init_tagE, symObjAddr: 0x33B4, symBinAddr: 0x100010828, symSize: 0x2C }
  - { offsetInCU: 0x18C84, offset: 0x4F5AF, size: 0x8, addend: 0x0, symName: __ZNSt3__121__unordered_map_equalINS_12basic_stringIcNS_11char_traitsIcEENS_9allocatorIcEEEENS_17__hash_value_typeIS6_dEENS_8equal_toIS6_EENS_4hashIS6_EELb1EEC2B8ue170006Ev, symObjAddr: 0x33E0, symBinAddr: 0x100010854, symSize: 0x14 }
  - { offsetInCU: 0x18CB3, offset: 0x4F5DE, size: 0x8, addend: 0x0, symName: __ZNSt3__113unordered_mapINS_12basic_stringIcNS_11char_traitsIcEENS_9allocatorIcEEEENS_14priority_queueI5OrderNS_6vectorIS8_NS4_IS8_EEEE18BuyOrderComparatorEENS_4hashIS6_EENS_8equal_toIS6_EENS4_INS_4pairIKS6_SD_EEEEED2B8ue170006Ev, symObjAddr: 0x3B48, symBinAddr: 0x100010868, symSize: 0x2C }
  - { offsetInCU: 0x18CDD, offset: 0x4F608, size: 0x8, addend: 0x0, symName: __ZNSt3__112__hash_tableINS_17__hash_value_typeINS_12basic_stringIcNS_11char_traitsIcEENS_9allocatorIcEEEENS_14priority_queueI5OrderNS_6vectorIS9_NS5_IS9_EEEE18BuyOrderComparatorEEEENS_22__unordered_map_hasherIS7_SF_NS_4hashIS7_EENS_8equal_toIS7_EELb1EEENS_21__unordered_map_equalIS7_SF_SK_SI_Lb1EEENS5_ISF_EEED1Ev, symObjAddr: 0x3B74, symBinAddr: 0x100010894, symSize: 0x2C }
  - { offsetInCU: 0x18D09, offset: 0x4F634, size: 0x8, addend: 0x0, symName: __ZNSt3__112__hash_tableINS_17__hash_value_typeINS_12basic_stringIcNS_11char_traitsIcEENS_9allocatorIcEEEENS_14priority_queueI5OrderNS_6vectorIS9_NS5_IS9_EEEE18BuyOrderComparatorEEEENS_22__unordered_map_hasherIS7_SF_NS_4hashIS7_EENS_8equal_toIS7_EELb1EEENS_21__unordered_map_equalIS7_SF_SK_SI_Lb1EEENS5_ISF_EEED2Ev, symObjAddr: 0x3BA0, symBinAddr: 0x1000108C0, symSize: 0x48 }
  - { offsetInCU: 0x18D35, offset: 0x4F660, size: 0x8, addend: 0x0, symName: __ZNSt3__112__hash_tableINS_17__hash_value_typeINS_12basic_stringIcNS_11char_traitsIcEENS_9allocatorIcEEEENS_14priority_queueI5OrderNS_6vectorIS9_NS5_IS9_EEEE18BuyOrderComparatorEEEENS_22__unordered_map_hasherIS7_SF_NS_4hashIS7_EENS_8equal_toIS7_EELb1EEENS_21__unordered_map_equalIS7_SF_SK_SI_Lb1EEENS5_ISF_EEE17__deallocate_nodeEPNS_16__hash_node_baseIPNS_11__hash_nodeISF_PvEEEE, symObjAddr: 0x3BE8, symBinAddr: 0x100010908, symSize: 0xA8 }
  - { offsetInCU: 0x18DA0, offset: 0x4F6CB, size: 0x8, addend: 0x0, symName: __ZNSt3__117__compressed_pairINS_16__hash_node_baseIPNS_11__hash_nodeINS_17__hash_value_typeINS_12basic_stringIcNS_11char_traitsIcEENS_9allocatorIcEEEENS_14priority_queueI5OrderNS_6vectorISB_NS7_ISB_EEEE18BuyOrderComparatorEEEEPvEEEENS7_ISJ_EEE5firstB8ue170006Ev, symObjAddr: 0x3C90, symBinAddr: 0x1000109B0, symSize: 0x24 }
  - { offsetInCU: 0x18DC6, offset: 0x4F6F1, size: 0x8, addend: 0x0, symName: __ZNSt3__110unique_ptrIA_PNS_16__hash_node_baseIPNS_11__hash_nodeINS_17__hash_value_typeINS_12basic_stringIcNS_11char_traitsIcEENS_9allocatorIcEEEENS_14priority_queueI5OrderNS_6vectorISB_NS7_ISB_EEEE18BuyOrderComparatorEEEEPvEEEENS_25__bucket_list_deallocatorINS7_ISM_EEEEED1B8ue170006Ev, symObjAddr: 0x3CB4, symBinAddr: 0x1000109D4, symSize: 0x2C }
  - { offsetInCU: 0x18DF0, offset: 0x4F71B, size: 0x8, addend: 0x0, symName: __ZNSt3__112__hash_tableINS_17__hash_value_typeINS_12basic_stringIcNS_11char_traitsIcEENS_9allocatorIcEEEENS_14priority_queueI5OrderNS_6vectorIS9_NS5_IS9_EEEE18BuyOrderComparatorEEEENS_22__unordered_map_hasherIS7_SF_NS_4hashIS7_EENS_8equal_toIS7_EELb1EEENS_21__unordered_map_equalIS7_SF_SK_SI_Lb1EEENS5_ISF_EEE12__node_allocB8ue170006Ev, symObjAddr: 0x3CE0, symBinAddr: 0x100010A00, symSize: 0x28 }
  - { offsetInCU: 0x18E16, offset: 0x4F741, size: 0x8, addend: 0x0, symName: __ZNSt3__116__hash_node_baseIPNS_11__hash_nodeINS_17__hash_value_typeINS_12basic_stringIcNS_11char_traitsIcEENS_9allocatorIcEEEENS_14priority_queueI5OrderNS_6vectorISA_NS6_ISA_EEEE18BuyOrderComparatorEEEEPvEEE8__upcastB8ue170006Ev, symObjAddr: 0x3D08, symBinAddr: 0x100010A28, symSize: 0x24 }
  - { offsetInCU: 0x18E3C, offset: 0x4F767, size: 0x8, addend: 0x0, symName: __ZNSt3__116allocator_traitsINS_9allocatorINS_11__hash_nodeINS_17__hash_value_typeINS_12basic_stringIcNS_11char_traitsIcEENS1_IcEEEENS_14priority_queueI5OrderNS_6vectorISA_NS1_ISA_EEEE18BuyOrderComparatorEEEEPvEEEEE7destroyB8ue170006INS_4pairIKS8_SF_EEvvEEvRSJ_PT_, symObjAddr: 0x3D2C, symBinAddr: 0x100010A4C, symSize: 0x28 }
  - { offsetInCU: 0x18E77, offset: 0x4F7A2, size: 0x8, addend: 0x0, symName: __ZNSt3__122__hash_key_value_typesINS_17__hash_value_typeINS_12basic_stringIcNS_11char_traitsIcEENS_9allocatorIcEEEENS_14priority_queueI5OrderNS_6vectorIS9_NS5_IS9_EEEE18BuyOrderComparatorEEEEE9__get_ptrB8ue170006ERSF_, symObjAddr: 0x3D54, symBinAddr: 0x100010A74, symSize: 0x24 }
  - { offsetInCU: 0x18E9A, offset: 0x4F7C5, size: 0x8, addend: 0x0, symName: __ZNSt3__116allocator_traitsINS_9allocatorINS_11__hash_nodeINS_17__hash_value_typeINS_12basic_stringIcNS_11char_traitsIcEENS1_IcEEEENS_14priority_queueI5OrderNS_6vectorISA_NS1_ISA_EEEE18BuyOrderComparatorEEEEPvEEEEE10deallocateB8ue170006ERSJ_PSI_m, symObjAddr: 0x3D78, symBinAddr: 0x100010A98, symSize: 0x34 }
  - { offsetInCU: 0x18EDC, offset: 0x4F807, size: 0x8, addend: 0x0, symName: __ZNSt3__117__compressed_pairINS_16__hash_node_baseIPNS_11__hash_nodeINS_17__hash_value_typeINS_12basic_stringIcNS_11char_traitsIcEENS_9allocatorIcEEEENS_14priority_queueI5OrderNS_6vectorISB_NS7_ISB_EEEE18BuyOrderComparatorEEEEPvEEEENS7_ISJ_EEE6secondB8ue170006Ev, symObjAddr: 0x3DAC, symBinAddr: 0x100010ACC, symSize: 0x24 }
  - { offsetInCU: 0x18F02, offset: 0x4F82D, size: 0x8, addend: 0x0, symName: __ZNSt3__122__compressed_pair_elemINS_9allocatorINS_11__hash_nodeINS_17__hash_value_typeINS_12basic_stringIcNS_11char_traitsIcEENS1_IcEEEENS_14priority_queueI5OrderNS_6vectorISA_NS1_ISA_EEEE18BuyOrderComparatorEEEEPvEEEELi1ELb1EE5__getB8ue170006Ev, symObjAddr: 0x3DD0, symBinAddr: 0x100010AF0, symSize: 0x14 }
  - { offsetInCU: 0x18F28, offset: 0x4F853, size: 0x8, addend: 0x0, symName: __ZNSt3__114pointer_traitsIPNS_16__hash_node_baseIPNS_11__hash_nodeINS_17__hash_value_typeINS_12basic_stringIcNS_11char_traitsIcEENS_9allocatorIcEEEENS_14priority_queueI5OrderNS_6vectorISB_NS7_ISB_EEEE18BuyOrderComparatorEEEEPvEEEEE10pointer_toB8ue170006ERSL_, symObjAddr: 0x3DE4, symBinAddr: 0x100010B04, symSize: 0x14 }
  - { offsetInCU: 0x18F4B, offset: 0x4F876, size: 0x8, addend: 0x0, symName: __ZNSt3__14pairIKNS_12basic_stringIcNS_11char_traitsIcEENS_9allocatorIcEEEENS_14priority_queueI5OrderNS_6vectorIS9_NS4_IS9_EEEE18BuyOrderComparatorEEED1Ev, symObjAddr: 0x3DF8, symBinAddr: 0x100010B18, symSize: 0x2C }
  - { offsetInCU: 0x18F77, offset: 0x4F8A2, size: 0x8, addend: 0x0, symName: __ZNSt3__14pairIKNS_12basic_stringIcNS_11char_traitsIcEENS_9allocatorIcEEEENS_14priority_queueI5OrderNS_6vectorIS9_NS4_IS9_EEEE18BuyOrderComparatorEEED2Ev, symObjAddr: 0x3E24, symBinAddr: 0x100010B44, symSize: 0x38 }
  - { offsetInCU: 0x18FA3, offset: 0x4F8CE, size: 0x8, addend: 0x0, symName: __ZNSt3__117__hash_value_typeINS_12basic_stringIcNS_11char_traitsIcEENS_9allocatorIcEEEENS_14priority_queueI5OrderNS_6vectorIS8_NS4_IS8_EEEE18BuyOrderComparatorEEE11__get_valueB8ue170006Ev, symObjAddr: 0x3E5C, symBinAddr: 0x100010B7C, symSize: 0x24 }
  - { offsetInCU: 0x18FC9, offset: 0x4F8F4, size: 0x8, addend: 0x0, symName: __ZNSt3__19allocatorINS_11__hash_nodeINS_17__hash_value_typeINS_12basic_stringIcNS_11char_traitsIcEENS0_IcEEEENS_14priority_queueI5OrderNS_6vectorIS9_NS0_IS9_EEEE18BuyOrderComparatorEEEEPvEEE10deallocateB8ue170006EPSH_m, symObjAddr: 0x3EB8, symBinAddr: 0x100010BD8, symSize: 0x44 }
  - { offsetInCU: 0x1900B, offset: 0x4F936, size: 0x8, addend: 0x0, symName: __ZNSt3__122__compressed_pair_elemINS_16__hash_node_baseIPNS_11__hash_nodeINS_17__hash_value_typeINS_12basic_stringIcNS_11char_traitsIcEENS_9allocatorIcEEEENS_14priority_queueI5OrderNS_6vectorISB_NS7_ISB_EEEE18BuyOrderComparatorEEEEPvEEEELi0ELb0EE5__getB8ue170006Ev, symObjAddr: 0x4024, symBinAddr: 0x100010C1C, symSize: 0x14 }
  - { offsetInCU: 0x19031, offset: 0x4F95C, size: 0x8, addend: 0x0, symName: __ZNSt3__110unique_ptrIA_PNS_16__hash_node_baseIPNS_11__hash_nodeINS_17__hash_value_typeINS_12basic_stringIcNS_11char_traitsIcEENS_9allocatorIcEEEENS_14priority_queueI5OrderNS_6vectorISB_NS7_ISB_EEEE18BuyOrderComparatorEEEEPvEEEENS_25__bucket_list_deallocatorINS7_ISM_EEEEED2B8ue170006Ev, symObjAddr: 0x4038, symBinAddr: 0x100010C30, symSize: 0x30 }
  - { offsetInCU: 0x1905B, offset: 0x4F986, size: 0x8, addend: 0x0, symName: __ZNSt3__110unique_ptrIA_PNS_16__hash_node_baseIPNS_11__hash_nodeINS_17__hash_value_typeINS_12basic_stringIcNS_11char_traitsIcEENS_9allocatorIcEEEENS_14priority_queueI5OrderNS_6vectorISB_NS7_ISB_EEEE18BuyOrderComparatorEEEEPvEEEENS_25__bucket_list_deallocatorINS7_ISM_EEEEE5resetB8ue170006EDn, symObjAddr: 0x4068, symBinAddr: 0x100010C60, symSize: 0x6C }
  - { offsetInCU: 0x1909C, offset: 0x4F9C7, size: 0x8, addend: 0x0, symName: __ZNSt3__117__compressed_pairIPPNS_16__hash_node_baseIPNS_11__hash_nodeINS_17__hash_value_typeINS_12basic_stringIcNS_11char_traitsIcEENS_9allocatorIcEEEENS_14priority_queueI5OrderNS_6vectorISB_NS7_ISB_EEEE18BuyOrderComparatorEEEEPvEEEENS_25__bucket_list_deallocatorINS7_ISM_EEEEE5firstB8ue170006Ev, symObjAddr: 0x40D4, symBinAddr: 0x100010CCC, symSize: 0x24 }
  - { offsetInCU: 0x190C2, offset: 0x4F9ED, size: 0x8, addend: 0x0, symName: __ZNSt3__117__compressed_pairIPPNS_16__hash_node_baseIPNS_11__hash_nodeINS_17__hash_value_typeINS_12basic_stringIcNS_11char_traitsIcEENS_9allocatorIcEEEENS_14priority_queueI5OrderNS_6vectorISB_NS7_ISB_EEEE18BuyOrderComparatorEEEEPvEEEENS_25__bucket_list_deallocatorINS7_ISM_EEEEE6secondB8ue170006Ev, symObjAddr: 0x40F8, symBinAddr: 0x100010CF0, symSize: 0x28 }
  - { offsetInCU: 0x190E8, offset: 0x4FA13, size: 0x8, addend: 0x0, symName: __ZNSt3__125__bucket_list_deallocatorINS_9allocatorIPNS_16__hash_node_baseIPNS_11__hash_nodeINS_17__hash_value_typeINS_12basic_stringIcNS_11char_traitsIcEENS1_IcEEEENS_14priority_queueI5OrderNS_6vectorISB_NS1_ISB_EEEE18BuyOrderComparatorEEEEPvEEEEEEEclB8ue170006EPSM_, symObjAddr: 0x4120, symBinAddr: 0x100010D18, symSize: 0x58 }
  - { offsetInCU: 0x1911D, offset: 0x4FA48, size: 0x8, addend: 0x0, symName: __ZNSt3__122__compressed_pair_elemIPPNS_16__hash_node_baseIPNS_11__hash_nodeINS_17__hash_value_typeINS_12basic_stringIcNS_11char_traitsIcEENS_9allocatorIcEEEENS_14priority_queueI5OrderNS_6vectorISB_NS7_ISB_EEEE18BuyOrderComparatorEEEEPvEEEELi0ELb0EE5__getB8ue170006Ev, symObjAddr: 0x4178, symBinAddr: 0x100010D70, symSize: 0x14 }
  - { offsetInCU: 0x19143, offset: 0x4FA6E, size: 0x8, addend: 0x0, symName: __ZNSt3__122__compressed_pair_elemINS_25__bucket_list_deallocatorINS_9allocatorIPNS_16__hash_node_baseIPNS_11__hash_nodeINS_17__hash_value_typeINS_12basic_stringIcNS_11char_traitsIcEENS2_IcEEEENS_14priority_queueI5OrderNS_6vectorISC_NS2_ISC_EEEE18BuyOrderComparatorEEEEPvEEEEEEEELi1ELb0EE5__getB8ue170006Ev, symObjAddr: 0x418C, symBinAddr: 0x100010D84, symSize: 0x14 }
  - { offsetInCU: 0x19169, offset: 0x4FA94, size: 0x8, addend: 0x0, symName: __ZNSt3__116allocator_traitsINS_9allocatorIPNS_16__hash_node_baseIPNS_11__hash_nodeINS_17__hash_value_typeINS_12basic_stringIcNS_11char_traitsIcEENS1_IcEEEENS_14priority_queueI5OrderNS_6vectorISB_NS1_ISB_EEEE18BuyOrderComparatorEEEEPvEEEEEEE10deallocateB8ue170006ERSN_PSM_m, symObjAddr: 0x41A0, symBinAddr: 0x100010D98, symSize: 0x34 }
  - { offsetInCU: 0x191AB, offset: 0x4FAD6, size: 0x8, addend: 0x0, symName: __ZNSt3__125__bucket_list_deallocatorINS_9allocatorIPNS_16__hash_node_baseIPNS_11__hash_nodeINS_17__hash_value_typeINS_12basic_stringIcNS_11char_traitsIcEENS1_IcEEEENS_14priority_queueI5OrderNS_6vectorISB_NS1_ISB_EEEE18BuyOrderComparatorEEEEPvEEEEEEE7__allocB8ue170006Ev, symObjAddr: 0x41D4, symBinAddr: 0x100010DCC, symSize: 0x24 }
  - { offsetInCU: 0x191D1, offset: 0x4FAFC, size: 0x8, addend: 0x0, symName: __ZNSt3__125__bucket_list_deallocatorINS_9allocatorIPNS_16__hash_node_baseIPNS_11__hash_nodeINS_17__hash_value_typeINS_12basic_stringIcNS_11char_traitsIcEENS1_IcEEEENS_14priority_queueI5OrderNS_6vectorISB_NS1_ISB_EEEE18BuyOrderComparatorEEEEPvEEEEEEE4sizeB8ue170006Ev, symObjAddr: 0x41F8, symBinAddr: 0x100010DF0, symSize: 0x24 }
  - { offsetInCU: 0x191F7, offset: 0x4FB22, size: 0x8, addend: 0x0, symName: __ZNSt3__19allocatorIPNS_16__hash_node_baseIPNS_11__hash_nodeINS_17__hash_value_typeINS_12basic_stringIcNS_11char_traitsIcEENS0_IcEEEENS_14priority_queueI5OrderNS_6vectorISA_NS0_ISA_EEEE18BuyOrderComparatorEEEEPvEEEEE10deallocateB8ue170006EPSL_m, symObjAddr: 0x421C, symBinAddr: 0x100010E14, symSize: 0x40 }
  - { offsetInCU: 0x19239, offset: 0x4FB64, size: 0x8, addend: 0x0, symName: __ZNSt3__117__compressed_pairImNS_9allocatorIPNS_16__hash_node_baseIPNS_11__hash_nodeINS_17__hash_value_typeINS_12basic_stringIcNS_11char_traitsIcEENS1_IcEEEENS_14priority_queueI5OrderNS_6vectorISB_NS1_ISB_EEEE18BuyOrderComparatorEEEEPvEEEEEEE6secondB8ue170006Ev, symObjAddr: 0x425C, symBinAddr: 0x100010E54, symSize: 0x24 }
  - { offsetInCU: 0x1925F, offset: 0x4FB8A, size: 0x8, addend: 0x0, symName: __ZNSt3__122__compressed_pair_elemINS_9allocatorIPNS_16__hash_node_baseIPNS_11__hash_nodeINS_17__hash_value_typeINS_12basic_stringIcNS_11char_traitsIcEENS1_IcEEEENS_14priority_queueI5OrderNS_6vectorISB_NS1_ISB_EEEE18BuyOrderComparatorEEEEPvEEEEEELi1ELb1EE5__getB8ue170006Ev, symObjAddr: 0x4280, symBinAddr: 0x100010E78, symSize: 0x14 }
  - { offsetInCU: 0x19285, offset: 0x4FBB0, size: 0x8, addend: 0x0, symName: __ZNSt3__117__compressed_pairImNS_9allocatorIPNS_16__hash_node_baseIPNS_11__hash_nodeINS_17__hash_value_typeINS_12basic_stringIcNS_11char_traitsIcEENS1_IcEEEENS_14priority_queueI5OrderNS_6vectorISB_NS1_ISB_EEEE18BuyOrderComparatorEEEEPvEEEEEEE5firstB8ue170006Ev, symObjAddr: 0x4294, symBinAddr: 0x100010E8C, symSize: 0x24 }
  - { offsetInCU: 0x192AB, offset: 0x4FBD6, size: 0x8, addend: 0x0, symName: __ZNSt3__113unordered_mapINS_12basic_stringIcNS_11char_traitsIcEENS_9allocatorIcEEEENS_14priority_queueI5OrderNS_6vectorIS8_NS4_IS8_EEEE19SellOrderComparatorEENS_4hashIS6_EENS_8equal_toIS6_EENS4_INS_4pairIKS6_SD_EEEEED2B8ue170006Ev, symObjAddr: 0x42CC, symBinAddr: 0x100010EB0, symSize: 0x2C }
  - { offsetInCU: 0x192D5, offset: 0x4FC00, size: 0x8, addend: 0x0, symName: __ZNSt3__112__hash_tableINS_17__hash_value_typeINS_12basic_stringIcNS_11char_traitsIcEENS_9allocatorIcEEEENS_14priority_queueI5OrderNS_6vectorIS9_NS5_IS9_EEEE19SellOrderComparatorEEEENS_22__unordered_map_hasherIS7_SF_NS_4hashIS7_EENS_8equal_toIS7_EELb1EEENS_21__unordered_map_equalIS7_SF_SK_SI_Lb1EEENS5_ISF_EEED1Ev, symObjAddr: 0x42F8, symBinAddr: 0x100010EDC, symSize: 0x2C }
  - { offsetInCU: 0x19301, offset: 0x4FC2C, size: 0x8, addend: 0x0, symName: __ZNSt3__112__hash_tableINS_17__hash_value_typeINS_12basic_stringIcNS_11char_traitsIcEENS_9allocatorIcEEEENS_14priority_queueI5OrderNS_6vectorIS9_NS5_IS9_EEEE19SellOrderComparatorEEEENS_22__unordered_map_hasherIS7_SF_NS_4hashIS7_EENS_8equal_toIS7_EELb1EEENS_21__unordered_map_equalIS7_SF_SK_SI_Lb1EEENS5_ISF_EEED2Ev, symObjAddr: 0x4324, symBinAddr: 0x100010F08, symSize: 0x48 }
  - { offsetInCU: 0x1932D, offset: 0x4FC58, size: 0x8, addend: 0x0, symName: __ZNSt3__112__hash_tableINS_17__hash_value_typeINS_12basic_stringIcNS_11char_traitsIcEENS_9allocatorIcEEEENS_14priority_queueI5OrderNS_6vectorIS9_NS5_IS9_EEEE19SellOrderComparatorEEEENS_22__unordered_map_hasherIS7_SF_NS_4hashIS7_EENS_8equal_toIS7_EELb1EEENS_21__unordered_map_equalIS7_SF_SK_SI_Lb1EEENS5_ISF_EEE17__deallocate_nodeEPNS_16__hash_node_baseIPNS_11__hash_nodeISF_PvEEEE, symObjAddr: 0x436C, symBinAddr: 0x100010F50, symSize: 0xA8 }
  - { offsetInCU: 0x19398, offset: 0x4FCC3, size: 0x8, addend: 0x0, symName: __ZNSt3__117__compressed_pairINS_16__hash_node_baseIPNS_11__hash_nodeINS_17__hash_value_typeINS_12basic_stringIcNS_11char_traitsIcEENS_9allocatorIcEEEENS_14priority_queueI5OrderNS_6vectorISB_NS7_ISB_EEEE19SellOrderComparatorEEEEPvEEEENS7_ISJ_EEE5firstB8ue170006Ev, symObjAddr: 0x4414, symBinAddr: 0x100010FF8, symSize: 0x24 }
  - { offsetInCU: 0x193BE, offset: 0x4FCE9, size: 0x8, addend: 0x0, symName: __ZNSt3__110unique_ptrIA_PNS_16__hash_node_baseIPNS_11__hash_nodeINS_17__hash_value_typeINS_12basic_stringIcNS_11char_traitsIcEENS_9allocatorIcEEEENS_14priority_queueI5OrderNS_6vectorISB_NS7_ISB_EEEE19SellOrderComparatorEEEEPvEEEENS_25__bucket_list_deallocatorINS7_ISM_EEEEED1B8ue170006Ev, symObjAddr: 0x4438, symBinAddr: 0x10001101C, symSize: 0x2C }
  - { offsetInCU: 0x193E8, offset: 0x4FD13, size: 0x8, addend: 0x0, symName: __ZNSt3__112__hash_tableINS_17__hash_value_typeINS_12basic_stringIcNS_11char_traitsIcEENS_9allocatorIcEEEENS_14priority_queueI5OrderNS_6vectorIS9_NS5_IS9_EEEE19SellOrderComparatorEEEENS_22__unordered_map_hasherIS7_SF_NS_4hashIS7_EENS_8equal_toIS7_EELb1EEENS_21__unordered_map_equalIS7_SF_SK_SI_Lb1EEENS5_ISF_EEE12__node_allocB8ue170006Ev, symObjAddr: 0x4464, symBinAddr: 0x100011048, symSize: 0x28 }
  - { offsetInCU: 0x1940E, offset: 0x4FD39, size: 0x8, addend: 0x0, symName: __ZNSt3__116__hash_node_baseIPNS_11__hash_nodeINS_17__hash_value_typeINS_12basic_stringIcNS_11char_traitsIcEENS_9allocatorIcEEEENS_14priority_queueI5OrderNS_6vectorISA_NS6_ISA_EEEE19SellOrderComparatorEEEEPvEEE8__upcastB8ue170006Ev, symObjAddr: 0x448C, symBinAddr: 0x100011070, symSize: 0x24 }
  - { offsetInCU: 0x19434, offset: 0x4FD5F, size: 0x8, addend: 0x0, symName: __ZNSt3__116allocator_traitsINS_9allocatorINS_11__hash_nodeINS_17__hash_value_typeINS_12basic_stringIcNS_11char_traitsIcEENS1_IcEEEENS_14priority_queueI5OrderNS_6vectorISA_NS1_ISA_EEEE19SellOrderComparatorEEEEPvEEEEE7destroyB8ue170006INS_4pairIKS8_SF_EEvvEEvRSJ_PT_, symObjAddr: 0x44B0, symBinAddr: 0x100011094, symSize: 0x28 }
  - { offsetInCU: 0x1946F, offset: 0x4FD9A, size: 0x8, addend: 0x0, symName: __ZNSt3__122__hash_key_value_typesINS_17__hash_value_typeINS_12basic_stringIcNS_11char_traitsIcEENS_9allocatorIcEEEENS_14priority_queueI5OrderNS_6vectorIS9_NS5_IS9_EEEE19SellOrderComparatorEEEEE9__get_ptrB8ue170006ERSF_, symObjAddr: 0x44D8, symBinAddr: 0x1000110BC, symSize: 0x24 }
  - { offsetInCU: 0x19492, offset: 0x4FDBD, size: 0x8, addend: 0x0, symName: __ZNSt3__116allocator_traitsINS_9allocatorINS_11__hash_nodeINS_17__hash_value_typeINS_12basic_stringIcNS_11char_traitsIcEENS1_IcEEEENS_14priority_queueI5OrderNS_6vectorISA_NS1_ISA_EEEE19SellOrderComparatorEEEEPvEEEEE10deallocateB8ue170006ERSJ_PSI_m, symObjAddr: 0x44FC, symBinAddr: 0x1000110E0, symSize: 0x34 }
  - { offsetInCU: 0x194D4, offset: 0x4FDFF, size: 0x8, addend: 0x0, symName: __ZNSt3__117__compressed_pairINS_16__hash_node_baseIPNS_11__hash_nodeINS_17__hash_value_typeINS_12basic_stringIcNS_11char_traitsIcEENS_9allocatorIcEEEENS_14priority_queueI5OrderNS_6vectorISB_NS7_ISB_EEEE19SellOrderComparatorEEEEPvEEEENS7_ISJ_EEE6secondB8ue170006Ev, symObjAddr: 0x4530, symBinAddr: 0x100011114, symSize: 0x24 }
  - { offsetInCU: 0x194FA, offset: 0x4FE25, size: 0x8, addend: 0x0, symName: __ZNSt3__122__compressed_pair_elemINS_9allocatorINS_11__hash_nodeINS_17__hash_value_typeINS_12basic_stringIcNS_11char_traitsIcEENS1_IcEEEENS_14priority_queueI5OrderNS_6vectorISA_NS1_ISA_EEEE19SellOrderComparatorEEEEPvEEEELi1ELb1EE5__getB8ue170006Ev, symObjAddr: 0x4554, symBinAddr: 0x100011138, symSize: 0x14 }
  - { offsetInCU: 0x19520, offset: 0x4FE4B, size: 0x8, addend: 0x0, symName: __ZNSt3__114pointer_traitsIPNS_16__hash_node_baseIPNS_11__hash_nodeINS_17__hash_value_typeINS_12basic_stringIcNS_11char_traitsIcEENS_9allocatorIcEEEENS_14priority_queueI5OrderNS_6vectorISB_NS7_ISB_EEEE19SellOrderComparatorEEEEPvEEEEE10pointer_toB8ue170006ERSL_, symObjAddr: 0x4568, symBinAddr: 0x10001114C, symSize: 0x14 }
  - { offsetInCU: 0x19543, offset: 0x4FE6E, size: 0x8, addend: 0x0, symName: __ZNSt3__14pairIKNS_12basic_stringIcNS_11char_traitsIcEENS_9allocatorIcEEEENS_14priority_queueI5OrderNS_6vectorIS9_NS4_IS9_EEEE19SellOrderComparatorEEED1Ev, symObjAddr: 0x457C, symBinAddr: 0x100011160, symSize: 0x2C }
  - { offsetInCU: 0x1956F, offset: 0x4FE9A, size: 0x8, addend: 0x0, symName: __ZNSt3__14pairIKNS_12basic_stringIcNS_11char_traitsIcEENS_9allocatorIcEEEENS_14priority_queueI5OrderNS_6vectorIS9_NS4_IS9_EEEE19SellOrderComparatorEEED2Ev, symObjAddr: 0x45A8, symBinAddr: 0x10001118C, symSize: 0x38 }
  - { offsetInCU: 0x1959B, offset: 0x4FEC6, size: 0x8, addend: 0x0, symName: __ZNSt3__117__hash_value_typeINS_12basic_stringIcNS_11char_traitsIcEENS_9allocatorIcEEEENS_14priority_queueI5OrderNS_6vectorIS8_NS4_IS8_EEEE19SellOrderComparatorEEE11__get_valueB8ue170006Ev, symObjAddr: 0x45E0, symBinAddr: 0x1000111C4, symSize: 0x24 }
  - { offsetInCU: 0x195C1, offset: 0x4FEEC, size: 0x8, addend: 0x0, symName: __ZNSt3__19allocatorINS_11__hash_nodeINS_17__hash_value_typeINS_12basic_stringIcNS_11char_traitsIcEENS0_IcEEEENS_14priority_queueI5OrderNS_6vectorIS9_NS0_IS9_EEEE19SellOrderComparatorEEEEPvEEE10deallocateB8ue170006EPSH_m, symObjAddr: 0x463C, symBinAddr: 0x100011220, symSize: 0x44 }
  - { offsetInCU: 0x19603, offset: 0x4FF2E, size: 0x8, addend: 0x0, symName: __ZNSt3__122__compressed_pair_elemINS_16__hash_node_baseIPNS_11__hash_nodeINS_17__hash_value_typeINS_12basic_stringIcNS_11char_traitsIcEENS_9allocatorIcEEEENS_14priority_queueI5OrderNS_6vectorISB_NS7_ISB_EEEE19SellOrderComparatorEEEEPvEEEELi0ELb0EE5__getB8ue170006Ev, symObjAddr: 0x4680, symBinAddr: 0x100011264, symSize: 0x14 }
  - { offsetInCU: 0x19629, offset: 0x4FF54, size: 0x8, addend: 0x0, symName: __ZNSt3__110unique_ptrIA_PNS_16__hash_node_baseIPNS_11__hash_nodeINS_17__hash_value_typeINS_12basic_stringIcNS_11char_traitsIcEENS_9allocatorIcEEEENS_14priority_queueI5OrderNS_6vectorISB_NS7_ISB_EEEE19SellOrderComparatorEEEEPvEEEENS_25__bucket_list_deallocatorINS7_ISM_EEEEED2B8ue170006Ev, symObjAddr: 0x4694, symBinAddr: 0x100011278, symSize: 0x30 }
  - { offsetInCU: 0x19653, offset: 0x4FF7E, size: 0x8, addend: 0x0, symName: __ZNSt3__110unique_ptrIA_PNS_16__hash_node_baseIPNS_11__hash_nodeINS_17__hash_value_typeINS_12basic_stringIcNS_11char_traitsIcEENS_9allocatorIcEEEENS_14priority_queueI5OrderNS_6vectorISB_NS7_ISB_EEEE19SellOrderComparatorEEEEPvEEEENS_25__bucket_list_deallocatorINS7_ISM_EEEEE5resetB8ue170006EDn, symObjAddr: 0x46C4, symBinAddr: 0x1000112A8, symSize: 0x6C }
  - { offsetInCU: 0x19694, offset: 0x4FFBF, size: 0x8, addend: 0x0, symName: __ZNSt3__117__compressed_pairIPPNS_16__hash_node_baseIPNS_11__hash_nodeINS_17__hash_value_typeINS_12basic_stringIcNS_11char_traitsIcEENS_9allocatorIcEEEENS_14priority_queueI5OrderNS_6vectorISB_NS7_ISB_EEEE19SellOrderComparatorEEEEPvEEEENS_25__bucket_list_deallocatorINS7_ISM_EEEEE5firstB8ue170006Ev, symObjAddr: 0x4730, symBinAddr: 0x100011314, symSize: 0x24 }
  - { offsetInCU: 0x196BA, offset: 0x4FFE5, size: 0x8, addend: 0x0, symName: __ZNSt3__117__compressed_pairIPPNS_16__hash_node_baseIPNS_11__hash_nodeINS_17__hash_value_typeINS_12basic_stringIcNS_11char_traitsIcEENS_9allocatorIcEEEENS_14priority_queueI5OrderNS_6vectorISB_NS7_ISB_EEEE19SellOrderComparatorEEEEPvEEEENS_25__bucket_list_deallocatorINS7_ISM_EEEEE6secondB8ue170006Ev, symObjAddr: 0x4754, symBinAddr: 0x100011338, symSize: 0x28 }
  - { offsetInCU: 0x196E0, offset: 0x5000B, size: 0x8, addend: 0x0, symName: __ZNSt3__125__bucket_list_deallocatorINS_9allocatorIPNS_16__hash_node_baseIPNS_11__hash_nodeINS_17__hash_value_typeINS_12basic_stringIcNS_11char_traitsIcEENS1_IcEEEENS_14priority_queueI5OrderNS_6vectorISB_NS1_ISB_EEEE19SellOrderComparatorEEEEPvEEEEEEEclB8ue170006EPSM_, symObjAddr: 0x477C, symBinAddr: 0x100011360, symSize: 0x58 }
  - { offsetInCU: 0x19715, offset: 0x50040, size: 0x8, addend: 0x0, symName: __ZNSt3__122__compressed_pair_elemIPPNS_16__hash_node_baseIPNS_11__hash_nodeINS_17__hash_value_typeINS_12basic_stringIcNS_11char_traitsIcEENS_9allocatorIcEEEENS_14priority_queueI5OrderNS_6vectorISB_NS7_ISB_EEEE19SellOrderComparatorEEEEPvEEEELi0ELb0EE5__getB8ue170006Ev, symObjAddr: 0x47D4, symBinAddr: 0x1000113B8, symSize: 0x14 }
  - { offsetInCU: 0x1973B, offset: 0x50066, size: 0x8, addend: 0x0, symName: __ZNSt3__122__compressed_pair_elemINS_25__bucket_list_deallocatorINS_9allocatorIPNS_16__hash_node_baseIPNS_11__hash_nodeINS_17__hash_value_typeINS_12basic_stringIcNS_11char_traitsIcEENS2_IcEEEENS_14priority_queueI5OrderNS_6vectorISC_NS2_ISC_EEEE19SellOrderComparatorEEEEPvEEEEEEEELi1ELb0EE5__getB8ue170006Ev, symObjAddr: 0x47E8, symBinAddr: 0x1000113CC, symSize: 0x14 }
  - { offsetInCU: 0x19761, offset: 0x5008C, size: 0x8, addend: 0x0, symName: __ZNSt3__116allocator_traitsINS_9allocatorIPNS_16__hash_node_baseIPNS_11__hash_nodeINS_17__hash_value_typeINS_12basic_stringIcNS_11char_traitsIcEENS1_IcEEEENS_14priority_queueI5OrderNS_6vectorISB_NS1_ISB_EEEE19SellOrderComparatorEEEEPvEEEEEEE10deallocateB8ue170006ERSN_PSM_m, symObjAddr: 0x47FC, symBinAddr: 0x1000113E0, symSize: 0x34 }
  - { offsetInCU: 0x197A3, offset: 0x500CE, size: 0x8, addend: 0x0, symName: __ZNSt3__125__bucket_list_deallocatorINS_9allocatorIPNS_16__hash_node_baseIPNS_11__hash_nodeINS_17__hash_value_typeINS_12basic_stringIcNS_11char_traitsIcEENS1_IcEEEENS_14priority_queueI5OrderNS_6vectorISB_NS1_ISB_EEEE19SellOrderComparatorEEEEPvEEEEEEE7__allocB8ue170006Ev, symObjAddr: 0x4830, symBinAddr: 0x100011414, symSize: 0x24 }
  - { offsetInCU: 0x197C9, offset: 0x500F4, size: 0x8, addend: 0x0, symName: __ZNSt3__125__bucket_list_deallocatorINS_9allocatorIPNS_16__hash_node_baseIPNS_11__hash_nodeINS_17__hash_value_typeINS_12basic_stringIcNS_11char_traitsIcEENS1_IcEEEENS_14priority_queueI5OrderNS_6vectorISB_NS1_ISB_EEEE19SellOrderComparatorEEEEPvEEEEEEE4sizeB8ue170006Ev, symObjAddr: 0x4854, symBinAddr: 0x100011438, symSize: 0x24 }
  - { offsetInCU: 0x197EF, offset: 0x5011A, size: 0x8, addend: 0x0, symName: __ZNSt3__19allocatorIPNS_16__hash_node_baseIPNS_11__hash_nodeINS_17__hash_value_typeINS_12basic_stringIcNS_11char_traitsIcEENS0_IcEEEENS_14priority_queueI5OrderNS_6vectorISA_NS0_ISA_EEEE19SellOrderComparatorEEEEPvEEEEE10deallocateB8ue170006EPSL_m, symObjAddr: 0x4878, symBinAddr: 0x10001145C, symSize: 0x40 }
  - { offsetInCU: 0x19831, offset: 0x5015C, size: 0x8, addend: 0x0, symName: __ZNSt3__117__compressed_pairImNS_9allocatorIPNS_16__hash_node_baseIPNS_11__hash_nodeINS_17__hash_value_typeINS_12basic_stringIcNS_11char_traitsIcEENS1_IcEEEENS_14priority_queueI5OrderNS_6vectorISB_NS1_ISB_EEEE19SellOrderComparatorEEEEPvEEEEEEE6secondB8ue170006Ev, symObjAddr: 0x48B8, symBinAddr: 0x10001149C, symSize: 0x24 }
  - { offsetInCU: 0x19857, offset: 0x50182, size: 0x8, addend: 0x0, symName: __ZNSt3__122__compressed_pair_elemINS_9allocatorIPNS_16__hash_node_baseIPNS_11__hash_nodeINS_17__hash_value_typeINS_12basic_stringIcNS_11char_traitsIcEENS1_IcEEEENS_14priority_queueI5OrderNS_6vectorISB_NS1_ISB_EEEE19SellOrderComparatorEEEEPvEEEEEELi1ELb1EE5__getB8ue170006Ev, symObjAddr: 0x48DC, symBinAddr: 0x1000114C0, symSize: 0x14 }
  - { offsetInCU: 0x1987D, offset: 0x501A8, size: 0x8, addend: 0x0, symName: __ZNSt3__117__compressed_pairImNS_9allocatorIPNS_16__hash_node_baseIPNS_11__hash_nodeINS_17__hash_value_typeINS_12basic_stringIcNS_11char_traitsIcEENS1_IcEEEENS_14priority_queueI5OrderNS_6vectorISB_NS1_ISB_EEEE19SellOrderComparatorEEEEPvEEEEEEE5firstB8ue170006Ev, symObjAddr: 0x48F0, symBinAddr: 0x1000114D4, symSize: 0x24 }
  - { offsetInCU: 0x198A3, offset: 0x501CE, size: 0x8, addend: 0x0, symName: __ZNSt3__113unordered_mapINS_12basic_stringIcNS_11char_traitsIcEENS_9allocatorIcEEEEdNS_4hashIS6_EENS_8equal_toIS6_EENS4_INS_4pairIKS6_dEEEEED2B8ue170006Ev, symObjAddr: 0x4914, symBinAddr: 0x1000114F8, symSize: 0x2C }
  - { offsetInCU: 0x198CD, offset: 0x501F8, size: 0x8, addend: 0x0, symName: __ZNSt3__112__hash_tableINS_17__hash_value_typeINS_12basic_stringIcNS_11char_traitsIcEENS_9allocatorIcEEEEdEENS_22__unordered_map_hasherIS7_S8_NS_4hashIS7_EENS_8equal_toIS7_EELb1EEENS_21__unordered_map_equalIS7_S8_SD_SB_Lb1EEENS5_IS8_EEED1Ev, symObjAddr: 0x4940, symBinAddr: 0x100011524, symSize: 0x2C }
  - { offsetInCU: 0x198F9, offset: 0x50224, size: 0x8, addend: 0x0, symName: __ZNSt3__112__hash_tableINS_17__hash_value_typeINS_12basic_stringIcNS_11char_traitsIcEENS_9allocatorIcEEEEdEENS_22__unordered_map_hasherIS7_S8_NS_4hashIS7_EENS_8equal_toIS7_EELb1EEENS_21__unordered_map_equalIS7_S8_SD_SB_Lb1EEENS5_IS8_EEED2Ev, symObjAddr: 0x496C, symBinAddr: 0x100011550, symSize: 0x48 }
  - { offsetInCU: 0x19925, offset: 0x50250, size: 0x8, addend: 0x0, symName: __ZNSt3__112__hash_tableINS_17__hash_value_typeINS_12basic_stringIcNS_11char_traitsIcEENS_9allocatorIcEEEEdEENS_22__unordered_map_hasherIS7_S8_NS_4hashIS7_EENS_8equal_toIS7_EELb1EEENS_21__unordered_map_equalIS7_S8_SD_SB_Lb1EEENS5_IS8_EEE17__deallocate_nodeEPNS_16__hash_node_baseIPNS_11__hash_nodeIS8_PvEEEE, symObjAddr: 0x49B4, symBinAddr: 0x100011598, symSize: 0xA8 }
  - { offsetInCU: 0x19990, offset: 0x502BB, size: 0x8, addend: 0x0, symName: __ZNSt3__117__compressed_pairINS_16__hash_node_baseIPNS_11__hash_nodeINS_17__hash_value_typeINS_12basic_stringIcNS_11char_traitsIcEENS_9allocatorIcEEEEdEEPvEEEENS7_ISC_EEE5firstB8ue170006Ev, symObjAddr: 0x4A5C, symBinAddr: 0x100011640, symSize: 0x24 }
  - { offsetInCU: 0x199B6, offset: 0x502E1, size: 0x8, addend: 0x0, symName: __ZNSt3__110unique_ptrIA_PNS_16__hash_node_baseIPNS_11__hash_nodeINS_17__hash_value_typeINS_12basic_stringIcNS_11char_traitsIcEENS_9allocatorIcEEEEdEEPvEEEENS_25__bucket_list_deallocatorINS7_ISF_EEEEED1B8ue170006Ev, symObjAddr: 0x4A80, symBinAddr: 0x100011664, symSize: 0x2C }
  - { offsetInCU: 0x199E0, offset: 0x5030B, size: 0x8, addend: 0x0, symName: __ZNSt3__112__hash_tableINS_17__hash_value_typeINS_12basic_stringIcNS_11char_traitsIcEENS_9allocatorIcEEEEdEENS_22__unordered_map_hasherIS7_S8_NS_4hashIS7_EENS_8equal_toIS7_EELb1EEENS_21__unordered_map_equalIS7_S8_SD_SB_Lb1EEENS5_IS8_EEE12__node_allocB8ue170006Ev, symObjAddr: 0x4AAC, symBinAddr: 0x100011690, symSize: 0x28 }
  - { offsetInCU: 0x19A06, offset: 0x50331, size: 0x8, addend: 0x0, symName: __ZNSt3__116__hash_node_baseIPNS_11__hash_nodeINS_17__hash_value_typeINS_12basic_stringIcNS_11char_traitsIcEENS_9allocatorIcEEEEdEEPvEEE8__upcastB8ue170006Ev, symObjAddr: 0x4AD4, symBinAddr: 0x1000116B8, symSize: 0x24 }
  - { offsetInCU: 0x19A2C, offset: 0x50357, size: 0x8, addend: 0x0, symName: __ZNSt3__116allocator_traitsINS_9allocatorINS_11__hash_nodeINS_17__hash_value_typeINS_12basic_stringIcNS_11char_traitsIcEENS1_IcEEEEdEEPvEEEEE7destroyB8ue170006INS_4pairIKS8_dEEvvEEvRSC_PT_, symObjAddr: 0x4AF8, symBinAddr: 0x1000116DC, symSize: 0x28 }
  - { offsetInCU: 0x19A67, offset: 0x50392, size: 0x8, addend: 0x0, symName: __ZNSt3__122__hash_key_value_typesINS_17__hash_value_typeINS_12basic_stringIcNS_11char_traitsIcEENS_9allocatorIcEEEEdEEE9__get_ptrB8ue170006ERS8_, symObjAddr: 0x4B20, symBinAddr: 0x100011704, symSize: 0x24 }
  - { offsetInCU: 0x19A8A, offset: 0x503B5, size: 0x8, addend: 0x0, symName: __ZNSt3__116allocator_traitsINS_9allocatorINS_11__hash_nodeINS_17__hash_value_typeINS_12basic_stringIcNS_11char_traitsIcEENS1_IcEEEEdEEPvEEEEE10deallocateB8ue170006ERSC_PSB_m, symObjAddr: 0x4B44, symBinAddr: 0x100011728, symSize: 0x34 }
  - { offsetInCU: 0x19ACC, offset: 0x503F7, size: 0x8, addend: 0x0, symName: __ZNSt3__117__compressed_pairINS_16__hash_node_baseIPNS_11__hash_nodeINS_17__hash_value_typeINS_12basic_stringIcNS_11char_traitsIcEENS_9allocatorIcEEEEdEEPvEEEENS7_ISC_EEE6secondB8ue170006Ev, symObjAddr: 0x4B78, symBinAddr: 0x10001175C, symSize: 0x24 }
  - { offsetInCU: 0x19AF2, offset: 0x5041D, size: 0x8, addend: 0x0, symName: __ZNSt3__122__compressed_pair_elemINS_9allocatorINS_11__hash_nodeINS_17__hash_value_typeINS_12basic_stringIcNS_11char_traitsIcEENS1_IcEEEEdEEPvEEEELi1ELb1EE5__getB8ue170006Ev, symObjAddr: 0x4B9C, symBinAddr: 0x100011780, symSize: 0x14 }
  - { offsetInCU: 0x19B18, offset: 0x50443, size: 0x8, addend: 0x0, symName: __ZNSt3__114pointer_traitsIPNS_16__hash_node_baseIPNS_11__hash_nodeINS_17__hash_value_typeINS_12basic_stringIcNS_11char_traitsIcEENS_9allocatorIcEEEEdEEPvEEEEE10pointer_toB8ue170006ERSE_, symObjAddr: 0x4BB0, symBinAddr: 0x100011794, symSize: 0x14 }
  - { offsetInCU: 0x19B3B, offset: 0x50466, size: 0x8, addend: 0x0, symName: __ZNSt3__117__hash_value_typeINS_12basic_stringIcNS_11char_traitsIcEENS_9allocatorIcEEEEdE11__get_valueB8ue170006Ev, symObjAddr: 0x4BC4, symBinAddr: 0x1000117A8, symSize: 0x24 }
  - { offsetInCU: 0x19B61, offset: 0x5048C, size: 0x8, addend: 0x0, symName: __ZNSt3__19allocatorINS_11__hash_nodeINS_17__hash_value_typeINS_12basic_stringIcNS_11char_traitsIcEENS0_IcEEEEdEEPvEEE10deallocateB8ue170006EPSA_m, symObjAddr: 0x4C20, symBinAddr: 0x100011804, symSize: 0x44 }
  - { offsetInCU: 0x19BA3, offset: 0x504CE, size: 0x8, addend: 0x0, symName: __ZNSt3__122__compressed_pair_elemINS_16__hash_node_baseIPNS_11__hash_nodeINS_17__hash_value_typeINS_12basic_stringIcNS_11char_traitsIcEENS_9allocatorIcEEEEdEEPvEEEELi0ELb0EE5__getB8ue170006Ev, symObjAddr: 0x4C64, symBinAddr: 0x100011848, symSize: 0x14 }
  - { offsetInCU: 0x19BC9, offset: 0x504F4, size: 0x8, addend: 0x0, symName: __ZNSt3__110unique_ptrIA_PNS_16__hash_node_baseIPNS_11__hash_nodeINS_17__hash_value_typeINS_12basic_stringIcNS_11char_traitsIcEENS_9allocatorIcEEEEdEEPvEEEENS_25__bucket_list_deallocatorINS7_ISF_EEEEED2B8ue170006Ev, symObjAddr: 0x4C78, symBinAddr: 0x10001185C, symSize: 0x30 }
  - { offsetInCU: 0x19BF3, offset: 0x5051E, size: 0x8, addend: 0x0, symName: __ZNSt3__110unique_ptrIA_PNS_16__hash_node_baseIPNS_11__hash_nodeINS_17__hash_value_typeINS_12basic_stringIcNS_11char_traitsIcEENS_9allocatorIcEEEEdEEPvEEEENS_25__bucket_list_deallocatorINS7_ISF_EEEEE5resetB8ue170006EDn, symObjAddr: 0x4CA8, symBinAddr: 0x10001188C, symSize: 0x6C }
  - { offsetInCU: 0x19C34, offset: 0x5055F, size: 0x8, addend: 0x0, symName: __ZNSt3__117__compressed_pairIPPNS_16__hash_node_baseIPNS_11__hash_nodeINS_17__hash_value_typeINS_12basic_stringIcNS_11char_traitsIcEENS_9allocatorIcEEEEdEEPvEEEENS_25__bucket_list_deallocatorINS7_ISF_EEEEE5firstB8ue170006Ev, symObjAddr: 0x4D14, symBinAddr: 0x1000118F8, symSize: 0x24 }
  - { offsetInCU: 0x19C5A, offset: 0x50585, size: 0x8, addend: 0x0, symName: __ZNSt3__117__compressed_pairIPPNS_16__hash_node_baseIPNS_11__hash_nodeINS_17__hash_value_typeINS_12basic_stringIcNS_11char_traitsIcEENS_9allocatorIcEEEEdEEPvEEEENS_25__bucket_list_deallocatorINS7_ISF_EEEEE6secondB8ue170006Ev, symObjAddr: 0x4D38, symBinAddr: 0x10001191C, symSize: 0x28 }
  - { offsetInCU: 0x19C80, offset: 0x505AB, size: 0x8, addend: 0x0, symName: __ZNSt3__125__bucket_list_deallocatorINS_9allocatorIPNS_16__hash_node_baseIPNS_11__hash_nodeINS_17__hash_value_typeINS_12basic_stringIcNS_11char_traitsIcEENS1_IcEEEEdEEPvEEEEEEEclB8ue170006EPSF_, symObjAddr: 0x4D60, symBinAddr: 0x100011944, symSize: 0x58 }
  - { offsetInCU: 0x19CB5, offset: 0x505E0, size: 0x8, addend: 0x0, symName: __ZNSt3__122__compressed_pair_elemIPPNS_16__hash_node_baseIPNS_11__hash_nodeINS_17__hash_value_typeINS_12basic_stringIcNS_11char_traitsIcEENS_9allocatorIcEEEEdEEPvEEEELi0ELb0EE5__getB8ue170006Ev, symObjAddr: 0x4DB8, symBinAddr: 0x10001199C, symSize: 0x14 }
  - { offsetInCU: 0x19CDB, offset: 0x50606, size: 0x8, addend: 0x0, symName: __ZNSt3__122__compressed_pair_elemINS_25__bucket_list_deallocatorINS_9allocatorIPNS_16__hash_node_baseIPNS_11__hash_nodeINS_17__hash_value_typeINS_12basic_stringIcNS_11char_traitsIcEENS2_IcEEEEdEEPvEEEEEEEELi1ELb0EE5__getB8ue170006Ev, symObjAddr: 0x4DCC, symBinAddr: 0x1000119B0, symSize: 0x14 }
  - { offsetInCU: 0x19D01, offset: 0x5062C, size: 0x8, addend: 0x0, symName: __ZNSt3__116allocator_traitsINS_9allocatorIPNS_16__hash_node_baseIPNS_11__hash_nodeINS_17__hash_value_typeINS_12basic_stringIcNS_11char_traitsIcEENS1_IcEEEEdEEPvEEEEEEE10deallocateB8ue170006ERSG_PSF_m, symObjAddr: 0x4DE0, symBinAddr: 0x1000119C4, symSize: 0x34 }
  - { offsetInCU: 0x19D43, offset: 0x5066E, size: 0x8, addend: 0x0, symName: __ZNSt3__125__bucket_list_deallocatorINS_9allocatorIPNS_16__hash_node_baseIPNS_11__hash_nodeINS_17__hash_value_typeINS_12basic_stringIcNS_11char_traitsIcEENS1_IcEEEEdEEPvEEEEEEE7__allocB8ue170006Ev, symObjAddr: 0x4E14, symBinAddr: 0x1000119F8, symSize: 0x24 }
  - { offsetInCU: 0x19D69, offset: 0x50694, size: 0x8, addend: 0x0, symName: __ZNSt3__125__bucket_list_deallocatorINS_9allocatorIPNS_16__hash_node_baseIPNS_11__hash_nodeINS_17__hash_value_typeINS_12basic_stringIcNS_11char_traitsIcEENS1_IcEEEEdEEPvEEEEEEE4sizeB8ue170006Ev, symObjAddr: 0x4E38, symBinAddr: 0x100011A1C, symSize: 0x24 }
  - { offsetInCU: 0x19D8F, offset: 0x506BA, size: 0x8, addend: 0x0, symName: __ZNSt3__19allocatorIPNS_16__hash_node_baseIPNS_11__hash_nodeINS_17__hash_value_typeINS_12basic_stringIcNS_11char_traitsIcEENS0_IcEEEEdEEPvEEEEE10deallocateB8ue170006EPSE_m, symObjAddr: 0x4E5C, symBinAddr: 0x100011A40, symSize: 0x40 }
  - { offsetInCU: 0x19DD1, offset: 0x506FC, size: 0x8, addend: 0x0, symName: __ZNSt3__117__compressed_pairImNS_9allocatorIPNS_16__hash_node_baseIPNS_11__hash_nodeINS_17__hash_value_typeINS_12basic_stringIcNS_11char_traitsIcEENS1_IcEEEEdEEPvEEEEEEE6secondB8ue170006Ev, symObjAddr: 0x4E9C, symBinAddr: 0x100011A80, symSize: 0x24 }
  - { offsetInCU: 0x19DF7, offset: 0x50722, size: 0x8, addend: 0x0, symName: __ZNSt3__122__compressed_pair_elemINS_9allocatorIPNS_16__hash_node_baseIPNS_11__hash_nodeINS_17__hash_value_typeINS_12basic_stringIcNS_11char_traitsIcEENS1_IcEEEEdEEPvEEEEEELi1ELb1EE5__getB8ue170006Ev, symObjAddr: 0x4EC0, symBinAddr: 0x100011AA4, symSize: 0x14 }
  - { offsetInCU: 0x19E1D, offset: 0x50748, size: 0x8, addend: 0x0, symName: __ZNSt3__117__compressed_pairImNS_9allocatorIPNS_16__hash_node_baseIPNS_11__hash_nodeINS_17__hash_value_typeINS_12basic_stringIcNS_11char_traitsIcEENS1_IcEEEEdEEPvEEEEEEE5firstB8ue170006Ev, symObjAddr: 0x4ED4, symBinAddr: 0x100011AB8, symSize: 0x24 }
  - { offsetInCU: 0x19E52, offset: 0x5077D, size: 0x8, addend: 0x0, symName: __ZNSt3__112__hash_tableINS_17__hash_value_typeINS_12basic_stringIcNS_11char_traitsIcEENS_9allocatorIcEEEEdEENS_22__unordered_map_hasherIS7_S8_NS_4hashIS7_EENS_8equal_toIS7_EELb1EEENS_21__unordered_map_equalIS7_S8_SD_SB_Lb1EEENS5_IS8_EEE25__emplace_unique_key_argsIS7_JRKNS_21piecewise_construct_tENS_5tupleIJRKS7_EEENSN_IJEEEEEENS_4pairINS_15__hash_iteratorIPNS_11__hash_nodeIS8_PvEEEEbEERKT_DpOT0_, symObjAddr: 0x5AB8, symBinAddr: 0x100011ADC, symSize: 0x4E8 }
  - { offsetInCU: 0x19F5D, offset: 0x50888, size: 0x8, addend: 0x0, symName: __ZNKSt3__115__hash_iteratorIPNS_11__hash_nodeINS_17__hash_value_typeINS_12basic_stringIcNS_11char_traitsIcEENS_9allocatorIcEEEEdEEPvEEEptB8ue170006Ev, symObjAddr: 0x5FD0, symBinAddr: 0x100011FC4, symSize: 0x30 }
  - { offsetInCU: 0x19F83, offset: 0x508AE, size: 0x8, addend: 0x0, symName: __ZNSt3__112__hash_tableINS_17__hash_value_typeINS_12basic_stringIcNS_11char_traitsIcEENS_9allocatorIcEEEEdEENS_22__unordered_map_hasherIS7_S8_NS_4hashIS7_EENS_8equal_toIS7_EELb1EEENS_21__unordered_map_equalIS7_S8_SD_SB_Lb1EEENS5_IS8_EEE13hash_functionB8ue170006Ev, symObjAddr: 0x6000, symBinAddr: 0x100011FF4, symSize: 0x28 }
  - { offsetInCU: 0x19FA9, offset: 0x508D4, size: 0x8, addend: 0x0, symName: __ZNKSt3__122__unordered_map_hasherINS_12basic_stringIcNS_11char_traitsIcEENS_9allocatorIcEEEENS_17__hash_value_typeIS6_dEENS_4hashIS6_EENS_8equal_toIS6_EELb1EEclB8ue170006ERKS6_, symObjAddr: 0x6028, symBinAddr: 0x10001201C, symSize: 0x2C }
  - { offsetInCU: 0x19FDE, offset: 0x50909, size: 0x8, addend: 0x0, symName: __ZNKSt3__112__hash_tableINS_17__hash_value_typeINS_12basic_stringIcNS_11char_traitsIcEENS_9allocatorIcEEEEdEENS_22__unordered_map_hasherIS7_S8_NS_4hashIS7_EENS_8equal_toIS7_EELb1EEENS_21__unordered_map_equalIS7_S8_SD_SB_Lb1EEENS5_IS8_EEE12bucket_countB8ue170006Ev, symObjAddr: 0x6054, symBinAddr: 0x100012048, symSize: 0x28 }
  - { offsetInCU: 0x1A004, offset: 0x5092F, size: 0x8, addend: 0x0, symName: __ZNKSt3__110unique_ptrIA_PNS_16__hash_node_baseIPNS_11__hash_nodeINS_17__hash_value_typeINS_12basic_stringIcNS_11char_traitsIcEENS_9allocatorIcEEEEdEEPvEEEENS_25__bucket_list_deallocatorINS7_ISF_EEEEEixB8ue170006Em, symObjAddr: 0x6114, symBinAddr: 0x100012070, symSize: 0x34 }
  - { offsetInCU: 0x1A039, offset: 0x50964, size: 0x8, addend: 0x0, symName: __ZNKSt3__116__hash_node_baseIPNS_11__hash_nodeINS_17__hash_value_typeINS_12basic_stringIcNS_11char_traitsIcEENS_9allocatorIcEEEEdEEPvEEE6__hashB8ue170006Ev, symObjAddr: 0x6148, symBinAddr: 0x1000120A4, symSize: 0x18 }
  - { offsetInCU: 0x1A05F, offset: 0x5098A, size: 0x8, addend: 0x0, symName: __ZNSt3__112__hash_tableINS_17__hash_value_typeINS_12basic_stringIcNS_11char_traitsIcEENS_9allocatorIcEEEEdEENS_22__unordered_map_hasherIS7_S8_NS_4hashIS7_EENS_8equal_toIS7_EELb1EEENS_21__unordered_map_equalIS7_S8_SD_SB_Lb1EEENS5_IS8_EEE6key_eqB8ue170006Ev, symObjAddr: 0x6160, symBinAddr: 0x1000120BC, symSize: 0x28 }
  - { offsetInCU: 0x1A085, offset: 0x509B0, size: 0x8, addend: 0x0, symName: __ZNKSt3__121__unordered_map_equalINS_12basic_stringIcNS_11char_traitsIcEENS_9allocatorIcEEEENS_17__hash_value_typeIS6_dEENS_8equal_toIS6_EENS_4hashIS6_EELb1EEclB8ue170006ERKS8_RKS6_, symObjAddr: 0x6188, symBinAddr: 0x1000120E4, symSize: 0x48 }
  - { offsetInCU: 0x1A0C9, offset: 0x509F4, size: 0x8, addend: 0x0, symName: __ZNSt3__112__hash_tableINS_17__hash_value_typeINS_12basic_stringIcNS_11char_traitsIcEENS_9allocatorIcEEEEdEENS_22__unordered_map_hasherIS7_S8_NS_4hashIS7_EENS_8equal_toIS7_EELb1EEENS_21__unordered_map_equalIS7_S8_SD_SB_Lb1EEENS5_IS8_EEE21__construct_node_hashIRKNS_21piecewise_construct_tEJNS_5tupleIJRKS7_EEENSN_IJEEEEEENS_10unique_ptrINS_11__hash_nodeIS8_PvEENS_22__hash_node_destructorINS5_ISV_EEEEEEmOT_DpOT0_, symObjAddr: 0x61D0, symBinAddr: 0x10001212C, symSize: 0x150 }
  - { offsetInCU: 0x1A165, offset: 0x50A90, size: 0x8, addend: 0x0, symName: __ZNSt3__112__hash_tableINS_17__hash_value_typeINS_12basic_stringIcNS_11char_traitsIcEENS_9allocatorIcEEEEdEENS_22__unordered_map_hasherIS7_S8_NS_4hashIS7_EENS_8equal_toIS7_EELb1EEENS_21__unordered_map_equalIS7_S8_SD_SB_Lb1EEENS5_IS8_EEE4sizeB8ue170006Ev, symObjAddr: 0x6320, symBinAddr: 0x10001227C, symSize: 0x28 }
  - { offsetInCU: 0x1A18B, offset: 0x50AB6, size: 0x8, addend: 0x0, symName: __ZNSt3__112__hash_tableINS_17__hash_value_typeINS_12basic_stringIcNS_11char_traitsIcEENS_9allocatorIcEEEEdEENS_22__unordered_map_hasherIS7_S8_NS_4hashIS7_EENS_8equal_toIS7_EELb1EEENS_21__unordered_map_equalIS7_S8_SD_SB_Lb1EEENS5_IS8_EEE15max_load_factorB8ue170006Ev, symObjAddr: 0x6348, symBinAddr: 0x1000122A4, symSize: 0x28 }
  - { offsetInCU: 0x1A1B1, offset: 0x50ADC, size: 0x8, addend: 0x0, symName: __ZNSt3__112__hash_tableINS_17__hash_value_typeINS_12basic_stringIcNS_11char_traitsIcEENS_9allocatorIcEEEEdEENS_22__unordered_map_hasherIS7_S8_NS_4hashIS7_EENS_8equal_toIS7_EELb1EEENS_21__unordered_map_equalIS7_S8_SD_SB_Lb1EEENS5_IS8_EEE15__rehash_uniqueB8ue170006Em, symObjAddr: 0x6370, symBinAddr: 0x1000122CC, symSize: 0x2C }
  - { offsetInCU: 0x1A1E6, offset: 0x50B11, size: 0x8, addend: 0x0, symName: __ZNSt3__116__hash_node_baseIPNS_11__hash_nodeINS_17__hash_value_typeINS_12basic_stringIcNS_11char_traitsIcEENS_9allocatorIcEEEEdEEPvEEE5__ptrB8ue170006Ev, symObjAddr: 0x6430, symBinAddr: 0x1000122F8, symSize: 0x24 }
  - { offsetInCU: 0x1A20C, offset: 0x50B37, size: 0x8, addend: 0x0, symName: __ZNKSt3__110unique_ptrINS_11__hash_nodeINS_17__hash_value_typeINS_12basic_stringIcNS_11char_traitsIcEENS_9allocatorIcEEEEdEEPvEENS_22__hash_node_destructorINS6_ISB_EEEEEptB8ue170006Ev, symObjAddr: 0x6454, symBinAddr: 0x10001231C, symSize: 0x28 }
  - { offsetInCU: 0x1A232, offset: 0x50B5D, size: 0x8, addend: 0x0, symName: __ZNKSt3__110unique_ptrINS_11__hash_nodeINS_17__hash_value_typeINS_12basic_stringIcNS_11char_traitsIcEENS_9allocatorIcEEEEdEEPvEENS_22__hash_node_destructorINS6_ISB_EEEEE3getB8ue170006Ev, symObjAddr: 0x647C, symBinAddr: 0x100012344, symSize: 0x28 }
  - { offsetInCU: 0x1A258, offset: 0x50B83, size: 0x8, addend: 0x0, symName: __ZNSt3__110unique_ptrINS_11__hash_nodeINS_17__hash_value_typeINS_12basic_stringIcNS_11char_traitsIcEENS_9allocatorIcEEEEdEEPvEENS_22__hash_node_destructorINS6_ISB_EEEEE7releaseB8ue170006Ev, symObjAddr: 0x64A4, symBinAddr: 0x10001236C, symSize: 0x44 }
  - { offsetInCU: 0x1A28D, offset: 0x50BB8, size: 0x8, addend: 0x0, symName: __ZNSt3__110unique_ptrINS_11__hash_nodeINS_17__hash_value_typeINS_12basic_stringIcNS_11char_traitsIcEENS_9allocatorIcEEEEdEEPvEENS_22__hash_node_destructorINS6_ISB_EEEEED1B8ue170006Ev, symObjAddr: 0x64E8, symBinAddr: 0x1000123B0, symSize: 0x2C }
  - { offsetInCU: 0x1A2B7, offset: 0x50BE2, size: 0x8, addend: 0x0, symName: __ZNSt3__115__hash_iteratorIPNS_11__hash_nodeINS_17__hash_value_typeINS_12basic_stringIcNS_11char_traitsIcEENS_9allocatorIcEEEEdEEPvEEEC1B8ue170006EPNS_16__hash_node_baseISC_EE, symObjAddr: 0x6514, symBinAddr: 0x1000123DC, symSize: 0x34 }
  - { offsetInCU: 0x1A2FA, offset: 0x50C25, size: 0x8, addend: 0x0, symName: __ZNSt3__14pairINS_15__hash_iteratorIPNS_11__hash_nodeINS_17__hash_value_typeINS_12basic_stringIcNS_11char_traitsIcEENS_9allocatorIcEEEEdEEPvEEEEbEC1B8ue170006ISE_RbLSB_0EEEOT_OT0_, symObjAddr: 0x6548, symBinAddr: 0x100012410, symSize: 0x3C }
  - { offsetInCU: 0x1A358, offset: 0x50C83, size: 0x8, addend: 0x0, symName: __ZNSt3__117__compressed_pairImNS_22__unordered_map_hasherINS_12basic_stringIcNS_11char_traitsIcEENS_9allocatorIcEEEENS_17__hash_value_typeIS7_dEENS_4hashIS7_EENS_8equal_toIS7_EELb1EEEE6secondB8ue170006Ev, symObjAddr: 0x6584, symBinAddr: 0x10001244C, symSize: 0x24 }
  - { offsetInCU: 0x1A37E, offset: 0x50CA9, size: 0x8, addend: 0x0, symName: __ZNSt3__122__compressed_pair_elemINS_22__unordered_map_hasherINS_12basic_stringIcNS_11char_traitsIcEENS_9allocatorIcEEEENS_17__hash_value_typeIS7_dEENS_4hashIS7_EENS_8equal_toIS7_EELb1EEELi1ELb1EE5__getB8ue170006Ev, symObjAddr: 0x65A8, symBinAddr: 0x100012470, symSize: 0x14 }
  - { offsetInCU: 0x1A3A4, offset: 0x50CCF, size: 0x8, addend: 0x0, symName: __ZNKSt3__110unique_ptrIA_PNS_16__hash_node_baseIPNS_11__hash_nodeINS_17__hash_value_typeINS_12basic_stringIcNS_11char_traitsIcEENS_9allocatorIcEEEEdEEPvEEEENS_25__bucket_list_deallocatorINS7_ISF_EEEEE11get_deleterB8ue170006Ev, symObjAddr: 0x75DC, symBinAddr: 0x100012484, symSize: 0x24 }
  - { offsetInCU: 0x1A3CA, offset: 0x50CF5, size: 0x8, addend: 0x0, symName: __ZNKSt3__125__bucket_list_deallocatorINS_9allocatorIPNS_16__hash_node_baseIPNS_11__hash_nodeINS_17__hash_value_typeINS_12basic_stringIcNS_11char_traitsIcEENS1_IcEEEEdEEPvEEEEEEE4sizeB8ue170006Ev, symObjAddr: 0x7600, symBinAddr: 0x1000124A8, symSize: 0x28 }
  - { offsetInCU: 0x1A3F0, offset: 0x50D1B, size: 0x8, addend: 0x0, symName: __ZNKSt3__117__compressed_pairIPPNS_16__hash_node_baseIPNS_11__hash_nodeINS_17__hash_value_typeINS_12basic_stringIcNS_11char_traitsIcEENS_9allocatorIcEEEEdEEPvEEEENS_25__bucket_list_deallocatorINS7_ISF_EEEEE6secondB8ue170006Ev, symObjAddr: 0x7628, symBinAddr: 0x1000124D0, symSize: 0x28 }
  - { offsetInCU: 0x1A416, offset: 0x50D41, size: 0x8, addend: 0x0, symName: __ZNKSt3__122__compressed_pair_elemINS_25__bucket_list_deallocatorINS_9allocatorIPNS_16__hash_node_baseIPNS_11__hash_nodeINS_17__hash_value_typeINS_12basic_stringIcNS_11char_traitsIcEENS2_IcEEEEdEEPvEEEEEEEELi1ELb0EE5__getB8ue170006Ev, symObjAddr: 0x7650, symBinAddr: 0x1000124F8, symSize: 0x14 }
  - { offsetInCU: 0x1A43C, offset: 0x50D67, size: 0x8, addend: 0x0, symName: __ZNKSt3__117__compressed_pairImNS_9allocatorIPNS_16__hash_node_baseIPNS_11__hash_nodeINS_17__hash_value_typeINS_12basic_stringIcNS_11char_traitsIcEENS1_IcEEEEdEEPvEEEEEEE5firstB8ue170006Ev, symObjAddr: 0x7664, symBinAddr: 0x10001250C, symSize: 0x24 }
  - { offsetInCU: 0x1A462, offset: 0x50D8D, size: 0x8, addend: 0x0, symName: __ZNKSt3__117__compressed_pairIPPNS_16__hash_node_baseIPNS_11__hash_nodeINS_17__hash_value_typeINS_12basic_stringIcNS_11char_traitsIcEENS_9allocatorIcEEEEdEEPvEEEENS_25__bucket_list_deallocatorINS7_ISF_EEEEE5firstB8ue170006Ev, symObjAddr: 0x769C, symBinAddr: 0x100012530, symSize: 0x24 }
  - { offsetInCU: 0x1A488, offset: 0x50DB3, size: 0x8, addend: 0x0, symName: __ZNKSt3__122__compressed_pair_elemIPPNS_16__hash_node_baseIPNS_11__hash_nodeINS_17__hash_value_typeINS_12basic_stringIcNS_11char_traitsIcEENS_9allocatorIcEEEEdEEPvEEEELi0ELb0EE5__getB8ue170006Ev, symObjAddr: 0x76C0, symBinAddr: 0x100012554, symSize: 0x14 }
  - { offsetInCU: 0x1A4AE, offset: 0x50DD9, size: 0x8, addend: 0x0, symName: __ZNSt3__117__compressed_pairIfNS_21__unordered_map_equalINS_12basic_stringIcNS_11char_traitsIcEENS_9allocatorIcEEEENS_17__hash_value_typeIS7_dEENS_8equal_toIS7_EENS_4hashIS7_EELb1EEEE6secondB8ue170006Ev, symObjAddr: 0x76D4, symBinAddr: 0x100012568, symSize: 0x24 }
  - { offsetInCU: 0x1A4D4, offset: 0x50DFF, size: 0x8, addend: 0x0, symName: __ZNSt3__122__compressed_pair_elemINS_21__unordered_map_equalINS_12basic_stringIcNS_11char_traitsIcEENS_9allocatorIcEEEENS_17__hash_value_typeIS7_dEENS_8equal_toIS7_EENS_4hashIS7_EELb1EEELi1ELb1EE5__getB8ue170006Ev, symObjAddr: 0x76F8, symBinAddr: 0x10001258C, symSize: 0x14 }
  - { offsetInCU: 0x1A4FA, offset: 0x50E25, size: 0x8, addend: 0x0, symName: __ZNKSt3__117__hash_value_typeINS_12basic_stringIcNS_11char_traitsIcEENS_9allocatorIcEEEEdE11__get_valueB8ue170006Ev, symObjAddr: 0x7740, symBinAddr: 0x1000125A0, symSize: 0x24 }
  - { offsetInCU: 0x1A520, offset: 0x50E4B, size: 0x8, addend: 0x0, symName: __ZNSt3__116allocator_traitsINS_9allocatorINS_11__hash_nodeINS_17__hash_value_typeINS_12basic_stringIcNS_11char_traitsIcEENS1_IcEEEEdEEPvEEEEE8allocateB8ue170006ERSC_m, symObjAddr: 0x7918, symBinAddr: 0x1000125FC, symSize: 0x2C }
  - { offsetInCU: 0x1A553, offset: 0x50E7E, size: 0x8, addend: 0x0, symName: __ZNSt3__122__hash_node_destructorINS_9allocatorINS_11__hash_nodeINS_17__hash_value_typeINS_12basic_stringIcNS_11char_traitsIcEENS1_IcEEEEdEEPvEEEEEC1B8ue170006ERSC_b, symObjAddr: 0x7944, symBinAddr: 0x100012628, symSize: 0x48 }
  - { offsetInCU: 0x1A5A0, offset: 0x50ECB, size: 0x8, addend: 0x0, symName: __ZNSt3__110unique_ptrINS_11__hash_nodeINS_17__hash_value_typeINS_12basic_stringIcNS_11char_traitsIcEENS_9allocatorIcEEEEdEEPvEENS_22__hash_node_destructorINS6_ISB_EEEEEC1B8ue170006ILb1EvEEPSB_NS_16__dependent_typeINS_27__unique_ptr_deleter_sfinaeISE_EEXT_EE20__good_rval_ref_typeE, symObjAddr: 0x798C, symBinAddr: 0x100012670, symSize: 0x3C }
  - { offsetInCU: 0x1A5F1, offset: 0x50F1C, size: 0x8, addend: 0x0, symName: __ZNSt3__116allocator_traitsINS_9allocatorINS_11__hash_nodeINS_17__hash_value_typeINS_12basic_stringIcNS_11char_traitsIcEENS1_IcEEEEdEEPvEEEEE9constructB8ue170006INS_4pairIKS8_dEEJRKNS_21piecewise_construct_tENS_5tupleIJRSG_EEENSL_IJEEEEvEEvRSC_PT_DpOT0_, symObjAddr: 0x79C8, symBinAddr: 0x1000126AC, symSize: 0x44 }
  - { offsetInCU: 0x1A670, offset: 0x50F9B, size: 0x8, addend: 0x0, symName: __ZNSt3__110unique_ptrINS_11__hash_nodeINS_17__hash_value_typeINS_12basic_stringIcNS_11char_traitsIcEENS_9allocatorIcEEEEdEEPvEENS_22__hash_node_destructorINS6_ISB_EEEEE11get_deleterB8ue170006Ev, symObjAddr: 0x7A0C, symBinAddr: 0x1000126F0, symSize: 0x24 }
  - { offsetInCU: 0x1A696, offset: 0x50FC1, size: 0x8, addend: 0x0, symName: __ZNSt3__19allocatorINS_11__hash_nodeINS_17__hash_value_typeINS_12basic_stringIcNS_11char_traitsIcEENS0_IcEEEEdEEPvEEE8allocateB8ue170006Em, symObjAddr: 0x7A30, symBinAddr: 0x100012714, symSize: 0x5C }
  - { offsetInCU: 0x1A6D4, offset: 0x50FFF, size: 0x8, addend: 0x0, symName: __ZNSt3__116allocator_traitsINS_9allocatorINS_11__hash_nodeINS_17__hash_value_typeINS_12basic_stringIcNS_11char_traitsIcEENS1_IcEEEEdEEPvEEEEE8max_sizeB8ue170006ISC_vEEmRKSC_, symObjAddr: 0x7A8C, symBinAddr: 0x100012770, symSize: 0x24 }
  - { offsetInCU: 0x1A702, offset: 0x5102D, size: 0x8, addend: 0x0, symName: __ZNKSt3__19allocatorINS_11__hash_nodeINS_17__hash_value_typeINS_12basic_stringIcNS_11char_traitsIcEENS0_IcEEEEdEEPvEEE8max_sizeB8ue170006Ev, symObjAddr: 0x7B44, symBinAddr: 0x100012794, symSize: 0x18 }
  - { offsetInCU: 0x1A728, offset: 0x51053, size: 0x8, addend: 0x0, symName: __ZNSt3__122__hash_node_destructorINS_9allocatorINS_11__hash_nodeINS_17__hash_value_typeINS_12basic_stringIcNS_11char_traitsIcEENS1_IcEEEEdEEPvEEEEEC2B8ue170006ERSC_b, symObjAddr: 0x7BAC, symBinAddr: 0x1000127AC, symSize: 0x38 }
  - { offsetInCU: 0x1A770, offset: 0x5109B, size: 0x8, addend: 0x0, symName: __ZNSt3__110unique_ptrINS_11__hash_nodeINS_17__hash_value_typeINS_12basic_stringIcNS_11char_traitsIcEENS_9allocatorIcEEEEdEEPvEENS_22__hash_node_destructorINS6_ISB_EEEEEC2B8ue170006ILb1EvEEPSB_NS_16__dependent_typeINS_27__unique_ptr_deleter_sfinaeISE_EEXT_EE20__good_rval_ref_typeE, symObjAddr: 0x7BE4, symBinAddr: 0x1000127E4, symSize: 0x48 }
  - { offsetInCU: 0x1A7C1, offset: 0x510EC, size: 0x8, addend: 0x0, symName: __ZNSt3__117__compressed_pairIPNS_11__hash_nodeINS_17__hash_value_typeINS_12basic_stringIcNS_11char_traitsIcEENS_9allocatorIcEEEEdEEPvEENS_22__hash_node_destructorINS6_ISB_EEEEEC1B8ue170006IRSC_SF_EEOT_OT0_, symObjAddr: 0x7C2C, symBinAddr: 0x10001282C, symSize: 0x3C }
  - { offsetInCU: 0x1A819, offset: 0x51144, size: 0x8, addend: 0x0, symName: __ZNSt3__117__compressed_pairIPNS_11__hash_nodeINS_17__hash_value_typeINS_12basic_stringIcNS_11char_traitsIcEENS_9allocatorIcEEEEdEEPvEENS_22__hash_node_destructorINS6_ISB_EEEEEC2B8ue170006IRSC_SF_EEOT_OT0_, symObjAddr: 0x7C68, symBinAddr: 0x100012868, symSize: 0x48 }
  - { offsetInCU: 0x1A871, offset: 0x5119C, size: 0x8, addend: 0x0, symName: __ZNSt3__122__compressed_pair_elemIPNS_11__hash_nodeINS_17__hash_value_typeINS_12basic_stringIcNS_11char_traitsIcEENS_9allocatorIcEEEEdEEPvEELi0ELb0EEC2B8ue170006IRSC_vEEOT_, symObjAddr: 0x7CB0, symBinAddr: 0x1000128B0, symSize: 0x24 }
  - { offsetInCU: 0x1A8B3, offset: 0x511DE, size: 0x8, addend: 0x0, symName: __ZNSt3__122__compressed_pair_elemINS_22__hash_node_destructorINS_9allocatorINS_11__hash_nodeINS_17__hash_value_typeINS_12basic_stringIcNS_11char_traitsIcEENS2_IcEEEEdEEPvEEEEEELi1ELb0EEC2B8ue170006ISE_vEEOT_, symObjAddr: 0x7CD4, symBinAddr: 0x1000128D4, symSize: 0x24 }
  - { offsetInCU: 0x1A8F5, offset: 0x51220, size: 0x8, addend: 0x0, symName: __ZNSt3__19allocatorINS_11__hash_nodeINS_17__hash_value_typeINS_12basic_stringIcNS_11char_traitsIcEENS0_IcEEEEdEEPvEEE9constructB8ue170006INS_4pairIKS7_dEEJRKNS_21piecewise_construct_tENS_5tupleIJRSE_EEENSJ_IJEEEEEEvPT_DpOT0_, symObjAddr: 0x7CF8, symBinAddr: 0x1000128F8, symSize: 0x44 }
  - { offsetInCU: 0x1A971, offset: 0x5129C, size: 0x8, addend: 0x0, symName: __ZNSt3__14pairIKNS_12basic_stringIcNS_11char_traitsIcEENS_9allocatorIcEEEEdEC1B8ue170006IJRS7_EJEEENS_21piecewise_construct_tENS_5tupleIJDpT_EEENSC_IJDpT0_EEE, symObjAddr: 0x7D3C, symBinAddr: 0x10001293C, symSize: 0x3C }
  - { offsetInCU: 0x1A9D8, offset: 0x51303, size: 0x8, addend: 0x0, symName: __ZNSt3__14pairIKNS_12basic_stringIcNS_11char_traitsIcEENS_9allocatorIcEEEEdEC1B8ue170006IJRS7_EJEJLm0EEJEEENS_21piecewise_construct_tERNS_5tupleIJDpT_EEERNSC_IJDpT0_EEENS_15__tuple_indicesIJXspT1_EEEENSL_IJXspT2_EEEE, symObjAddr: 0x7D78, symBinAddr: 0x100012978, symSize: 0x3C }
  - { offsetInCU: 0x1AA68, offset: 0x51393, size: 0x8, addend: 0x0, symName: __ZNSt3__14pairIKNS_12basic_stringIcNS_11char_traitsIcEENS_9allocatorIcEEEEdEC2B8ue170006IJRS7_EJEJLm0EEJEEENS_21piecewise_construct_tERNS_5tupleIJDpT_EEERNSC_IJDpT0_EEENS_15__tuple_indicesIJXspT1_EEEENSL_IJXspT2_EEEE, symObjAddr: 0x7DB4, symBinAddr: 0x1000129B4, symSize: 0x4C }
  - { offsetInCU: 0x1AAF8, offset: 0x51423, size: 0x8, addend: 0x0, symName: __ZNSt3__117__compressed_pairIPNS_11__hash_nodeINS_17__hash_value_typeINS_12basic_stringIcNS_11char_traitsIcEENS_9allocatorIcEEEEdEEPvEENS_22__hash_node_destructorINS6_ISB_EEEEE6secondB8ue170006Ev, symObjAddr: 0x7E3C, symBinAddr: 0x100012A00, symSize: 0x28 }
  - { offsetInCU: 0x1AB1E, offset: 0x51449, size: 0x8, addend: 0x0, symName: __ZNSt3__122__compressed_pair_elemINS_22__hash_node_destructorINS_9allocatorINS_11__hash_nodeINS_17__hash_value_typeINS_12basic_stringIcNS_11char_traitsIcEENS2_IcEEEEdEEPvEEEEEELi1ELb0EE5__getB8ue170006Ev, symObjAddr: 0x7E64, symBinAddr: 0x100012A28, symSize: 0x14 }
  - { offsetInCU: 0x1AB44, offset: 0x5146F, size: 0x8, addend: 0x0, symName: __ZNSt3__117__compressed_pairImNS_22__unordered_map_hasherINS_12basic_stringIcNS_11char_traitsIcEENS_9allocatorIcEEEENS_17__hash_value_typeIS7_dEENS_4hashIS7_EENS_8equal_toIS7_EELb1EEEE5firstB8ue170006Ev, symObjAddr: 0x7E78, symBinAddr: 0x100012A3C, symSize: 0x24 }
  - { offsetInCU: 0x1AB6A, offset: 0x51495, size: 0x8, addend: 0x0, symName: __ZNSt3__117__compressed_pairIfNS_21__unordered_map_equalINS_12basic_stringIcNS_11char_traitsIcEENS_9allocatorIcEEEENS_17__hash_value_typeIS7_dEENS_8equal_toIS7_EENS_4hashIS7_EELb1EEEE5firstB8ue170006Ev, symObjAddr: 0x7E9C, symBinAddr: 0x100012A60, symSize: 0x24 }
  - { offsetInCU: 0x1AB90, offset: 0x514BB, size: 0x8, addend: 0x0, symName: __ZNSt3__112__hash_tableINS_17__hash_value_typeINS_12basic_stringIcNS_11char_traitsIcEENS_9allocatorIcEEEEdEENS_22__unordered_map_hasherIS7_S8_NS_4hashIS7_EENS_8equal_toIS7_EELb1EEENS_21__unordered_map_equalIS7_S8_SD_SB_Lb1EEENS5_IS8_EEE8__rehashILb1EEEvm, symObjAddr: 0x7ED4, symBinAddr: 0x100012A84, symSize: 0x1A8 }
  - { offsetInCU: 0x1ABE0, offset: 0x5150B, size: 0x8, addend: 0x0, symName: __ZNSt3__112__hash_tableINS_17__hash_value_typeINS_12basic_stringIcNS_11char_traitsIcEENS_9allocatorIcEEEEdEENS_22__unordered_map_hasherIS7_S8_NS_4hashIS7_EENS_8equal_toIS7_EELb1EEENS_21__unordered_map_equalIS7_S8_SD_SB_Lb1EEENS5_IS8_EEE11__do_rehashILb1EEEvm, symObjAddr: 0x807C, symBinAddr: 0x100012C2C, symSize: 0x288 }
  - { offsetInCU: 0x1ACC3, offset: 0x515EE, size: 0x8, addend: 0x0, symName: __ZNSt3__110unique_ptrIA_PNS_16__hash_node_baseIPNS_11__hash_nodeINS_17__hash_value_typeINS_12basic_stringIcNS_11char_traitsIcEENS_9allocatorIcEEEEdEEPvEEEENS_25__bucket_list_deallocatorINS7_ISF_EEEEE11get_deleterB8ue170006Ev, symObjAddr: 0x8370, symBinAddr: 0x100012EB4, symSize: 0x24 }
  - { offsetInCU: 0x1ACE9, offset: 0x51614, size: 0x8, addend: 0x0, symName: __ZNSt3__110unique_ptrIA_PNS_16__hash_node_baseIPNS_11__hash_nodeINS_17__hash_value_typeINS_12basic_stringIcNS_11char_traitsIcEENS_9allocatorIcEEEEdEEPvEEEENS_25__bucket_list_deallocatorINS7_ISF_EEEEE5resetB8ue170006IPSF_EENS_9enable_ifIXsr28_CheckArrayPointerConversionIT_EE5valueEvE4typeESO_, symObjAddr: 0x8394, symBinAddr: 0x100012ED8, symSize: 0x78 }
  - { offsetInCU: 0x1AD36, offset: 0x51661, size: 0x8, addend: 0x0, symName: __ZNSt3__116allocator_traitsINS_9allocatorIPNS_16__hash_node_baseIPNS_11__hash_nodeINS_17__hash_value_typeINS_12basic_stringIcNS_11char_traitsIcEENS1_IcEEEEdEEPvEEEEEEE8allocateB8ue170006ERSG_m, symObjAddr: 0x840C, symBinAddr: 0x100012F50, symSize: 0x2C }
  - { offsetInCU: 0x1AD69, offset: 0x51694, size: 0x8, addend: 0x0, symName: __ZNSt3__19allocatorIPNS_16__hash_node_baseIPNS_11__hash_nodeINS_17__hash_value_typeINS_12basic_stringIcNS_11char_traitsIcEENS0_IcEEEEdEEPvEEEEE8allocateB8ue170006Em, symObjAddr: 0x8438, symBinAddr: 0x100012F7C, symSize: 0x58 }
  - { offsetInCU: 0x1ADA7, offset: 0x516D2, size: 0x8, addend: 0x0, symName: __ZNSt3__116allocator_traitsINS_9allocatorIPNS_16__hash_node_baseIPNS_11__hash_nodeINS_17__hash_value_typeINS_12basic_stringIcNS_11char_traitsIcEENS1_IcEEEEdEEPvEEEEEEE8max_sizeB8ue170006ISG_vEEmRKSG_, symObjAddr: 0x8490, symBinAddr: 0x100012FD4, symSize: 0x24 }
  - { offsetInCU: 0x1ADD5, offset: 0x51700, size: 0x8, addend: 0x0, symName: __ZNKSt3__19allocatorIPNS_16__hash_node_baseIPNS_11__hash_nodeINS_17__hash_value_typeINS_12basic_stringIcNS_11char_traitsIcEENS0_IcEEEEdEEPvEEEEE8max_sizeB8ue170006Ev, symObjAddr: 0x84B4, symBinAddr: 0x100012FF8, symSize: 0x14 }
  - { offsetInCU: 0x1ADFB, offset: 0x51726, size: 0x8, addend: 0x0, symName: __ZNKSt3__117__compressed_pairIPNS_11__hash_nodeINS_17__hash_value_typeINS_12basic_stringIcNS_11char_traitsIcEENS_9allocatorIcEEEEdEEPvEENS_22__hash_node_destructorINS6_ISB_EEEEE5firstB8ue170006Ev, symObjAddr: 0x856C, symBinAddr: 0x10001300C, symSize: 0x24 }
  - { offsetInCU: 0x1AE21, offset: 0x5174C, size: 0x8, addend: 0x0, symName: __ZNKSt3__122__compressed_pair_elemIPNS_11__hash_nodeINS_17__hash_value_typeINS_12basic_stringIcNS_11char_traitsIcEENS_9allocatorIcEEEEdEEPvEELi0ELb0EE5__getB8ue170006Ev, symObjAddr: 0x8590, symBinAddr: 0x100013030, symSize: 0x14 }
  - { offsetInCU: 0x1AE47, offset: 0x51772, size: 0x8, addend: 0x0, symName: __ZNSt3__117__compressed_pairIPNS_11__hash_nodeINS_17__hash_value_typeINS_12basic_stringIcNS_11char_traitsIcEENS_9allocatorIcEEEEdEEPvEENS_22__hash_node_destructorINS6_ISB_EEEEE5firstB8ue170006Ev, symObjAddr: 0x85A4, symBinAddr: 0x100013044, symSize: 0x24 }
  - { offsetInCU: 0x1AE6D, offset: 0x51798, size: 0x8, addend: 0x0, symName: __ZNSt3__122__compressed_pair_elemIPNS_11__hash_nodeINS_17__hash_value_typeINS_12basic_stringIcNS_11char_traitsIcEENS_9allocatorIcEEEEdEEPvEELi0ELb0EE5__getB8ue170006Ev, symObjAddr: 0x85C8, symBinAddr: 0x100013068, symSize: 0x14 }
  - { offsetInCU: 0x1AE93, offset: 0x517BE, size: 0x8, addend: 0x0, symName: __ZNSt3__110unique_ptrINS_11__hash_nodeINS_17__hash_value_typeINS_12basic_stringIcNS_11char_traitsIcEENS_9allocatorIcEEEEdEEPvEENS_22__hash_node_destructorINS6_ISB_EEEEED2B8ue170006Ev, symObjAddr: 0x85DC, symBinAddr: 0x10001307C, symSize: 0x30 }
  - { offsetInCU: 0x1AEBD, offset: 0x517E8, size: 0x8, addend: 0x0, symName: __ZNSt3__110unique_ptrINS_11__hash_nodeINS_17__hash_value_typeINS_12basic_stringIcNS_11char_traitsIcEENS_9allocatorIcEEEEdEEPvEENS_22__hash_node_destructorINS6_ISB_EEEEE5resetB8ue170006EPSB_, symObjAddr: 0x860C, symBinAddr: 0x1000130AC, symSize: 0x78 }
  - { offsetInCU: 0x1AF01, offset: 0x5182C, size: 0x8, addend: 0x0, symName: __ZNSt3__122__hash_node_destructorINS_9allocatorINS_11__hash_nodeINS_17__hash_value_typeINS_12basic_stringIcNS_11char_traitsIcEENS1_IcEEEEdEEPvEEEEEclB8ue170006EPSB_, symObjAddr: 0x8684, symBinAddr: 0x100013124, symSize: 0x94 }
  - { offsetInCU: 0x1AF36, offset: 0x51861, size: 0x8, addend: 0x0, symName: __ZNSt3__115__hash_iteratorIPNS_11__hash_nodeINS_17__hash_value_typeINS_12basic_stringIcNS_11char_traitsIcEENS_9allocatorIcEEEEdEEPvEEEC2B8ue170006EPNS_16__hash_node_baseISC_EE, symObjAddr: 0x8718, symBinAddr: 0x1000131B8, symSize: 0x20 }
  - { offsetInCU: 0x1AF6F, offset: 0x5189A, size: 0x8, addend: 0x0, symName: __ZNSt3__14pairINS_15__hash_iteratorIPNS_11__hash_nodeINS_17__hash_value_typeINS_12basic_stringIcNS_11char_traitsIcEENS_9allocatorIcEEEEdEEPvEEEEbEC2B8ue170006ISE_RbLSB_0EEEOT_OT0_, symObjAddr: 0x8738, symBinAddr: 0x1000131D8, symSize: 0x38 }
  - { offsetInCU: 0x1AFCD, offset: 0x518F8, size: 0x8, addend: 0x0, symName: __ZNSt3__114pointer_traitsIPNS_17__hash_value_typeINS_12basic_stringIcNS_11char_traitsIcEENS_9allocatorIcEEEEdEEE10pointer_toB8ue170006ERS8_, symObjAddr: 0x8860, symBinAddr: 0x100013210, symSize: 0x14 }
  - { offsetInCU: 0x1AFF0, offset: 0x5191B, size: 0x8, addend: 0x0, symName: __ZNSt3__112__hash_tableINS_17__hash_value_typeINS_12basic_stringIcNS_11char_traitsIcEENS_9allocatorIcEEEENS_14priority_queueI5OrderNS_6vectorIS9_NS5_IS9_EEEE18BuyOrderComparatorEEEENS_22__unordered_map_hasherIS7_SF_NS_4hashIS7_EENS_8equal_toIS7_EELb1EEENS_21__unordered_map_equalIS7_SF_SK_SI_Lb1EEENS5_ISF_EEE25__emplace_unique_key_argsIS7_JRKNS_21piecewise_construct_tENS_5tupleIJRKS7_EEENSU_IJEEEEEENS_4pairINS_15__hash_iteratorIPNS_11__hash_nodeISF_PvEEEEbEERKT_DpOT0_, symObjAddr: 0x8874, symBinAddr: 0x100013224, symSize: 0x4CC }
  - { offsetInCU: 0x1B0FB, offset: 0x51A26, size: 0x8, addend: 0x0, symName: __ZNKSt3__115__hash_iteratorIPNS_11__hash_nodeINS_17__hash_value_typeINS_12basic_stringIcNS_11char_traitsIcEENS_9allocatorIcEEEENS_14priority_queueI5OrderNS_6vectorISA_NS6_ISA_EEEE18BuyOrderComparatorEEEEPvEEEptB8ue170006Ev, symObjAddr: 0x8D40, symBinAddr: 0x1000136F0, symSize: 0x30 }
  - { offsetInCU: 0x1B121, offset: 0x51A4C, size: 0x8, addend: 0x0, symName: __ZNSt3__112__hash_tableINS_17__hash_value_typeINS_12basic_stringIcNS_11char_traitsIcEENS_9allocatorIcEEEENS_14priority_queueI5OrderNS_6vectorIS9_NS5_IS9_EEEE18BuyOrderComparatorEEEENS_22__unordered_map_hasherIS7_SF_NS_4hashIS7_EENS_8equal_toIS7_EELb1EEENS_21__unordered_map_equalIS7_SF_SK_SI_Lb1EEENS5_ISF_EEE13hash_functionB8ue170006Ev, symObjAddr: 0x8D70, symBinAddr: 0x100013720, symSize: 0x28 }
  - { offsetInCU: 0x1B147, offset: 0x51A72, size: 0x8, addend: 0x0, symName: __ZNKSt3__122__unordered_map_hasherINS_12basic_stringIcNS_11char_traitsIcEENS_9allocatorIcEEEENS_17__hash_value_typeIS6_NS_14priority_queueI5OrderNS_6vectorIS9_NS4_IS9_EEEE18BuyOrderComparatorEEEENS_4hashIS6_EENS_8equal_toIS6_EELb1EEclB8ue170006ERKS6_, symObjAddr: 0x8D98, symBinAddr: 0x100013748, symSize: 0x2C }
  - { offsetInCU: 0x1B17C, offset: 0x51AA7, size: 0x8, addend: 0x0, symName: __ZNKSt3__112__hash_tableINS_17__hash_value_typeINS_12basic_stringIcNS_11char_traitsIcEENS_9allocatorIcEEEENS_14priority_queueI5OrderNS_6vectorIS9_NS5_IS9_EEEE18BuyOrderComparatorEEEENS_22__unordered_map_hasherIS7_SF_NS_4hashIS7_EENS_8equal_toIS7_EELb1EEENS_21__unordered_map_equalIS7_SF_SK_SI_Lb1EEENS5_ISF_EEE12bucket_countB8ue170006Ev, symObjAddr: 0x8DC4, symBinAddr: 0x100013774, symSize: 0x28 }
  - { offsetInCU: 0x1B1A2, offset: 0x51ACD, size: 0x8, addend: 0x0, symName: __ZNKSt3__110unique_ptrIA_PNS_16__hash_node_baseIPNS_11__hash_nodeINS_17__hash_value_typeINS_12basic_stringIcNS_11char_traitsIcEENS_9allocatorIcEEEENS_14priority_queueI5OrderNS_6vectorISB_NS7_ISB_EEEE18BuyOrderComparatorEEEEPvEEEENS_25__bucket_list_deallocatorINS7_ISM_EEEEEixB8ue170006Em, symObjAddr: 0x8DEC, symBinAddr: 0x10001379C, symSize: 0x34 }
  - { offsetInCU: 0x1B1D7, offset: 0x51B02, size: 0x8, addend: 0x0, symName: __ZNKSt3__116__hash_node_baseIPNS_11__hash_nodeINS_17__hash_value_typeINS_12basic_stringIcNS_11char_traitsIcEENS_9allocatorIcEEEENS_14priority_queueI5OrderNS_6vectorISA_NS6_ISA_EEEE18BuyOrderComparatorEEEEPvEEE6__hashB8ue170006Ev, symObjAddr: 0x8E20, symBinAddr: 0x1000137D0, symSize: 0x18 }
  - { offsetInCU: 0x1B1FD, offset: 0x51B28, size: 0x8, addend: 0x0, symName: __ZNSt3__112__hash_tableINS_17__hash_value_typeINS_12basic_stringIcNS_11char_traitsIcEENS_9allocatorIcEEEENS_14priority_queueI5OrderNS_6vectorIS9_NS5_IS9_EEEE18BuyOrderComparatorEEEENS_22__unordered_map_hasherIS7_SF_NS_4hashIS7_EENS_8equal_toIS7_EELb1EEENS_21__unordered_map_equalIS7_SF_SK_SI_Lb1EEENS5_ISF_EEE6key_eqB8ue170006Ev, symObjAddr: 0x8E38, symBinAddr: 0x1000137E8, symSize: 0x28 }
  - { offsetInCU: 0x1B223, offset: 0x51B4E, size: 0x8, addend: 0x0, symName: __ZNKSt3__121__unordered_map_equalINS_12basic_stringIcNS_11char_traitsIcEENS_9allocatorIcEEEENS_17__hash_value_typeIS6_NS_14priority_queueI5OrderNS_6vectorIS9_NS4_IS9_EEEE18BuyOrderComparatorEEEENS_8equal_toIS6_EENS_4hashIS6_EELb1EEclB8ue170006ERKSF_RKS6_, symObjAddr: 0x8E60, symBinAddr: 0x100013810, symSize: 0x48 }
  - { offsetInCU: 0x1B267, offset: 0x51B92, size: 0x8, addend: 0x0, symName: __ZNSt3__112__hash_tableINS_17__hash_value_typeINS_12basic_stringIcNS_11char_traitsIcEENS_9allocatorIcEEEENS_14priority_queueI5OrderNS_6vectorIS9_NS5_IS9_EEEE18BuyOrderComparatorEEEENS_22__unordered_map_hasherIS7_SF_NS_4hashIS7_EENS_8equal_toIS7_EELb1EEENS_21__unordered_map_equalIS7_SF_SK_SI_Lb1EEENS5_ISF_EEE21__construct_node_hashIRKNS_21piecewise_construct_tEJNS_5tupleIJRKS7_EEENSU_IJEEEEEENS_10unique_ptrINS_11__hash_nodeISF_PvEENS_22__hash_node_destructorINS5_IS12_EEEEEEmOT_DpOT0_, symObjAddr: 0x8EA8, symBinAddr: 0x100013858, symSize: 0x150 }
  - { offsetInCU: 0x1B303, offset: 0x51C2E, size: 0x8, addend: 0x0, symName: __ZNSt3__112__hash_tableINS_17__hash_value_typeINS_12basic_stringIcNS_11char_traitsIcEENS_9allocatorIcEEEENS_14priority_queueI5OrderNS_6vectorIS9_NS5_IS9_EEEE18BuyOrderComparatorEEEENS_22__unordered_map_hasherIS7_SF_NS_4hashIS7_EENS_8equal_toIS7_EELb1EEENS_21__unordered_map_equalIS7_SF_SK_SI_Lb1EEENS5_ISF_EEE4sizeB8ue170006Ev, symObjAddr: 0x8FF8, symBinAddr: 0x1000139A8, symSize: 0x28 }
  - { offsetInCU: 0x1B329, offset: 0x51C54, size: 0x8, addend: 0x0, symName: __ZNSt3__112__hash_tableINS_17__hash_value_typeINS_12basic_stringIcNS_11char_traitsIcEENS_9allocatorIcEEEENS_14priority_queueI5OrderNS_6vectorIS9_NS5_IS9_EEEE18BuyOrderComparatorEEEENS_22__unordered_map_hasherIS7_SF_NS_4hashIS7_EENS_8equal_toIS7_EELb1EEENS_21__unordered_map_equalIS7_SF_SK_SI_Lb1EEENS5_ISF_EEE15max_load_factorB8ue170006Ev, symObjAddr: 0x9020, symBinAddr: 0x1000139D0, symSize: 0x28 }
  - { offsetInCU: 0x1B34F, offset: 0x51C7A, size: 0x8, addend: 0x0, symName: __ZNSt3__112__hash_tableINS_17__hash_value_typeINS_12basic_stringIcNS_11char_traitsIcEENS_9allocatorIcEEEENS_14priority_queueI5OrderNS_6vectorIS9_NS5_IS9_EEEE18BuyOrderComparatorEEEENS_22__unordered_map_hasherIS7_SF_NS_4hashIS7_EENS_8equal_toIS7_EELb1EEENS_21__unordered_map_equalIS7_SF_SK_SI_Lb1EEENS5_ISF_EEE15__rehash_uniqueB8ue170006Em, symObjAddr: 0x9048, symBinAddr: 0x1000139F8, symSize: 0x2C }
  - { offsetInCU: 0x1B384, offset: 0x51CAF, size: 0x8, addend: 0x0, symName: __ZNSt3__116__hash_node_baseIPNS_11__hash_nodeINS_17__hash_value_typeINS_12basic_stringIcNS_11char_traitsIcEENS_9allocatorIcEEEENS_14priority_queueI5OrderNS_6vectorISA_NS6_ISA_EEEE18BuyOrderComparatorEEEEPvEEE5__ptrB8ue170006Ev, symObjAddr: 0x9074, symBinAddr: 0x100013A24, symSize: 0x24 }
  - { offsetInCU: 0x1B3AA, offset: 0x51CD5, size: 0x8, addend: 0x0, symName: __ZNKSt3__110unique_ptrINS_11__hash_nodeINS_17__hash_value_typeINS_12basic_stringIcNS_11char_traitsIcEENS_9allocatorIcEEEENS_14priority_queueI5OrderNS_6vectorISA_NS6_ISA_EEEE18BuyOrderComparatorEEEEPvEENS_22__hash_node_destructorINS6_ISI_EEEEEptB8ue170006Ev, symObjAddr: 0x9098, symBinAddr: 0x100013A48, symSize: 0x28 }
  - { offsetInCU: 0x1B3D0, offset: 0x51CFB, size: 0x8, addend: 0x0, symName: __ZNKSt3__110unique_ptrINS_11__hash_nodeINS_17__hash_value_typeINS_12basic_stringIcNS_11char_traitsIcEENS_9allocatorIcEEEENS_14priority_queueI5OrderNS_6vectorISA_NS6_ISA_EEEE18BuyOrderComparatorEEEEPvEENS_22__hash_node_destructorINS6_ISI_EEEEE3getB8ue170006Ev, symObjAddr: 0x90C0, symBinAddr: 0x100013A70, symSize: 0x28 }
  - { offsetInCU: 0x1B3F6, offset: 0x51D21, size: 0x8, addend: 0x0, symName: __ZNSt3__110unique_ptrINS_11__hash_nodeINS_17__hash_value_typeINS_12basic_stringIcNS_11char_traitsIcEENS_9allocatorIcEEEENS_14priority_queueI5OrderNS_6vectorISA_NS6_ISA_EEEE18BuyOrderComparatorEEEEPvEENS_22__hash_node_destructorINS6_ISI_EEEEE7releaseB8ue170006Ev, symObjAddr: 0x90E8, symBinAddr: 0x100013A98, symSize: 0x44 }
  - { offsetInCU: 0x1B42B, offset: 0x51D56, size: 0x8, addend: 0x0, symName: __ZNSt3__110unique_ptrINS_11__hash_nodeINS_17__hash_value_typeINS_12basic_stringIcNS_11char_traitsIcEENS_9allocatorIcEEEENS_14priority_queueI5OrderNS_6vectorISA_NS6_ISA_EEEE18BuyOrderComparatorEEEEPvEENS_22__hash_node_destructorINS6_ISI_EEEEED1B8ue170006Ev, symObjAddr: 0x912C, symBinAddr: 0x100013ADC, symSize: 0x2C }
  - { offsetInCU: 0x1B455, offset: 0x51D80, size: 0x8, addend: 0x0, symName: __ZNSt3__115__hash_iteratorIPNS_11__hash_nodeINS_17__hash_value_typeINS_12basic_stringIcNS_11char_traitsIcEENS_9allocatorIcEEEENS_14priority_queueI5OrderNS_6vectorISA_NS6_ISA_EEEE18BuyOrderComparatorEEEEPvEEEC1B8ue170006EPNS_16__hash_node_baseISJ_EE, symObjAddr: 0x9158, symBinAddr: 0x100013B08, symSize: 0x34 }
  - { offsetInCU: 0x1B493, offset: 0x51DBE, size: 0x8, addend: 0x0, symName: __ZNSt3__14pairINS_15__hash_iteratorIPNS_11__hash_nodeINS_17__hash_value_typeINS_12basic_stringIcNS_11char_traitsIcEENS_9allocatorIcEEEENS_14priority_queueI5OrderNS_6vectorISB_NS7_ISB_EEEE18BuyOrderComparatorEEEEPvEEEEbEC1B8ue170006ISL_RbLSI_0EEEOT_OT0_, symObjAddr: 0x918C, symBinAddr: 0x100013B3C, symSize: 0x3C }
  - { offsetInCU: 0x1B4F1, offset: 0x51E1C, size: 0x8, addend: 0x0, symName: __ZNSt3__117__compressed_pairImNS_22__unordered_map_hasherINS_12basic_stringIcNS_11char_traitsIcEENS_9allocatorIcEEEENS_17__hash_value_typeIS7_NS_14priority_queueI5OrderNS_6vectorISA_NS5_ISA_EEEE18BuyOrderComparatorEEEENS_4hashIS7_EENS_8equal_toIS7_EELb1EEEE6secondB8ue170006Ev, symObjAddr: 0x91C8, symBinAddr: 0x100013B78, symSize: 0x24 }
  - { offsetInCU: 0x1B517, offset: 0x51E42, size: 0x8, addend: 0x0, symName: __ZNSt3__122__compressed_pair_elemINS_22__unordered_map_hasherINS_12basic_stringIcNS_11char_traitsIcEENS_9allocatorIcEEEENS_17__hash_value_typeIS7_NS_14priority_queueI5OrderNS_6vectorISA_NS5_ISA_EEEE18BuyOrderComparatorEEEENS_4hashIS7_EENS_8equal_toIS7_EELb1EEELi1ELb1EE5__getB8ue170006Ev, symObjAddr: 0x91EC, symBinAddr: 0x100013B9C, symSize: 0x14 }
  - { offsetInCU: 0x1B53D, offset: 0x51E68, size: 0x8, addend: 0x0, symName: __ZNKSt3__110unique_ptrIA_PNS_16__hash_node_baseIPNS_11__hash_nodeINS_17__hash_value_typeINS_12basic_stringIcNS_11char_traitsIcEENS_9allocatorIcEEEENS_14priority_queueI5OrderNS_6vectorISB_NS7_ISB_EEEE18BuyOrderComparatorEEEEPvEEEENS_25__bucket_list_deallocatorINS7_ISM_EEEEE11get_deleterB8ue170006Ev, symObjAddr: 0x9200, symBinAddr: 0x100013BB0, symSize: 0x24 }
  - { offsetInCU: 0x1B563, offset: 0x51E8E, size: 0x8, addend: 0x0, symName: __ZNKSt3__125__bucket_list_deallocatorINS_9allocatorIPNS_16__hash_node_baseIPNS_11__hash_nodeINS_17__hash_value_typeINS_12basic_stringIcNS_11char_traitsIcEENS1_IcEEEENS_14priority_queueI5OrderNS_6vectorISB_NS1_ISB_EEEE18BuyOrderComparatorEEEEPvEEEEEEE4sizeB8ue170006Ev, symObjAddr: 0x9224, symBinAddr: 0x100013BD4, symSize: 0x28 }
  - { offsetInCU: 0x1B589, offset: 0x51EB4, size: 0x8, addend: 0x0, symName: __ZNKSt3__117__compressed_pairIPPNS_16__hash_node_baseIPNS_11__hash_nodeINS_17__hash_value_typeINS_12basic_stringIcNS_11char_traitsIcEENS_9allocatorIcEEEENS_14priority_queueI5OrderNS_6vectorISB_NS7_ISB_EEEE18BuyOrderComparatorEEEEPvEEEENS_25__bucket_list_deallocatorINS7_ISM_EEEEE6secondB8ue170006Ev, symObjAddr: 0x924C, symBinAddr: 0x100013BFC, symSize: 0x28 }
  - { offsetInCU: 0x1B5AF, offset: 0x51EDA, size: 0x8, addend: 0x0, symName: __ZNKSt3__122__compressed_pair_elemINS_25__bucket_list_deallocatorINS_9allocatorIPNS_16__hash_node_baseIPNS_11__hash_nodeINS_17__hash_value_typeINS_12basic_stringIcNS_11char_traitsIcEENS2_IcEEEENS_14priority_queueI5OrderNS_6vectorISC_NS2_ISC_EEEE18BuyOrderComparatorEEEEPvEEEEEEEELi1ELb0EE5__getB8ue170006Ev, symObjAddr: 0x9274, symBinAddr: 0x100013C24, symSize: 0x14 }
  - { offsetInCU: 0x1B5D5, offset: 0x51F00, size: 0x8, addend: 0x0, symName: __ZNKSt3__117__compressed_pairImNS_9allocatorIPNS_16__hash_node_baseIPNS_11__hash_nodeINS_17__hash_value_typeINS_12basic_stringIcNS_11char_traitsIcEENS1_IcEEEENS_14priority_queueI5OrderNS_6vectorISB_NS1_ISB_EEEE18BuyOrderComparatorEEEEPvEEEEEEE5firstB8ue170006Ev, symObjAddr: 0x9288, symBinAddr: 0x100013C38, symSize: 0x24 }
  - { offsetInCU: 0x1B5FB, offset: 0x51F26, size: 0x8, addend: 0x0, symName: __ZNKSt3__117__compressed_pairIPPNS_16__hash_node_baseIPNS_11__hash_nodeINS_17__hash_value_typeINS_12basic_stringIcNS_11char_traitsIcEENS_9allocatorIcEEEENS_14priority_queueI5OrderNS_6vectorISB_NS7_ISB_EEEE18BuyOrderComparatorEEEEPvEEEENS_25__bucket_list_deallocatorINS7_ISM_EEEEE5firstB8ue170006Ev, symObjAddr: 0x92AC, symBinAddr: 0x100013C5C, symSize: 0x24 }
  - { offsetInCU: 0x1B621, offset: 0x51F4C, size: 0x8, addend: 0x0, symName: __ZNKSt3__122__compressed_pair_elemIPPNS_16__hash_node_baseIPNS_11__hash_nodeINS_17__hash_value_typeINS_12basic_stringIcNS_11char_traitsIcEENS_9allocatorIcEEEENS_14priority_queueI5OrderNS_6vectorISB_NS7_ISB_EEEE18BuyOrderComparatorEEEEPvEEEELi0ELb0EE5__getB8ue170006Ev, symObjAddr: 0x92D0, symBinAddr: 0x100013C80, symSize: 0x14 }
  - { offsetInCU: 0x1B647, offset: 0x51F72, size: 0x8, addend: 0x0, symName: __ZNSt3__117__compressed_pairIfNS_21__unordered_map_equalINS_12basic_stringIcNS_11char_traitsIcEENS_9allocatorIcEEEENS_17__hash_value_typeIS7_NS_14priority_queueI5OrderNS_6vectorISA_NS5_ISA_EEEE18BuyOrderComparatorEEEENS_8equal_toIS7_EENS_4hashIS7_EELb1EEEE6secondB8ue170006Ev, symObjAddr: 0x92E4, symBinAddr: 0x100013C94, symSize: 0x24 }
  - { offsetInCU: 0x1B66D, offset: 0x51F98, size: 0x8, addend: 0x0, symName: __ZNSt3__122__compressed_pair_elemINS_21__unordered_map_equalINS_12basic_stringIcNS_11char_traitsIcEENS_9allocatorIcEEEENS_17__hash_value_typeIS7_NS_14priority_queueI5OrderNS_6vectorISA_NS5_ISA_EEEE18BuyOrderComparatorEEEENS_8equal_toIS7_EENS_4hashIS7_EELb1EEELi1ELb1EE5__getB8ue170006Ev, symObjAddr: 0x9308, symBinAddr: 0x100013CB8, symSize: 0x14 }
  - { offsetInCU: 0x1B693, offset: 0x51FBE, size: 0x8, addend: 0x0, symName: __ZNKSt3__117__hash_value_typeINS_12basic_stringIcNS_11char_traitsIcEENS_9allocatorIcEEEENS_14priority_queueI5OrderNS_6vectorIS8_NS4_IS8_EEEE18BuyOrderComparatorEEE11__get_valueB8ue170006Ev, symObjAddr: 0x931C, symBinAddr: 0x100013CCC, symSize: 0x24 }
  - { offsetInCU: 0x1B6B9, offset: 0x51FE4, size: 0x8, addend: 0x0, symName: __ZNSt3__116allocator_traitsINS_9allocatorINS_11__hash_nodeINS_17__hash_value_typeINS_12basic_stringIcNS_11char_traitsIcEENS1_IcEEEENS_14priority_queueI5OrderNS_6vectorISA_NS1_ISA_EEEE18BuyOrderComparatorEEEEPvEEEEE8allocateB8ue170006ERSJ_m, symObjAddr: 0x9378, symBinAddr: 0x100013D28, symSize: 0x2C }
  - { offsetInCU: 0x1B6EC, offset: 0x52017, size: 0x8, addend: 0x0, symName: __ZNSt3__122__hash_node_destructorINS_9allocatorINS_11__hash_nodeINS_17__hash_value_typeINS_12basic_stringIcNS_11char_traitsIcEENS1_IcEEEENS_14priority_queueI5OrderNS_6vectorISA_NS1_ISA_EEEE18BuyOrderComparatorEEEEPvEEEEEC1B8ue170006ERSJ_b, symObjAddr: 0x93A4, symBinAddr: 0x100013D54, symSize: 0x48 }
  - { offsetInCU: 0x1B739, offset: 0x52064, size: 0x8, addend: 0x0, symName: __ZNSt3__110unique_ptrINS_11__hash_nodeINS_17__hash_value_typeINS_12basic_stringIcNS_11char_traitsIcEENS_9allocatorIcEEEENS_14priority_queueI5OrderNS_6vectorISA_NS6_ISA_EEEE18BuyOrderComparatorEEEEPvEENS_22__hash_node_destructorINS6_ISI_EEEEEC1B8ue170006ILb1EvEEPSI_NS_16__dependent_typeINS_27__unique_ptr_deleter_sfinaeISL_EEXT_EE20__good_rval_ref_typeE, symObjAddr: 0x93EC, symBinAddr: 0x100013D9C, symSize: 0x3C }
  - { offsetInCU: 0x1B78A, offset: 0x520B5, size: 0x8, addend: 0x0, symName: __ZNSt3__116allocator_traitsINS_9allocatorINS_11__hash_nodeINS_17__hash_value_typeINS_12basic_stringIcNS_11char_traitsIcEENS1_IcEEEENS_14priority_queueI5OrderNS_6vectorISA_NS1_ISA_EEEE18BuyOrderComparatorEEEEPvEEEEE9constructB8ue170006INS_4pairIKS8_SF_EEJRKNS_21piecewise_construct_tENS_5tupleIJRSN_EEENSS_IJEEEEvEEvRSJ_PT_DpOT0_, symObjAddr: 0x9428, symBinAddr: 0x100013DD8, symSize: 0x44 }
  - { offsetInCU: 0x1B809, offset: 0x52134, size: 0x8, addend: 0x0, symName: __ZNSt3__110unique_ptrINS_11__hash_nodeINS_17__hash_value_typeINS_12basic_stringIcNS_11char_traitsIcEENS_9allocatorIcEEEENS_14priority_queueI5OrderNS_6vectorISA_NS6_ISA_EEEE18BuyOrderComparatorEEEEPvEENS_22__hash_node_destructorINS6_ISI_EEEEE11get_deleterB8ue170006Ev, symObjAddr: 0x946C, symBinAddr: 0x100013E1C, symSize: 0x24 }
  - { offsetInCU: 0x1B82F, offset: 0x5215A, size: 0x8, addend: 0x0, symName: __ZNSt3__19allocatorINS_11__hash_nodeINS_17__hash_value_typeINS_12basic_stringIcNS_11char_traitsIcEENS0_IcEEEENS_14priority_queueI5OrderNS_6vectorIS9_NS0_IS9_EEEE18BuyOrderComparatorEEEEPvEEE8allocateB8ue170006Em, symObjAddr: 0x9490, symBinAddr: 0x100013E40, symSize: 0x5C }
  - { offsetInCU: 0x1B86D, offset: 0x52198, size: 0x8, addend: 0x0, symName: __ZNSt3__116allocator_traitsINS_9allocatorINS_11__hash_nodeINS_17__hash_value_typeINS_12basic_stringIcNS_11char_traitsIcEENS1_IcEEEENS_14priority_queueI5OrderNS_6vectorISA_NS1_ISA_EEEE18BuyOrderComparatorEEEEPvEEEEE8max_sizeB8ue170006ISJ_vEEmRKSJ_, symObjAddr: 0x94EC, symBinAddr: 0x100013E9C, symSize: 0x24 }
  - { offsetInCU: 0x1B89B, offset: 0x521C6, size: 0x8, addend: 0x0, symName: __ZNKSt3__19allocatorINS_11__hash_nodeINS_17__hash_value_typeINS_12basic_stringIcNS_11char_traitsIcEENS0_IcEEEENS_14priority_queueI5OrderNS_6vectorIS9_NS0_IS9_EEEE18BuyOrderComparatorEEEEPvEEE8max_sizeB8ue170006Ev, symObjAddr: 0x9510, symBinAddr: 0x100013EC0, symSize: 0x20 }
  - { offsetInCU: 0x1B8C1, offset: 0x521EC, size: 0x8, addend: 0x0, symName: __ZNSt3__122__hash_node_destructorINS_9allocatorINS_11__hash_nodeINS_17__hash_value_typeINS_12basic_stringIcNS_11char_traitsIcEENS1_IcEEEENS_14priority_queueI5OrderNS_6vectorISA_NS1_ISA_EEEE18BuyOrderComparatorEEEEPvEEEEEC2B8ue170006ERSJ_b, symObjAddr: 0x9530, symBinAddr: 0x100013EE0, symSize: 0x38 }
  - { offsetInCU: 0x1B909, offset: 0x52234, size: 0x8, addend: 0x0, symName: __ZNSt3__110unique_ptrINS_11__hash_nodeINS_17__hash_value_typeINS_12basic_stringIcNS_11char_traitsIcEENS_9allocatorIcEEEENS_14priority_queueI5OrderNS_6vectorISA_NS6_ISA_EEEE18BuyOrderComparatorEEEEPvEENS_22__hash_node_destructorINS6_ISI_EEEEEC2B8ue170006ILb1EvEEPSI_NS_16__dependent_typeINS_27__unique_ptr_deleter_sfinaeISL_EEXT_EE20__good_rval_ref_typeE, symObjAddr: 0x9568, symBinAddr: 0x100013F18, symSize: 0x48 }
  - { offsetInCU: 0x1B95A, offset: 0x52285, size: 0x8, addend: 0x0, symName: __ZNSt3__117__compressed_pairIPNS_11__hash_nodeINS_17__hash_value_typeINS_12basic_stringIcNS_11char_traitsIcEENS_9allocatorIcEEEENS_14priority_queueI5OrderNS_6vectorISA_NS6_ISA_EEEE18BuyOrderComparatorEEEEPvEENS_22__hash_node_destructorINS6_ISI_EEEEEC1B8ue170006IRSJ_SM_EEOT_OT0_, symObjAddr: 0x95B0, symBinAddr: 0x100013F60, symSize: 0x3C }
  - { offsetInCU: 0x1B9B2, offset: 0x522DD, size: 0x8, addend: 0x0, symName: __ZNSt3__117__compressed_pairIPNS_11__hash_nodeINS_17__hash_value_typeINS_12basic_stringIcNS_11char_traitsIcEENS_9allocatorIcEEEENS_14priority_queueI5OrderNS_6vectorISA_NS6_ISA_EEEE18BuyOrderComparatorEEEEPvEENS_22__hash_node_destructorINS6_ISI_EEEEEC2B8ue170006IRSJ_SM_EEOT_OT0_, symObjAddr: 0x95EC, symBinAddr: 0x100013F9C, symSize: 0x48 }
  - { offsetInCU: 0x1BA0A, offset: 0x52335, size: 0x8, addend: 0x0, symName: __ZNSt3__122__compressed_pair_elemIPNS_11__hash_nodeINS_17__hash_value_typeINS_12basic_stringIcNS_11char_traitsIcEENS_9allocatorIcEEEENS_14priority_queueI5OrderNS_6vectorISA_NS6_ISA_EEEE18BuyOrderComparatorEEEEPvEELi0ELb0EEC2B8ue170006IRSJ_vEEOT_, symObjAddr: 0x9634, symBinAddr: 0x100013FE4, symSize: 0x24 }
  - { offsetInCU: 0x1BA4C, offset: 0x52377, size: 0x8, addend: 0x0, symName: __ZNSt3__122__compressed_pair_elemINS_22__hash_node_destructorINS_9allocatorINS_11__hash_nodeINS_17__hash_value_typeINS_12basic_stringIcNS_11char_traitsIcEENS2_IcEEEENS_14priority_queueI5OrderNS_6vectorISB_NS2_ISB_EEEE18BuyOrderComparatorEEEEPvEEEEEELi1ELb0EEC2B8ue170006ISL_vEEOT_, symObjAddr: 0x9658, symBinAddr: 0x100014008, symSize: 0x24 }
  - { offsetInCU: 0x1BA8E, offset: 0x523B9, size: 0x8, addend: 0x0, symName: __ZNSt3__19allocatorINS_11__hash_nodeINS_17__hash_value_typeINS_12basic_stringIcNS_11char_traitsIcEENS0_IcEEEENS_14priority_queueI5OrderNS_6vectorIS9_NS0_IS9_EEEE18BuyOrderComparatorEEEEPvEEE9constructB8ue170006INS_4pairIKS7_SE_EEJRKNS_21piecewise_construct_tENS_5tupleIJRSL_EEENSQ_IJEEEEEEvPT_DpOT0_, symObjAddr: 0x967C, symBinAddr: 0x10001402C, symSize: 0x44 }
  - { offsetInCU: 0x1BB0A, offset: 0x52435, size: 0x8, addend: 0x0, symName: __ZNSt3__14pairIKNS_12basic_stringIcNS_11char_traitsIcEENS_9allocatorIcEEEENS_14priority_queueI5OrderNS_6vectorIS9_NS4_IS9_EEEE18BuyOrderComparatorEEEC1B8ue170006IJRS7_EJEEENS_21piecewise_construct_tENS_5tupleIJDpT_EEENSJ_IJDpT0_EEE, symObjAddr: 0x96C0, symBinAddr: 0x100014070, symSize: 0x3C }
  - { offsetInCU: 0x1BB71, offset: 0x5249C, size: 0x8, addend: 0x0, symName: __ZNSt3__14pairIKNS_12basic_stringIcNS_11char_traitsIcEENS_9allocatorIcEEEENS_14priority_queueI5OrderNS_6vectorIS9_NS4_IS9_EEEE18BuyOrderComparatorEEEC1B8ue170006IJRS7_EJEJLm0EEJEEENS_21piecewise_construct_tERNS_5tupleIJDpT_EEERNSJ_IJDpT0_EEENS_15__tuple_indicesIJXspT1_EEEENSS_IJXspT2_EEEE, symObjAddr: 0x96FC, symBinAddr: 0x1000140AC, symSize: 0x3C }
  - { offsetInCU: 0x1BC01, offset: 0x5252C, size: 0x8, addend: 0x0, symName: __ZNSt3__14pairIKNS_12basic_stringIcNS_11char_traitsIcEENS_9allocatorIcEEEENS_14priority_queueI5OrderNS_6vectorIS9_NS4_IS9_EEEE18BuyOrderComparatorEEEC2B8ue170006IJRS7_EJEJLm0EEJEEENS_21piecewise_construct_tERNS_5tupleIJDpT_EEERNSJ_IJDpT0_EEENS_15__tuple_indicesIJXspT1_EEEENSS_IJXspT2_EEEE, symObjAddr: 0x9738, symBinAddr: 0x1000140E8, symSize: 0x50 }
  - { offsetInCU: 0x1BC91, offset: 0x525BC, size: 0x8, addend: 0x0, symName: __ZNSt3__117__compressed_pairIPNS_11__hash_nodeINS_17__hash_value_typeINS_12basic_stringIcNS_11char_traitsIcEENS_9allocatorIcEEEENS_14priority_queueI5OrderNS_6vectorISA_NS6_ISA_EEEE18BuyOrderComparatorEEEEPvEENS_22__hash_node_destructorINS6_ISI_EEEEE6secondB8ue170006Ev, symObjAddr: 0x9788, symBinAddr: 0x100014138, symSize: 0x28 }
  - { offsetInCU: 0x1BCB7, offset: 0x525E2, size: 0x8, addend: 0x0, symName: __ZNSt3__122__compressed_pair_elemINS_22__hash_node_destructorINS_9allocatorINS_11__hash_nodeINS_17__hash_value_typeINS_12basic_stringIcNS_11char_traitsIcEENS2_IcEEEENS_14priority_queueI5OrderNS_6vectorISB_NS2_ISB_EEEE18BuyOrderComparatorEEEEPvEEEEEELi1ELb0EE5__getB8ue170006Ev, symObjAddr: 0x97B0, symBinAddr: 0x100014160, symSize: 0x14 }
  - { offsetInCU: 0x1BCDD, offset: 0x52608, size: 0x8, addend: 0x0, symName: __ZNSt3__117__compressed_pairImNS_22__unordered_map_hasherINS_12basic_stringIcNS_11char_traitsIcEENS_9allocatorIcEEEENS_17__hash_value_typeIS7_NS_14priority_queueI5OrderNS_6vectorISA_NS5_ISA_EEEE18BuyOrderComparatorEEEENS_4hashIS7_EENS_8equal_toIS7_EELb1EEEE5firstB8ue170006Ev, symObjAddr: 0x97C4, symBinAddr: 0x100014174, symSize: 0x24 }
  - { offsetInCU: 0x1BD03, offset: 0x5262E, size: 0x8, addend: 0x0, symName: __ZNSt3__117__compressed_pairIfNS_21__unordered_map_equalINS_12basic_stringIcNS_11char_traitsIcEENS_9allocatorIcEEEENS_17__hash_value_typeIS7_NS_14priority_queueI5OrderNS_6vectorISA_NS5_ISA_EEEE18BuyOrderComparatorEEEENS_8equal_toIS7_EENS_4hashIS7_EELb1EEEE5firstB8ue170006Ev, symObjAddr: 0x97E8, symBinAddr: 0x100014198, symSize: 0x24 }
  - { offsetInCU: 0x1BD29, offset: 0x52654, size: 0x8, addend: 0x0, symName: __ZNSt3__112__hash_tableINS_17__hash_value_typeINS_12basic_stringIcNS_11char_traitsIcEENS_9allocatorIcEEEENS_14priority_queueI5OrderNS_6vectorIS9_NS5_IS9_EEEE18BuyOrderComparatorEEEENS_22__unordered_map_hasherIS7_SF_NS_4hashIS7_EENS_8equal_toIS7_EELb1EEENS_21__unordered_map_equalIS7_SF_SK_SI_Lb1EEENS5_ISF_EEE8__rehashILb1EEEvm, symObjAddr: 0x980C, symBinAddr: 0x1000141BC, symSize: 0x1A8 }
  - { offsetInCU: 0x1BD79, offset: 0x526A4, size: 0x8, addend: 0x0, symName: __ZNSt3__112__hash_tableINS_17__hash_value_typeINS_12basic_stringIcNS_11char_traitsIcEENS_9allocatorIcEEEENS_14priority_queueI5OrderNS_6vectorIS9_NS5_IS9_EEEE18BuyOrderComparatorEEEENS_22__unordered_map_hasherIS7_SF_NS_4hashIS7_EENS_8equal_toIS7_EELb1EEENS_21__unordered_map_equalIS7_SF_SK_SI_Lb1EEENS5_ISF_EEE11__do_rehashILb1EEEvm, symObjAddr: 0x99B4, symBinAddr: 0x100014364, symSize: 0x288 }
  - { offsetInCU: 0x1BE5C, offset: 0x52787, size: 0x8, addend: 0x0, symName: __ZNSt3__110unique_ptrIA_PNS_16__hash_node_baseIPNS_11__hash_nodeINS_17__hash_value_typeINS_12basic_stringIcNS_11char_traitsIcEENS_9allocatorIcEEEENS_14priority_queueI5OrderNS_6vectorISB_NS7_ISB_EEEE18BuyOrderComparatorEEEEPvEEEENS_25__bucket_list_deallocatorINS7_ISM_EEEEE11get_deleterB8ue170006Ev, symObjAddr: 0x9C3C, symBinAddr: 0x1000145EC, symSize: 0x24 }
  - { offsetInCU: 0x1BE82, offset: 0x527AD, size: 0x8, addend: 0x0, symName: __ZNSt3__110unique_ptrIA_PNS_16__hash_node_baseIPNS_11__hash_nodeINS_17__hash_value_typeINS_12basic_stringIcNS_11char_traitsIcEENS_9allocatorIcEEEENS_14priority_queueI5OrderNS_6vectorISB_NS7_ISB_EEEE18BuyOrderComparatorEEEEPvEEEENS_25__bucket_list_deallocatorINS7_ISM_EEEEE5resetB8ue170006IPSM_EENS_9enable_ifIXsr28_CheckArrayPointerConversionIT_EE5valueEvE4typeESV_, symObjAddr: 0x9C60, symBinAddr: 0x100014610, symSize: 0x78 }
  - { offsetInCU: 0x1BECF, offset: 0x527FA, size: 0x8, addend: 0x0, symName: __ZNSt3__116allocator_traitsINS_9allocatorIPNS_16__hash_node_baseIPNS_11__hash_nodeINS_17__hash_value_typeINS_12basic_stringIcNS_11char_traitsIcEENS1_IcEEEENS_14priority_queueI5OrderNS_6vectorISB_NS1_ISB_EEEE18BuyOrderComparatorEEEEPvEEEEEEE8allocateB8ue170006ERSN_m, symObjAddr: 0x9CD8, symBinAddr: 0x100014688, symSize: 0x2C }
  - { offsetInCU: 0x1BF02, offset: 0x5282D, size: 0x8, addend: 0x0, symName: __ZNSt3__19allocatorIPNS_16__hash_node_baseIPNS_11__hash_nodeINS_17__hash_value_typeINS_12basic_stringIcNS_11char_traitsIcEENS0_IcEEEENS_14priority_queueI5OrderNS_6vectorISA_NS0_ISA_EEEE18BuyOrderComparatorEEEEPvEEEEE8allocateB8ue170006Em, symObjAddr: 0x9D04, symBinAddr: 0x1000146B4, symSize: 0x58 }
  - { offsetInCU: 0x1BF40, offset: 0x5286B, size: 0x8, addend: 0x0, symName: __ZNSt3__116allocator_traitsINS_9allocatorIPNS_16__hash_node_baseIPNS_11__hash_nodeINS_17__hash_value_typeINS_12basic_stringIcNS_11char_traitsIcEENS1_IcEEEENS_14priority_queueI5OrderNS_6vectorISB_NS1_ISB_EEEE18BuyOrderComparatorEEEEPvEEEEEEE8max_sizeB8ue170006ISN_vEEmRKSN_, symObjAddr: 0x9D5C, symBinAddr: 0x10001470C, symSize: 0x24 }
  - { offsetInCU: 0x1BF6E, offset: 0x52899, size: 0x8, addend: 0x0, symName: __ZNKSt3__19allocatorIPNS_16__hash_node_baseIPNS_11__hash_nodeINS_17__hash_value_typeINS_12basic_stringIcNS_11char_traitsIcEENS0_IcEEEENS_14priority_queueI5OrderNS_6vectorISA_NS0_ISA_EEEE18BuyOrderComparatorEEEEPvEEEEE8max_sizeB8ue170006Ev, symObjAddr: 0x9D80, symBinAddr: 0x100014730, symSize: 0x14 }
  - { offsetInCU: 0x1BF94, offset: 0x528BF, size: 0x8, addend: 0x0, symName: __ZNKSt3__117__compressed_pairIPNS_11__hash_nodeINS_17__hash_value_typeINS_12basic_stringIcNS_11char_traitsIcEENS_9allocatorIcEEEENS_14priority_queueI5OrderNS_6vectorISA_NS6_ISA_EEEE18BuyOrderComparatorEEEEPvEENS_22__hash_node_destructorINS6_ISI_EEEEE5firstB8ue170006Ev, symObjAddr: 0x9D94, symBinAddr: 0x100014744, symSize: 0x24 }
  - { offsetInCU: 0x1BFBA, offset: 0x528E5, size: 0x8, addend: 0x0, symName: __ZNKSt3__122__compressed_pair_elemIPNS_11__hash_nodeINS_17__hash_value_typeINS_12basic_stringIcNS_11char_traitsIcEENS_9allocatorIcEEEENS_14priority_queueI5OrderNS_6vectorISA_NS6_ISA_EEEE18BuyOrderComparatorEEEEPvEELi0ELb0EE5__getB8ue170006Ev, symObjAddr: 0x9DB8, symBinAddr: 0x100014768, symSize: 0x14 }
  - { offsetInCU: 0x1BFE0, offset: 0x5290B, size: 0x8, addend: 0x0, symName: __ZNSt3__117__compressed_pairIPNS_11__hash_nodeINS_17__hash_value_typeINS_12basic_stringIcNS_11char_traitsIcEENS_9allocatorIcEEEENS_14priority_queueI5OrderNS_6vectorISA_NS6_ISA_EEEE18BuyOrderComparatorEEEEPvEENS_22__hash_node_destructorINS6_ISI_EEEEE5firstB8ue170006Ev, symObjAddr: 0x9DCC, symBinAddr: 0x10001477C, symSize: 0x24 }
  - { offsetInCU: 0x1C006, offset: 0x52931, size: 0x8, addend: 0x0, symName: __ZNSt3__122__compressed_pair_elemIPNS_11__hash_nodeINS_17__hash_value_typeINS_12basic_stringIcNS_11char_traitsIcEENS_9allocatorIcEEEENS_14priority_queueI5OrderNS_6vectorISA_NS6_ISA_EEEE18BuyOrderComparatorEEEEPvEELi0ELb0EE5__getB8ue170006Ev, symObjAddr: 0x9DF0, symBinAddr: 0x1000147A0, symSize: 0x14 }
  - { offsetInCU: 0x1C02C, offset: 0x52957, size: 0x8, addend: 0x0, symName: __ZNSt3__110unique_ptrINS_11__hash_nodeINS_17__hash_value_typeINS_12basic_stringIcNS_11char_traitsIcEENS_9allocatorIcEEEENS_14priority_queueI5OrderNS_6vectorISA_NS6_ISA_EEEE18BuyOrderComparatorEEEEPvEENS_22__hash_node_destructorINS6_ISI_EEEEED2B8ue170006Ev, symObjAddr: 0x9E04, symBinAddr: 0x1000147B4, symSize: 0x30 }
  - { offsetInCU: 0x1C056, offset: 0x52981, size: 0x8, addend: 0x0, symName: __ZNSt3__110unique_ptrINS_11__hash_nodeINS_17__hash_value_typeINS_12basic_stringIcNS_11char_traitsIcEENS_9allocatorIcEEEENS_14priority_queueI5OrderNS_6vectorISA_NS6_ISA_EEEE18BuyOrderComparatorEEEEPvEENS_22__hash_node_destructorINS6_ISI_EEEEE5resetB8ue170006EPSI_, symObjAddr: 0x9E34, symBinAddr: 0x1000147E4, symSize: 0x78 }
  - { offsetInCU: 0x1C09A, offset: 0x529C5, size: 0x8, addend: 0x0, symName: __ZNSt3__122__hash_node_destructorINS_9allocatorINS_11__hash_nodeINS_17__hash_value_typeINS_12basic_stringIcNS_11char_traitsIcEENS1_IcEEEENS_14priority_queueI5OrderNS_6vectorISA_NS1_ISA_EEEE18BuyOrderComparatorEEEEPvEEEEEclB8ue170006EPSI_, symObjAddr: 0x9EAC, symBinAddr: 0x10001485C, symSize: 0x94 }
  - { offsetInCU: 0x1C0CF, offset: 0x529FA, size: 0x8, addend: 0x0, symName: __ZNSt3__115__hash_iteratorIPNS_11__hash_nodeINS_17__hash_value_typeINS_12basic_stringIcNS_11char_traitsIcEENS_9allocatorIcEEEENS_14priority_queueI5OrderNS_6vectorISA_NS6_ISA_EEEE18BuyOrderComparatorEEEEPvEEEC2B8ue170006EPNS_16__hash_node_baseISJ_EE, symObjAddr: 0x9F40, symBinAddr: 0x1000148F0, symSize: 0x20 }
  - { offsetInCU: 0x1C108, offset: 0x52A33, size: 0x8, addend: 0x0, symName: __ZNSt3__14pairINS_15__hash_iteratorIPNS_11__hash_nodeINS_17__hash_value_typeINS_12basic_stringIcNS_11char_traitsIcEENS_9allocatorIcEEEENS_14priority_queueI5OrderNS_6vectorISB_NS7_ISB_EEEE18BuyOrderComparatorEEEEPvEEEEbEC2B8ue170006ISL_RbLSI_0EEEOT_OT0_, symObjAddr: 0x9F60, symBinAddr: 0x100014910, symSize: 0x38 }
  - { offsetInCU: 0x1C166, offset: 0x52A91, size: 0x8, addend: 0x0, symName: __ZNSt3__114pointer_traitsIPNS_17__hash_value_typeINS_12basic_stringIcNS_11char_traitsIcEENS_9allocatorIcEEEENS_14priority_queueI5OrderNS_6vectorIS9_NS5_IS9_EEEE18BuyOrderComparatorEEEEE10pointer_toB8ue170006ERSF_, symObjAddr: 0x9F98, symBinAddr: 0x100014948, symSize: 0x14 }
  - { offsetInCU: 0x1C189, offset: 0x52AB4, size: 0x8, addend: 0x0, symName: __ZNSt3__114priority_queueI5OrderNS_6vectorIS1_NS_9allocatorIS1_EEEE18BuyOrderComparatorEC2B8ue170006Ev, symObjAddr: 0x9FAC, symBinAddr: 0x10001495C, symSize: 0x2C }
  - { offsetInCU: 0x1C1B3, offset: 0x52ADE, size: 0x8, addend: 0x0, symName: __ZNSt3__16vectorI5OrderNS_9allocatorIS1_EEED2B8ue170006Ev, symObjAddr: 0x9FD8, symBinAddr: 0x100014988, symSize: 0x44 }
  - { offsetInCU: 0x1C1DD, offset: 0x52B08, size: 0x8, addend: 0x0, symName: __ZNSt3__16vectorI5OrderNS_9allocatorIS1_EEE16__destroy_vectorC1B8ue170006ERS4_, symObjAddr: 0xA01C, symBinAddr: 0x1000149CC, symSize: 0x34 }
  - { offsetInCU: 0x1C216, offset: 0x52B41, size: 0x8, addend: 0x0, symName: __ZNSt3__16vectorI5OrderNS_9allocatorIS1_EEE16__destroy_vectorclB8ue170006Ev, symObjAddr: 0xA050, symBinAddr: 0x100014A00, symSize: 0x90 }
  - { offsetInCU: 0x1C23C, offset: 0x52B67, size: 0x8, addend: 0x0, symName: __ZNSt3__16vectorI5OrderNS_9allocatorIS1_EEE16__destroy_vectorC2B8ue170006ERS4_, symObjAddr: 0xA0E0, symBinAddr: 0x100014A90, symSize: 0x20 }
  - { offsetInCU: 0x1C275, offset: 0x52BA0, size: 0x8, addend: 0x0, symName: __ZNSt3__16vectorI5OrderNS_9allocatorIS1_EEE7__clearB8ue170006Ev, symObjAddr: 0xA100, symBinAddr: 0x100014AB0, symSize: 0x28 }
  - { offsetInCU: 0x1C29B, offset: 0x52BC6, size: 0x8, addend: 0x0, symName: __ZNKSt3__16vectorI5OrderNS_9allocatorIS1_EEE17__annotate_deleteB8ue170006Ev, symObjAddr: 0xA128, symBinAddr: 0x100014AD8, symSize: 0xD4 }
  - { offsetInCU: 0x1C2C1, offset: 0x52BEC, size: 0x8, addend: 0x0, symName: __ZNSt3__116allocator_traitsINS_9allocatorI5OrderEEE10deallocateB8ue170006ERS3_PS2_m, symObjAddr: 0xA1FC, symBinAddr: 0x100014BAC, symSize: 0x34 }
  - { offsetInCU: 0x1C303, offset: 0x52C2E, size: 0x8, addend: 0x0, symName: __ZNSt3__16vectorI5OrderNS_9allocatorIS1_EEE7__allocB8ue170006Ev, symObjAddr: 0xA230, symBinAddr: 0x100014BE0, symSize: 0x28 }
  - { offsetInCU: 0x1C329, offset: 0x52C54, size: 0x8, addend: 0x0, symName: __ZNKSt3__16vectorI5OrderNS_9allocatorIS1_EEE8capacityB8ue170006Ev, symObjAddr: 0xA258, symBinAddr: 0x100014C08, symSize: 0x40 }
  - { offsetInCU: 0x1C34F, offset: 0x52C7A, size: 0x8, addend: 0x0, symName: __ZNSt3__16vectorI5OrderNS_9allocatorIS1_EEE22__base_destruct_at_endB8ue170006EPS1_, symObjAddr: 0xA298, symBinAddr: 0x100014C48, symSize: 0x8C }
  - { offsetInCU: 0x1C393, offset: 0x52CBE, size: 0x8, addend: 0x0, symName: __ZNSt3__116allocator_traitsINS_9allocatorI5OrderEEE7destroyB8ue170006IS2_vEEvRS3_PT_, symObjAddr: 0xA324, symBinAddr: 0x100014CD4, symSize: 0x2C }
  - { offsetInCU: 0x1C3D0, offset: 0x52CFB, size: 0x8, addend: 0x0, symName: __ZNSt3__19allocatorI5OrderE7destroyB8ue170006EPS1_, symObjAddr: 0xA364, symBinAddr: 0x100014D14, symSize: 0x28 }
  - { offsetInCU: 0x1C404, offset: 0x52D2F, size: 0x8, addend: 0x0, symName: __ZNKSt3__16vectorI5OrderNS_9allocatorIS1_EEE31__annotate_contiguous_containerB8ue170006EPKvS6_S6_S6_, symObjAddr: 0xA38C, symBinAddr: 0x100014D3C, symSize: 0x20 }
  - { offsetInCU: 0x1C45A, offset: 0x52D85, size: 0x8, addend: 0x0, symName: __ZNKSt3__16vectorI5OrderNS_9allocatorIS1_EEE4dataB8ue170006Ev, symObjAddr: 0xA3AC, symBinAddr: 0x100014D5C, symSize: 0x28 }
  - { offsetInCU: 0x1C480, offset: 0x52DAB, size: 0x8, addend: 0x0, symName: __ZNKSt3__16vectorI5OrderNS_9allocatorIS1_EEE4sizeB8ue170006Ev, symObjAddr: 0xA3D4, symBinAddr: 0x100014D84, symSize: 0x28 }
  - { offsetInCU: 0x1C4A6, offset: 0x52DD1, size: 0x8, addend: 0x0, symName: __ZNSt3__19allocatorI5OrderE10deallocateB8ue170006EPS1_m, symObjAddr: 0xA3FC, symBinAddr: 0x100014DAC, symSize: 0x44 }
  - { offsetInCU: 0x1C4E8, offset: 0x52E13, size: 0x8, addend: 0x0, symName: __ZNSt3__117__compressed_pairIP5OrderNS_9allocatorIS1_EEE6secondB8ue170006Ev, symObjAddr: 0xA440, symBinAddr: 0x100014DF0, symSize: 0x24 }
  - { offsetInCU: 0x1C50E, offset: 0x52E39, size: 0x8, addend: 0x0, symName: __ZNSt3__122__compressed_pair_elemINS_9allocatorI5OrderEELi1ELb1EE5__getB8ue170006Ev, symObjAddr: 0xA464, symBinAddr: 0x100014E14, symSize: 0x14 }
  - { offsetInCU: 0x1C534, offset: 0x52E5F, size: 0x8, addend: 0x0, symName: __ZNKSt3__16vectorI5OrderNS_9allocatorIS1_EEE9__end_capB8ue170006Ev, symObjAddr: 0xA478, symBinAddr: 0x100014E28, symSize: 0x28 }
  - { offsetInCU: 0x1C55A, offset: 0x52E85, size: 0x8, addend: 0x0, symName: __ZNKSt3__117__compressed_pairIP5OrderNS_9allocatorIS1_EEE5firstB8ue170006Ev, symObjAddr: 0xA4A0, symBinAddr: 0x100014E50, symSize: 0x24 }
  - { offsetInCU: 0x1C580, offset: 0x52EAB, size: 0x8, addend: 0x0, symName: __ZNKSt3__122__compressed_pair_elemIP5OrderLi0ELb0EE5__getB8ue170006Ev, symObjAddr: 0xA4C4, symBinAddr: 0x100014E74, symSize: 0x14 }
  - { offsetInCU: 0x1C5A6, offset: 0x52ED1, size: 0x8, addend: 0x0, symName: __ZNSt3__16vectorI5OrderNS_9allocatorIS1_EEEaSB8ue170006EOS4_, symObjAddr: 0xA4D8, symBinAddr: 0x100014E88, symSize: 0x34 }
  - { offsetInCU: 0x1C5DD, offset: 0x52F08, size: 0x8, addend: 0x0, symName: __ZNSt3__16vectorI5OrderNS_9allocatorIS1_EEE13__move_assignERS4_NS_17integral_constantIbLb1EEE, symObjAddr: 0xA50C, symBinAddr: 0x100014EBC, symSize: 0x94 }
  - { offsetInCU: 0x1C620, offset: 0x52F4B, size: 0x8, addend: 0x0, symName: __ZNSt3__16vectorI5OrderNS_9allocatorIS1_EEE13__vdeallocateEv, symObjAddr: 0xA5A0, symBinAddr: 0x100014F50, symSize: 0x94 }
  - { offsetInCU: 0x1C648, offset: 0x52F73, size: 0x8, addend: 0x0, symName: __ZNSt3__16vectorI5OrderNS_9allocatorIS1_EEE19__move_assign_allocB8ue170006ERS4_, symObjAddr: 0xA634, symBinAddr: 0x100014FE4, symSize: 0x2C }
  - { offsetInCU: 0x1C67D, offset: 0x52FA8, size: 0x8, addend: 0x0, symName: __ZNSt3__16vectorI5OrderNS_9allocatorIS1_EEE9__end_capB8ue170006Ev, symObjAddr: 0xA660, symBinAddr: 0x100015010, symSize: 0x28 }
  - { offsetInCU: 0x1C6A3, offset: 0x52FCE, size: 0x8, addend: 0x0, symName: __ZNSt3__16vectorI5OrderNS_9allocatorIS1_EEE5clearB8ue170006Ev, symObjAddr: 0xA688, symBinAddr: 0x100015038, symSize: 0x44 }
  - { offsetInCU: 0x1C6D8, offset: 0x53003, size: 0x8, addend: 0x0, symName: __ZNKSt3__16vectorI5OrderNS_9allocatorIS1_EEE17__annotate_shrinkB8ue170006Em, symObjAddr: 0xA6CC, symBinAddr: 0x10001507C, symSize: 0xD0 }
  - { offsetInCU: 0x1C70D, offset: 0x53038, size: 0x8, addend: 0x0, symName: __ZNSt3__16vectorI5OrderNS_9allocatorIS1_EEE19__move_assign_allocB8ue170006ERS4_NS_17integral_constantIbLb1EEE, symObjAddr: 0xA79C, symBinAddr: 0x10001514C, symSize: 0x38 }
  - { offsetInCU: 0x1C74E, offset: 0x53079, size: 0x8, addend: 0x0, symName: __ZNSt3__117__compressed_pairIP5OrderNS_9allocatorIS1_EEE5firstB8ue170006Ev, symObjAddr: 0xA7D4, symBinAddr: 0x100015184, symSize: 0x24 }
  - { offsetInCU: 0x1C774, offset: 0x5309F, size: 0x8, addend: 0x0, symName: __ZNSt3__122__compressed_pair_elemIP5OrderLi0ELb0EE5__getB8ue170006Ev, symObjAddr: 0xA7F8, symBinAddr: 0x1000151A8, symSize: 0x14 }
  - { offsetInCU: 0x1C79A, offset: 0x530C5, size: 0x8, addend: 0x0, symName: __ZNSt3__112__hash_tableINS_17__hash_value_typeINS_12basic_stringIcNS_11char_traitsIcEENS_9allocatorIcEEEENS_14priority_queueI5OrderNS_6vectorIS9_NS5_IS9_EEEE19SellOrderComparatorEEEENS_22__unordered_map_hasherIS7_SF_NS_4hashIS7_EENS_8equal_toIS7_EELb1EEENS_21__unordered_map_equalIS7_SF_SK_SI_Lb1EEENS5_ISF_EEE25__emplace_unique_key_argsIS7_JRKNS_21piecewise_construct_tENS_5tupleIJRKS7_EEENSU_IJEEEEEENS_4pairINS_15__hash_iteratorIPNS_11__hash_nodeISF_PvEEEEbEERKT_DpOT0_, symObjAddr: 0xA80C, symBinAddr: 0x1000151BC, symSize: 0x4CC }
  - { offsetInCU: 0x1C8A5, offset: 0x531D0, size: 0x8, addend: 0x0, symName: __ZNKSt3__115__hash_iteratorIPNS_11__hash_nodeINS_17__hash_value_typeINS_12basic_stringIcNS_11char_traitsIcEENS_9allocatorIcEEEENS_14priority_queueI5OrderNS_6vectorISA_NS6_ISA_EEEE19SellOrderComparatorEEEEPvEEEptB8ue170006Ev, symObjAddr: 0xACD8, symBinAddr: 0x100015688, symSize: 0x30 }
  - { offsetInCU: 0x1C8CB, offset: 0x531F6, size: 0x8, addend: 0x0, symName: __ZNSt3__112__hash_tableINS_17__hash_value_typeINS_12basic_stringIcNS_11char_traitsIcEENS_9allocatorIcEEEENS_14priority_queueI5OrderNS_6vectorIS9_NS5_IS9_EEEE19SellOrderComparatorEEEENS_22__unordered_map_hasherIS7_SF_NS_4hashIS7_EENS_8equal_toIS7_EELb1EEENS_21__unordered_map_equalIS7_SF_SK_SI_Lb1EEENS5_ISF_EEE13hash_functionB8ue170006Ev, symObjAddr: 0xAD08, symBinAddr: 0x1000156B8, symSize: 0x28 }
  - { offsetInCU: 0x1C8F1, offset: 0x5321C, size: 0x8, addend: 0x0, symName: __ZNKSt3__122__unordered_map_hasherINS_12basic_stringIcNS_11char_traitsIcEENS_9allocatorIcEEEENS_17__hash_value_typeIS6_NS_14priority_queueI5OrderNS_6vectorIS9_NS4_IS9_EEEE19SellOrderComparatorEEEENS_4hashIS6_EENS_8equal_toIS6_EELb1EEclB8ue170006ERKS6_, symObjAddr: 0xAD30, symBinAddr: 0x1000156E0, symSize: 0x2C }
  - { offsetInCU: 0x1C926, offset: 0x53251, size: 0x8, addend: 0x0, symName: __ZNKSt3__112__hash_tableINS_17__hash_value_typeINS_12basic_stringIcNS_11char_traitsIcEENS_9allocatorIcEEEENS_14priority_queueI5OrderNS_6vectorIS9_NS5_IS9_EEEE19SellOrderComparatorEEEENS_22__unordered_map_hasherIS7_SF_NS_4hashIS7_EENS_8equal_toIS7_EELb1EEENS_21__unordered_map_equalIS7_SF_SK_SI_Lb1EEENS5_ISF_EEE12bucket_countB8ue170006Ev, symObjAddr: 0xAD5C, symBinAddr: 0x10001570C, symSize: 0x28 }
  - { offsetInCU: 0x1C94C, offset: 0x53277, size: 0x8, addend: 0x0, symName: __ZNKSt3__110unique_ptrIA_PNS_16__hash_node_baseIPNS_11__hash_nodeINS_17__hash_value_typeINS_12basic_stringIcNS_11char_traitsIcEENS_9allocatorIcEEEENS_14priority_queueI5OrderNS_6vectorISB_NS7_ISB_EEEE19SellOrderComparatorEEEEPvEEEENS_25__bucket_list_deallocatorINS7_ISM_EEEEEixB8ue170006Em, symObjAddr: 0xAD84, symBinAddr: 0x100015734, symSize: 0x34 }
  - { offsetInCU: 0x1C981, offset: 0x532AC, size: 0x8, addend: 0x0, symName: __ZNKSt3__116__hash_node_baseIPNS_11__hash_nodeINS_17__hash_value_typeINS_12basic_stringIcNS_11char_traitsIcEENS_9allocatorIcEEEENS_14priority_queueI5OrderNS_6vectorISA_NS6_ISA_EEEE19SellOrderComparatorEEEEPvEEE6__hashB8ue170006Ev, symObjAddr: 0xADB8, symBinAddr: 0x100015768, symSize: 0x18 }
  - { offsetInCU: 0x1C9A7, offset: 0x532D2, size: 0x8, addend: 0x0, symName: __ZNSt3__112__hash_tableINS_17__hash_value_typeINS_12basic_stringIcNS_11char_traitsIcEENS_9allocatorIcEEEENS_14priority_queueI5OrderNS_6vectorIS9_NS5_IS9_EEEE19SellOrderComparatorEEEENS_22__unordered_map_hasherIS7_SF_NS_4hashIS7_EENS_8equal_toIS7_EELb1EEENS_21__unordered_map_equalIS7_SF_SK_SI_Lb1EEENS5_ISF_EEE6key_eqB8ue170006Ev, symObjAddr: 0xADD0, symBinAddr: 0x100015780, symSize: 0x28 }
  - { offsetInCU: 0x1C9CD, offset: 0x532F8, size: 0x8, addend: 0x0, symName: __ZNKSt3__121__unordered_map_equalINS_12basic_stringIcNS_11char_traitsIcEENS_9allocatorIcEEEENS_17__hash_value_typeIS6_NS_14priority_queueI5OrderNS_6vectorIS9_NS4_IS9_EEEE19SellOrderComparatorEEEENS_8equal_toIS6_EENS_4hashIS6_EELb1EEclB8ue170006ERKSF_RKS6_, symObjAddr: 0xADF8, symBinAddr: 0x1000157A8, symSize: 0x48 }
  - { offsetInCU: 0x1CA11, offset: 0x5333C, size: 0x8, addend: 0x0, symName: __ZNSt3__112__hash_tableINS_17__hash_value_typeINS_12basic_stringIcNS_11char_traitsIcEENS_9allocatorIcEEEENS_14priority_queueI5OrderNS_6vectorIS9_NS5_IS9_EEEE19SellOrderComparatorEEEENS_22__unordered_map_hasherIS7_SF_NS_4hashIS7_EENS_8equal_toIS7_EELb1EEENS_21__unordered_map_equalIS7_SF_SK_SI_Lb1EEENS5_ISF_EEE21__construct_node_hashIRKNS_21piecewise_construct_tEJNS_5tupleIJRKS7_EEENSU_IJEEEEEENS_10unique_ptrINS_11__hash_nodeISF_PvEENS_22__hash_node_destructorINS5_IS12_EEEEEEmOT_DpOT0_, symObjAddr: 0xAE40, symBinAddr: 0x1000157F0, symSize: 0x150 }
  - { offsetInCU: 0x1CAAD, offset: 0x533D8, size: 0x8, addend: 0x0, symName: __ZNSt3__112__hash_tableINS_17__hash_value_typeINS_12basic_stringIcNS_11char_traitsIcEENS_9allocatorIcEEEENS_14priority_queueI5OrderNS_6vectorIS9_NS5_IS9_EEEE19SellOrderComparatorEEEENS_22__unordered_map_hasherIS7_SF_NS_4hashIS7_EENS_8equal_toIS7_EELb1EEENS_21__unordered_map_equalIS7_SF_SK_SI_Lb1EEENS5_ISF_EEE4sizeB8ue170006Ev, symObjAddr: 0xAF90, symBinAddr: 0x100015940, symSize: 0x28 }
  - { offsetInCU: 0x1CAD3, offset: 0x533FE, size: 0x8, addend: 0x0, symName: __ZNSt3__112__hash_tableINS_17__hash_value_typeINS_12basic_stringIcNS_11char_traitsIcEENS_9allocatorIcEEEENS_14priority_queueI5OrderNS_6vectorIS9_NS5_IS9_EEEE19SellOrderComparatorEEEENS_22__unordered_map_hasherIS7_SF_NS_4hashIS7_EENS_8equal_toIS7_EELb1EEENS_21__unordered_map_equalIS7_SF_SK_SI_Lb1EEENS5_ISF_EEE15max_load_factorB8ue170006Ev, symObjAddr: 0xAFB8, symBinAddr: 0x100015968, symSize: 0x28 }
  - { offsetInCU: 0x1CAF9, offset: 0x53424, size: 0x8, addend: 0x0, symName: __ZNSt3__112__hash_tableINS_17__hash_value_typeINS_12basic_stringIcNS_11char_traitsIcEENS_9allocatorIcEEEENS_14priority_queueI5OrderNS_6vectorIS9_NS5_IS9_EEEE19SellOrderComparatorEEEENS_22__unordered_map_hasherIS7_SF_NS_4hashIS7_EENS_8equal_toIS7_EELb1EEENS_21__unordered_map_equalIS7_SF_SK_SI_Lb1EEENS5_ISF_EEE15__rehash_uniqueB8ue170006Em, symObjAddr: 0xAFE0, symBinAddr: 0x100015990, symSize: 0x2C }
  - { offsetInCU: 0x1CB2E, offset: 0x53459, size: 0x8, addend: 0x0, symName: __ZNSt3__116__hash_node_baseIPNS_11__hash_nodeINS_17__hash_value_typeINS_12basic_stringIcNS_11char_traitsIcEENS_9allocatorIcEEEENS_14priority_queueI5OrderNS_6vectorISA_NS6_ISA_EEEE19SellOrderComparatorEEEEPvEEE5__ptrB8ue170006Ev, symObjAddr: 0xB00C, symBinAddr: 0x1000159BC, symSize: 0x24 }
  - { offsetInCU: 0x1CB54, offset: 0x5347F, size: 0x8, addend: 0x0, symName: __ZNKSt3__110unique_ptrINS_11__hash_nodeINS_17__hash_value_typeINS_12basic_stringIcNS_11char_traitsIcEENS_9allocatorIcEEEENS_14priority_queueI5OrderNS_6vectorISA_NS6_ISA_EEEE19SellOrderComparatorEEEEPvEENS_22__hash_node_destructorINS6_ISI_EEEEEptB8ue170006Ev, symObjAddr: 0xB030, symBinAddr: 0x1000159E0, symSize: 0x28 }
  - { offsetInCU: 0x1CB7A, offset: 0x534A5, size: 0x8, addend: 0x0, symName: __ZNKSt3__110unique_ptrINS_11__hash_nodeINS_17__hash_value_typeINS_12basic_stringIcNS_11char_traitsIcEENS_9allocatorIcEEEENS_14priority_queueI5OrderNS_6vectorISA_NS6_ISA_EEEE19SellOrderComparatorEEEEPvEENS_22__hash_node_destructorINS6_ISI_EEEEE3getB8ue170006Ev, symObjAddr: 0xB058, symBinAddr: 0x100015A08, symSize: 0x28 }
  - { offsetInCU: 0x1CBA0, offset: 0x534CB, size: 0x8, addend: 0x0, symName: __ZNSt3__110unique_ptrINS_11__hash_nodeINS_17__hash_value_typeINS_12basic_stringIcNS_11char_traitsIcEENS_9allocatorIcEEEENS_14priority_queueI5OrderNS_6vectorISA_NS6_ISA_EEEE19SellOrderComparatorEEEEPvEENS_22__hash_node_destructorINS6_ISI_EEEEE7releaseB8ue170006Ev, symObjAddr: 0xB080, symBinAddr: 0x100015A30, symSize: 0x44 }
  - { offsetInCU: 0x1CBD5, offset: 0x53500, size: 0x8, addend: 0x0, symName: __ZNSt3__110unique_ptrINS_11__hash_nodeINS_17__hash_value_typeINS_12basic_stringIcNS_11char_traitsIcEENS_9allocatorIcEEEENS_14priority_queueI5OrderNS_6vectorISA_NS6_ISA_EEEE19SellOrderComparatorEEEEPvEENS_22__hash_node_destructorINS6_ISI_EEEEED1B8ue170006Ev, symObjAddr: 0xB0C4, symBinAddr: 0x100015A74, symSize: 0x2C }
  - { offsetInCU: 0x1CBFF, offset: 0x5352A, size: 0x8, addend: 0x0, symName: __ZNSt3__115__hash_iteratorIPNS_11__hash_nodeINS_17__hash_value_typeINS_12basic_stringIcNS_11char_traitsIcEENS_9allocatorIcEEEENS_14priority_queueI5OrderNS_6vectorISA_NS6_ISA_EEEE19SellOrderComparatorEEEEPvEEEC1B8ue170006EPNS_16__hash_node_baseISJ_EE, symObjAddr: 0xB0F0, symBinAddr: 0x100015AA0, symSize: 0x34 }
  - { offsetInCU: 0x1CC3D, offset: 0x53568, size: 0x8, addend: 0x0, symName: __ZNSt3__14pairINS_15__hash_iteratorIPNS_11__hash_nodeINS_17__hash_value_typeINS_12basic_stringIcNS_11char_traitsIcEENS_9allocatorIcEEEENS_14priority_queueI5OrderNS_6vectorISB_NS7_ISB_EEEE19SellOrderComparatorEEEEPvEEEEbEC1B8ue170006ISL_RbLSI_0EEEOT_OT0_, symObjAddr: 0xB124, symBinAddr: 0x100015AD4, symSize: 0x3C }
  - { offsetInCU: 0x1CC9B, offset: 0x535C6, size: 0x8, addend: 0x0, symName: __ZNSt3__117__compressed_pairImNS_22__unordered_map_hasherINS_12basic_stringIcNS_11char_traitsIcEENS_9allocatorIcEEEENS_17__hash_value_typeIS7_NS_14priority_queueI5OrderNS_6vectorISA_NS5_ISA_EEEE19SellOrderComparatorEEEENS_4hashIS7_EENS_8equal_toIS7_EELb1EEEE6secondB8ue170006Ev, symObjAddr: 0xB160, symBinAddr: 0x100015B10, symSize: 0x24 }
  - { offsetInCU: 0x1CCC1, offset: 0x535EC, size: 0x8, addend: 0x0, symName: __ZNSt3__122__compressed_pair_elemINS_22__unordered_map_hasherINS_12basic_stringIcNS_11char_traitsIcEENS_9allocatorIcEEEENS_17__hash_value_typeIS7_NS_14priority_queueI5OrderNS_6vectorISA_NS5_ISA_EEEE19SellOrderComparatorEEEENS_4hashIS7_EENS_8equal_toIS7_EELb1EEELi1ELb1EE5__getB8ue170006Ev, symObjAddr: 0xB184, symBinAddr: 0x100015B34, symSize: 0x14 }
  - { offsetInCU: 0x1CCE7, offset: 0x53612, size: 0x8, addend: 0x0, symName: __ZNKSt3__110unique_ptrIA_PNS_16__hash_node_baseIPNS_11__hash_nodeINS_17__hash_value_typeINS_12basic_stringIcNS_11char_traitsIcEENS_9allocatorIcEEEENS_14priority_queueI5OrderNS_6vectorISB_NS7_ISB_EEEE19SellOrderComparatorEEEEPvEEEENS_25__bucket_list_deallocatorINS7_ISM_EEEEE11get_deleterB8ue170006Ev, symObjAddr: 0xB198, symBinAddr: 0x100015B48, symSize: 0x24 }
  - { offsetInCU: 0x1CD0D, offset: 0x53638, size: 0x8, addend: 0x0, symName: __ZNKSt3__125__bucket_list_deallocatorINS_9allocatorIPNS_16__hash_node_baseIPNS_11__hash_nodeINS_17__hash_value_typeINS_12basic_stringIcNS_11char_traitsIcEENS1_IcEEEENS_14priority_queueI5OrderNS_6vectorISB_NS1_ISB_EEEE19SellOrderComparatorEEEEPvEEEEEEE4sizeB8ue170006Ev, symObjAddr: 0xB1BC, symBinAddr: 0x100015B6C, symSize: 0x28 }
  - { offsetInCU: 0x1CD33, offset: 0x5365E, size: 0x8, addend: 0x0, symName: __ZNKSt3__117__compressed_pairIPPNS_16__hash_node_baseIPNS_11__hash_nodeINS_17__hash_value_typeINS_12basic_stringIcNS_11char_traitsIcEENS_9allocatorIcEEEENS_14priority_queueI5OrderNS_6vectorISB_NS7_ISB_EEEE19SellOrderComparatorEEEEPvEEEENS_25__bucket_list_deallocatorINS7_ISM_EEEEE6secondB8ue170006Ev, symObjAddr: 0xB1E4, symBinAddr: 0x100015B94, symSize: 0x28 }
  - { offsetInCU: 0x1CD59, offset: 0x53684, size: 0x8, addend: 0x0, symName: __ZNKSt3__122__compressed_pair_elemINS_25__bucket_list_deallocatorINS_9allocatorIPNS_16__hash_node_baseIPNS_11__hash_nodeINS_17__hash_value_typeINS_12basic_stringIcNS_11char_traitsIcEENS2_IcEEEENS_14priority_queueI5OrderNS_6vectorISC_NS2_ISC_EEEE19SellOrderComparatorEEEEPvEEEEEEEELi1ELb0EE5__getB8ue170006Ev, symObjAddr: 0xB20C, symBinAddr: 0x100015BBC, symSize: 0x14 }
  - { offsetInCU: 0x1CD7F, offset: 0x536AA, size: 0x8, addend: 0x0, symName: __ZNKSt3__117__compressed_pairImNS_9allocatorIPNS_16__hash_node_baseIPNS_11__hash_nodeINS_17__hash_value_typeINS_12basic_stringIcNS_11char_traitsIcEENS1_IcEEEENS_14priority_queueI5OrderNS_6vectorISB_NS1_ISB_EEEE19SellOrderComparatorEEEEPvEEEEEEE5firstB8ue170006Ev, symObjAddr: 0xB220, symBinAddr: 0x100015BD0, symSize: 0x24 }
  - { offsetInCU: 0x1CDA5, offset: 0x536D0, size: 0x8, addend: 0x0, symName: __ZNKSt3__117__compressed_pairIPPNS_16__hash_node_baseIPNS_11__hash_nodeINS_17__hash_value_typeINS_12basic_stringIcNS_11char_traitsIcEENS_9allocatorIcEEEENS_14priority_queueI5OrderNS_6vectorISB_NS7_ISB_EEEE19SellOrderComparatorEEEEPvEEEENS_25__bucket_list_deallocatorINS7_ISM_EEEEE5firstB8ue170006Ev, symObjAddr: 0xB244, symBinAddr: 0x100015BF4, symSize: 0x24 }
  - { offsetInCU: 0x1CDCB, offset: 0x536F6, size: 0x8, addend: 0x0, symName: __ZNKSt3__122__compressed_pair_elemIPPNS_16__hash_node_baseIPNS_11__hash_nodeINS_17__hash_value_typeINS_12basic_stringIcNS_11char_traitsIcEENS_9allocatorIcEEEENS_14priority_queueI5OrderNS_6vectorISB_NS7_ISB_EEEE19SellOrderComparatorEEEEPvEEEELi0ELb0EE5__getB8ue170006Ev, symObjAddr: 0xB268, symBinAddr: 0x100015C18, symSize: 0x14 }
  - { offsetInCU: 0x1CDF1, offset: 0x5371C, size: 0x8, addend: 0x0, symName: __ZNSt3__117__compressed_pairIfNS_21__unordered_map_equalINS_12basic_stringIcNS_11char_traitsIcEENS_9allocatorIcEEEENS_17__hash_value_typeIS7_NS_14priority_queueI5OrderNS_6vectorISA_NS5_ISA_EEEE19SellOrderComparatorEEEENS_8equal_toIS7_EENS_4hashIS7_EELb1EEEE6secondB8ue170006Ev, symObjAddr: 0xB27C, symBinAddr: 0x100015C2C, symSize: 0x24 }
  - { offsetInCU: 0x1CE17, offset: 0x53742, size: 0x8, addend: 0x0, symName: __ZNSt3__122__compressed_pair_elemINS_21__unordered_map_equalINS_12basic_stringIcNS_11char_traitsIcEENS_9allocatorIcEEEENS_17__hash_value_typeIS7_NS_14priority_queueI5OrderNS_6vectorISA_NS5_ISA_EEEE19SellOrderComparatorEEEENS_8equal_toIS7_EENS_4hashIS7_EELb1EEELi1ELb1EE5__getB8ue170006Ev, symObjAddr: 0xB2A0, symBinAddr: 0x100015C50, symSize: 0x14 }
  - { offsetInCU: 0x1CE3D, offset: 0x53768, size: 0x8, addend: 0x0, symName: __ZNKSt3__117__hash_value_typeINS_12basic_stringIcNS_11char_traitsIcEENS_9allocatorIcEEEENS_14priority_queueI5OrderNS_6vectorIS8_NS4_IS8_EEEE19SellOrderComparatorEEE11__get_valueB8ue170006Ev, symObjAddr: 0xB2B4, symBinAddr: 0x100015C64, symSize: 0x24 }
  - { offsetInCU: 0x1CE63, offset: 0x5378E, size: 0x8, addend: 0x0, symName: __ZNSt3__116allocator_traitsINS_9allocatorINS_11__hash_nodeINS_17__hash_value_typeINS_12basic_stringIcNS_11char_traitsIcEENS1_IcEEEENS_14priority_queueI5OrderNS_6vectorISA_NS1_ISA_EEEE19SellOrderComparatorEEEEPvEEEEE8allocateB8ue170006ERSJ_m, symObjAddr: 0xB310, symBinAddr: 0x100015CC0, symSize: 0x2C }
  - { offsetInCU: 0x1CE96, offset: 0x537C1, size: 0x8, addend: 0x0, symName: __ZNSt3__122__hash_node_destructorINS_9allocatorINS_11__hash_nodeINS_17__hash_value_typeINS_12basic_stringIcNS_11char_traitsIcEENS1_IcEEEENS_14priority_queueI5OrderNS_6vectorISA_NS1_ISA_EEEE19SellOrderComparatorEEEEPvEEEEEC1B8ue170006ERSJ_b, symObjAddr: 0xB33C, symBinAddr: 0x100015CEC, symSize: 0x48 }
  - { offsetInCU: 0x1CEE3, offset: 0x5380E, size: 0x8, addend: 0x0, symName: __ZNSt3__110unique_ptrINS_11__hash_nodeINS_17__hash_value_typeINS_12basic_stringIcNS_11char_traitsIcEENS_9allocatorIcEEEENS_14priority_queueI5OrderNS_6vectorISA_NS6_ISA_EEEE19SellOrderComparatorEEEEPvEENS_22__hash_node_destructorINS6_ISI_EEEEEC1B8ue170006ILb1EvEEPSI_NS_16__dependent_typeINS_27__unique_ptr_deleter_sfinaeISL_EEXT_EE20__good_rval_ref_typeE, symObjAddr: 0xB384, symBinAddr: 0x100015D34, symSize: 0x3C }
  - { offsetInCU: 0x1CF34, offset: 0x5385F, size: 0x8, addend: 0x0, symName: __ZNSt3__116allocator_traitsINS_9allocatorINS_11__hash_nodeINS_17__hash_value_typeINS_12basic_stringIcNS_11char_traitsIcEENS1_IcEEEENS_14priority_queueI5OrderNS_6vectorISA_NS1_ISA_EEEE19SellOrderComparatorEEEEPvEEEEE9constructB8ue170006INS_4pairIKS8_SF_EEJRKNS_21piecewise_construct_tENS_5tupleIJRSN_EEENSS_IJEEEEvEEvRSJ_PT_DpOT0_, symObjAddr: 0xB3C0, symBinAddr: 0x100015D70, symSize: 0x44 }
  - { offsetInCU: 0x1CFB3, offset: 0x538DE, size: 0x8, addend: 0x0, symName: __ZNSt3__110unique_ptrINS_11__hash_nodeINS_17__hash_value_typeINS_12basic_stringIcNS_11char_traitsIcEENS_9allocatorIcEEEENS_14priority_queueI5OrderNS_6vectorISA_NS6_ISA_EEEE19SellOrderComparatorEEEEPvEENS_22__hash_node_destructorINS6_ISI_EEEEE11get_deleterB8ue170006Ev, symObjAddr: 0xB404, symBinAddr: 0x100015DB4, symSize: 0x24 }
  - { offsetInCU: 0x1CFD9, offset: 0x53904, size: 0x8, addend: 0x0, symName: __ZNSt3__19allocatorINS_11__hash_nodeINS_17__hash_value_typeINS_12basic_stringIcNS_11char_traitsIcEENS0_IcEEEENS_14priority_queueI5OrderNS_6vectorIS9_NS0_IS9_EEEE19SellOrderComparatorEEEEPvEEE8allocateB8ue170006Em, symObjAddr: 0xB428, symBinAddr: 0x100015DD8, symSize: 0x5C }
  - { offsetInCU: 0x1D017, offset: 0x53942, size: 0x8, addend: 0x0, symName: __ZNSt3__116allocator_traitsINS_9allocatorINS_11__hash_nodeINS_17__hash_value_typeINS_12basic_stringIcNS_11char_traitsIcEENS1_IcEEEENS_14priority_queueI5OrderNS_6vectorISA_NS1_ISA_EEEE19SellOrderComparatorEEEEPvEEEEE8max_sizeB8ue170006ISJ_vEEmRKSJ_, symObjAddr: 0xB484, symBinAddr: 0x100015E34, symSize: 0x24 }
  - { offsetInCU: 0x1D045, offset: 0x53970, size: 0x8, addend: 0x0, symName: __ZNKSt3__19allocatorINS_11__hash_nodeINS_17__hash_value_typeINS_12basic_stringIcNS_11char_traitsIcEENS0_IcEEEENS_14priority_queueI5OrderNS_6vectorIS9_NS0_IS9_EEEE19SellOrderComparatorEEEEPvEEE8max_sizeB8ue170006Ev, symObjAddr: 0xB4A8, symBinAddr: 0x100015E58, symSize: 0x20 }
  - { offsetInCU: 0x1D06B, offset: 0x53996, size: 0x8, addend: 0x0, symName: __ZNSt3__122__hash_node_destructorINS_9allocatorINS_11__hash_nodeINS_17__hash_value_typeINS_12basic_stringIcNS_11char_traitsIcEENS1_IcEEEENS_14priority_queueI5OrderNS_6vectorISA_NS1_ISA_EEEE19SellOrderComparatorEEEEPvEEEEEC2B8ue170006ERSJ_b, symObjAddr: 0xB4C8, symBinAddr: 0x100015E78, symSize: 0x38 }
  - { offsetInCU: 0x1D0B3, offset: 0x539DE, size: 0x8, addend: 0x0, symName: __ZNSt3__110unique_ptrINS_11__hash_nodeINS_17__hash_value_typeINS_12basic_stringIcNS_11char_traitsIcEENS_9allocatorIcEEEENS_14priority_queueI5OrderNS_6vectorISA_NS6_ISA_EEEE19SellOrderComparatorEEEEPvEENS_22__hash_node_destructorINS6_ISI_EEEEEC2B8ue170006ILb1EvEEPSI_NS_16__dependent_typeINS_27__unique_ptr_deleter_sfinaeISL_EEXT_EE20__good_rval_ref_typeE, symObjAddr: 0xB500, symBinAddr: 0x100015EB0, symSize: 0x48 }
  - { offsetInCU: 0x1D104, offset: 0x53A2F, size: 0x8, addend: 0x0, symName: __ZNSt3__117__compressed_pairIPNS_11__hash_nodeINS_17__hash_value_typeINS_12basic_stringIcNS_11char_traitsIcEENS_9allocatorIcEEEENS_14priority_queueI5OrderNS_6vectorISA_NS6_ISA_EEEE19SellOrderComparatorEEEEPvEENS_22__hash_node_destructorINS6_ISI_EEEEEC1B8ue170006IRSJ_SM_EEOT_OT0_, symObjAddr: 0xB548, symBinAddr: 0x100015EF8, symSize: 0x3C }
  - { offsetInCU: 0x1D15C, offset: 0x53A87, size: 0x8, addend: 0x0, symName: __ZNSt3__117__compressed_pairIPNS_11__hash_nodeINS_17__hash_value_typeINS_12basic_stringIcNS_11char_traitsIcEENS_9allocatorIcEEEENS_14priority_queueI5OrderNS_6vectorISA_NS6_ISA_EEEE19SellOrderComparatorEEEEPvEENS_22__hash_node_destructorINS6_ISI_EEEEEC2B8ue170006IRSJ_SM_EEOT_OT0_, symObjAddr: 0xB584, symBinAddr: 0x100015F34, symSize: 0x48 }
  - { offsetInCU: 0x1D1B4, offset: 0x53ADF, size: 0x8, addend: 0x0, symName: __ZNSt3__122__compressed_pair_elemIPNS_11__hash_nodeINS_17__hash_value_typeINS_12basic_stringIcNS_11char_traitsIcEENS_9allocatorIcEEEENS_14priority_queueI5OrderNS_6vectorISA_NS6_ISA_EEEE19SellOrderComparatorEEEEPvEELi0ELb0EEC2B8ue170006IRSJ_vEEOT_, symObjAddr: 0xB5CC, symBinAddr: 0x100015F7C, symSize: 0x24 }
  - { offsetInCU: 0x1D1F6, offset: 0x53B21, size: 0x8, addend: 0x0, symName: __ZNSt3__122__compressed_pair_elemINS_22__hash_node_destructorINS_9allocatorINS_11__hash_nodeINS_17__hash_value_typeINS_12basic_stringIcNS_11char_traitsIcEENS2_IcEEEENS_14priority_queueI5OrderNS_6vectorISB_NS2_ISB_EEEE19SellOrderComparatorEEEEPvEEEEEELi1ELb0EEC2B8ue170006ISL_vEEOT_, symObjAddr: 0xB5F0, symBinAddr: 0x100015FA0, symSize: 0x24 }
  - { offsetInCU: 0x1D238, offset: 0x53B63, size: 0x8, addend: 0x0, symName: __ZNSt3__19allocatorINS_11__hash_nodeINS_17__hash_value_typeINS_12basic_stringIcNS_11char_traitsIcEENS0_IcEEEENS_14priority_queueI5OrderNS_6vectorIS9_NS0_IS9_EEEE19SellOrderComparatorEEEEPvEEE9constructB8ue170006INS_4pairIKS7_SE_EEJRKNS_21piecewise_construct_tENS_5tupleIJRSL_EEENSQ_IJEEEEEEvPT_DpOT0_, symObjAddr: 0xB614, symBinAddr: 0x100015FC4, symSize: 0x44 }
  - { offsetInCU: 0x1D2B4, offset: 0x53BDF, size: 0x8, addend: 0x0, symName: __ZNSt3__14pairIKNS_12basic_stringIcNS_11char_traitsIcEENS_9allocatorIcEEEENS_14priority_queueI5OrderNS_6vectorIS9_NS4_IS9_EEEE19SellOrderComparatorEEEC1B8ue170006IJRS7_EJEEENS_21piecewise_construct_tENS_5tupleIJDpT_EEENSJ_IJDpT0_EEE, symObjAddr: 0xB658, symBinAddr: 0x100016008, symSize: 0x3C }
  - { offsetInCU: 0x1D31B, offset: 0x53C46, size: 0x8, addend: 0x0, symName: __ZNSt3__14pairIKNS_12basic_stringIcNS_11char_traitsIcEENS_9allocatorIcEEEENS_14priority_queueI5OrderNS_6vectorIS9_NS4_IS9_EEEE19SellOrderComparatorEEEC1B8ue170006IJRS7_EJEJLm0EEJEEENS_21piecewise_construct_tERNS_5tupleIJDpT_EEERNSJ_IJDpT0_EEENS_15__tuple_indicesIJXspT1_EEEENSS_IJXspT2_EEEE, symObjAddr: 0xB694, symBinAddr: 0x100016044, symSize: 0x3C }
  - { offsetInCU: 0x1D3AB, offset: 0x53CD6, size: 0x8, addend: 0x0, symName: __ZNSt3__14pairIKNS_12basic_stringIcNS_11char_traitsIcEENS_9allocatorIcEEEENS_14priority_queueI5OrderNS_6vectorIS9_NS4_IS9_EEEE19SellOrderComparatorEEEC2B8ue170006IJRS7_EJEJLm0EEJEEENS_21piecewise_construct_tERNS_5tupleIJDpT_EEERNSJ_IJDpT0_EEENS_15__tuple_indicesIJXspT1_EEEENSS_IJXspT2_EEEE, symObjAddr: 0xB6D0, symBinAddr: 0x100016080, symSize: 0x50 }
  - { offsetInCU: 0x1D43B, offset: 0x53D66, size: 0x8, addend: 0x0, symName: __ZNSt3__117__compressed_pairIPNS_11__hash_nodeINS_17__hash_value_typeINS_12basic_stringIcNS_11char_traitsIcEENS_9allocatorIcEEEENS_14priority_queueI5OrderNS_6vectorISA_NS6_ISA_EEEE19SellOrderComparatorEEEEPvEENS_22__hash_node_destructorINS6_ISI_EEEEE6secondB8ue170006Ev, symObjAddr: 0xB720, symBinAddr: 0x1000160D0, symSize: 0x28 }
  - { offsetInCU: 0x1D461, offset: 0x53D8C, size: 0x8, addend: 0x0, symName: __ZNSt3__122__compressed_pair_elemINS_22__hash_node_destructorINS_9allocatorINS_11__hash_nodeINS_17__hash_value_typeINS_12basic_stringIcNS_11char_traitsIcEENS2_IcEEEENS_14priority_queueI5OrderNS_6vectorISB_NS2_ISB_EEEE19SellOrderComparatorEEEEPvEEEEEELi1ELb0EE5__getB8ue170006Ev, symObjAddr: 0xB748, symBinAddr: 0x1000160F8, symSize: 0x14 }
  - { offsetInCU: 0x1D487, offset: 0x53DB2, size: 0x8, addend: 0x0, symName: __ZNSt3__117__compressed_pairImNS_22__unordered_map_hasherINS_12basic_stringIcNS_11char_traitsIcEENS_9allocatorIcEEEENS_17__hash_value_typeIS7_NS_14priority_queueI5OrderNS_6vectorISA_NS5_ISA_EEEE19SellOrderComparatorEEEENS_4hashIS7_EENS_8equal_toIS7_EELb1EEEE5firstB8ue170006Ev, symObjAddr: 0xB75C, symBinAddr: 0x10001610C, symSize: 0x24 }
  - { offsetInCU: 0x1D4AD, offset: 0x53DD8, size: 0x8, addend: 0x0, symName: __ZNSt3__117__compressed_pairIfNS_21__unordered_map_equalINS_12basic_stringIcNS_11char_traitsIcEENS_9allocatorIcEEEENS_17__hash_value_typeIS7_NS_14priority_queueI5OrderNS_6vectorISA_NS5_ISA_EEEE19SellOrderComparatorEEEENS_8equal_toIS7_EENS_4hashIS7_EELb1EEEE5firstB8ue170006Ev, symObjAddr: 0xB780, symBinAddr: 0x100016130, symSize: 0x24 }
  - { offsetInCU: 0x1D4D3, offset: 0x53DFE, size: 0x8, addend: 0x0, symName: __ZNSt3__112__hash_tableINS_17__hash_value_typeINS_12basic_stringIcNS_11char_traitsIcEENS_9allocatorIcEEEENS_14priority_queueI5OrderNS_6vectorIS9_NS5_IS9_EEEE19SellOrderComparatorEEEENS_22__unordered_map_hasherIS7_SF_NS_4hashIS7_EENS_8equal_toIS7_EELb1EEENS_21__unordered_map_equalIS7_SF_SK_SI_Lb1EEENS5_ISF_EEE8__rehashILb1EEEvm, symObjAddr: 0xB7A4, symBinAddr: 0x100016154, symSize: 0x1A8 }
  - { offsetInCU: 0x1D523, offset: 0x53E4E, size: 0x8, addend: 0x0, symName: __ZNSt3__112__hash_tableINS_17__hash_value_typeINS_12basic_stringIcNS_11char_traitsIcEENS_9allocatorIcEEEENS_14priority_queueI5OrderNS_6vectorIS9_NS5_IS9_EEEE19SellOrderComparatorEEEENS_22__unordered_map_hasherIS7_SF_NS_4hashIS7_EENS_8equal_toIS7_EELb1EEENS_21__unordered_map_equalIS7_SF_SK_SI_Lb1EEENS5_ISF_EEE11__do_rehashILb1EEEvm, symObjAddr: 0xB94C, symBinAddr: 0x1000162FC, symSize: 0x288 }
  - { offsetInCU: 0x1D606, offset: 0x53F31, size: 0x8, addend: 0x0, symName: __ZNSt3__110unique_ptrIA_PNS_16__hash_node_baseIPNS_11__hash_nodeINS_17__hash_value_typeINS_12basic_stringIcNS_11char_traitsIcEENS_9allocatorIcEEEENS_14priority_queueI5OrderNS_6vectorISB_NS7_ISB_EEEE19SellOrderComparatorEEEEPvEEEENS_25__bucket_list_deallocatorINS7_ISM_EEEEE11get_deleterB8ue170006Ev, symObjAddr: 0xBBD4, symBinAddr: 0x100016584, symSize: 0x24 }
  - { offsetInCU: 0x1D62C, offset: 0x53F57, size: 0x8, addend: 0x0, symName: __ZNSt3__110unique_ptrIA_PNS_16__hash_node_baseIPNS_11__hash_nodeINS_17__hash_value_typeINS_12basic_stringIcNS_11char_traitsIcEENS_9allocatorIcEEEENS_14priority_queueI5OrderNS_6vectorISB_NS7_ISB_EEEE19SellOrderComparatorEEEEPvEEEENS_25__bucket_list_deallocatorINS7_ISM_EEEEE5resetB8ue170006IPSM_EENS_9enable_ifIXsr28_CheckArrayPointerConversionIT_EE5valueEvE4typeESV_, symObjAddr: 0xBBF8, symBinAddr: 0x1000165A8, symSize: 0x78 }
  - { offsetInCU: 0x1D679, offset: 0x53FA4, size: 0x8, addend: 0x0, symName: __ZNSt3__116allocator_traitsINS_9allocatorIPNS_16__hash_node_baseIPNS_11__hash_nodeINS_17__hash_value_typeINS_12basic_stringIcNS_11char_traitsIcEENS1_IcEEEENS_14priority_queueI5OrderNS_6vectorISB_NS1_ISB_EEEE19SellOrderComparatorEEEEPvEEEEEEE8allocateB8ue170006ERSN_m, symObjAddr: 0xBC70, symBinAddr: 0x100016620, symSize: 0x2C }
  - { offsetInCU: 0x1D6AC, offset: 0x53FD7, size: 0x8, addend: 0x0, symName: __ZNSt3__19allocatorIPNS_16__hash_node_baseIPNS_11__hash_nodeINS_17__hash_value_typeINS_12basic_stringIcNS_11char_traitsIcEENS0_IcEEEENS_14priority_queueI5OrderNS_6vectorISA_NS0_ISA_EEEE19SellOrderComparatorEEEEPvEEEEE8allocateB8ue170006Em, symObjAddr: 0xBC9C, symBinAddr: 0x10001664C, symSize: 0x58 }
  - { offsetInCU: 0x1D6EA, offset: 0x54015, size: 0x8, addend: 0x0, symName: __ZNSt3__116allocator_traitsINS_9allocatorIPNS_16__hash_node_baseIPNS_11__hash_nodeINS_17__hash_value_typeINS_12basic_stringIcNS_11char_traitsIcEENS1_IcEEEENS_14priority_queueI5OrderNS_6vectorISB_NS1_ISB_EEEE19SellOrderComparatorEEEEPvEEEEEEE8max_sizeB8ue170006ISN_vEEmRKSN_, symObjAddr: 0xBCF4, symBinAddr: 0x1000166A4, symSize: 0x24 }
  - { offsetInCU: 0x1D718, offset: 0x54043, size: 0x8, addend: 0x0, symName: __ZNKSt3__19allocatorIPNS_16__hash_node_baseIPNS_11__hash_nodeINS_17__hash_value_typeINS_12basic_stringIcNS_11char_traitsIcEENS0_IcEEEENS_14priority_queueI5OrderNS_6vectorISA_NS0_ISA_EEEE19SellOrderComparatorEEEEPvEEEEE8max_sizeB8ue170006Ev, symObjAddr: 0xBD18, symBinAddr: 0x1000166C8, symSize: 0x14 }
  - { offsetInCU: 0x1D73E, offset: 0x54069, size: 0x8, addend: 0x0, symName: __ZNKSt3__117__compressed_pairIPNS_11__hash_nodeINS_17__hash_value_typeINS_12basic_stringIcNS_11char_traitsIcEENS_9allocatorIcEEEENS_14priority_queueI5OrderNS_6vectorISA_NS6_ISA_EEEE19SellOrderComparatorEEEEPvEENS_22__hash_node_destructorINS6_ISI_EEEEE5firstB8ue170006Ev, symObjAddr: 0xBD2C, symBinAddr: 0x1000166DC, symSize: 0x24 }
  - { offsetInCU: 0x1D764, offset: 0x5408F, size: 0x8, addend: 0x0, symName: __ZNKSt3__122__compressed_pair_elemIPNS_11__hash_nodeINS_17__hash_value_typeINS_12basic_stringIcNS_11char_traitsIcEENS_9allocatorIcEEEENS_14priority_queueI5OrderNS_6vectorISA_NS6_ISA_EEEE19SellOrderComparatorEEEEPvEELi0ELb0EE5__getB8ue170006Ev, symObjAddr: 0xBD50, symBinAddr: 0x100016700, symSize: 0x14 }
  - { offsetInCU: 0x1D78A, offset: 0x540B5, size: 0x8, addend: 0x0, symName: __ZNSt3__117__compressed_pairIPNS_11__hash_nodeINS_17__hash_value_typeINS_12basic_stringIcNS_11char_traitsIcEENS_9allocatorIcEEEENS_14priority_queueI5OrderNS_6vectorISA_NS6_ISA_EEEE19SellOrderComparatorEEEEPvEENS_22__hash_node_destructorINS6_ISI_EEEEE5firstB8ue170006Ev, symObjAddr: 0xBD64, symBinAddr: 0x100016714, symSize: 0x24 }
  - { offsetInCU: 0x1D7B0, offset: 0x540DB, size: 0x8, addend: 0x0, symName: __ZNSt3__122__compressed_pair_elemIPNS_11__hash_nodeINS_17__hash_value_typeINS_12basic_stringIcNS_11char_traitsIcEENS_9allocatorIcEEEENS_14priority_queueI5OrderNS_6vectorISA_NS6_ISA_EEEE19SellOrderComparatorEEEEPvEELi0ELb0EE5__getB8ue170006Ev, symObjAddr: 0xBD88, symBinAddr: 0x100016738, symSize: 0x14 }
  - { offsetInCU: 0x1D7D6, offset: 0x54101, size: 0x8, addend: 0x0, symName: __ZNSt3__110unique_ptrINS_11__hash_nodeINS_17__hash_value_typeINS_12basic_stringIcNS_11char_traitsIcEENS_9allocatorIcEEEENS_14priority_queueI5OrderNS_6vectorISA_NS6_ISA_EEEE19SellOrderComparatorEEEEPvEENS_22__hash_node_destructorINS6_ISI_EEEEED2B8ue170006Ev, symObjAddr: 0xBD9C, symBinAddr: 0x10001674C, symSize: 0x30 }
  - { offsetInCU: 0x1D800, offset: 0x5412B, size: 0x8, addend: 0x0, symName: __ZNSt3__110unique_ptrINS_11__hash_nodeINS_17__hash_value_typeINS_12basic_stringIcNS_11char_traitsIcEENS_9allocatorIcEEEENS_14priority_queueI5OrderNS_6vectorISA_NS6_ISA_EEEE19SellOrderComparatorEEEEPvEENS_22__hash_node_destructorINS6_ISI_EEEEE5resetB8ue170006EPSI_, symObjAddr: 0xBDCC, symBinAddr: 0x10001677C, symSize: 0x78 }
  - { offsetInCU: 0x1D844, offset: 0x5416F, size: 0x8, addend: 0x0, symName: __ZNSt3__122__hash_node_destructorINS_9allocatorINS_11__hash_nodeINS_17__hash_value_typeINS_12basic_stringIcNS_11char_traitsIcEENS1_IcEEEENS_14priority_queueI5OrderNS_6vectorISA_NS1_ISA_EEEE19SellOrderComparatorEEEEPvEEEEEclB8ue170006EPSI_, symObjAddr: 0xBE44, symBinAddr: 0x1000167F4, symSize: 0x94 }
  - { offsetInCU: 0x1D879, offset: 0x541A4, size: 0x8, addend: 0x0, symName: __ZNSt3__115__hash_iteratorIPNS_11__hash_nodeINS_17__hash_value_typeINS_12basic_stringIcNS_11char_traitsIcEENS_9allocatorIcEEEENS_14priority_queueI5OrderNS_6vectorISA_NS6_ISA_EEEE19SellOrderComparatorEEEEPvEEEC2B8ue170006EPNS_16__hash_node_baseISJ_EE, symObjAddr: 0xBED8, symBinAddr: 0x100016888, symSize: 0x20 }
  - { offsetInCU: 0x1D8B2, offset: 0x541DD, size: 0x8, addend: 0x0, symName: __ZNSt3__14pairINS_15__hash_iteratorIPNS_11__hash_nodeINS_17__hash_value_typeINS_12basic_stringIcNS_11char_traitsIcEENS_9allocatorIcEEEENS_14priority_queueI5OrderNS_6vectorISB_NS7_ISB_EEEE19SellOrderComparatorEEEEPvEEEEbEC2B8ue170006ISL_RbLSI_0EEEOT_OT0_, symObjAddr: 0xBEF8, symBinAddr: 0x1000168A8, symSize: 0x38 }
  - { offsetInCU: 0x1D910, offset: 0x5423B, size: 0x8, addend: 0x0, symName: __ZNSt3__114pointer_traitsIPNS_17__hash_value_typeINS_12basic_stringIcNS_11char_traitsIcEENS_9allocatorIcEEEENS_14priority_queueI5OrderNS_6vectorIS9_NS5_IS9_EEEE19SellOrderComparatorEEEEE10pointer_toB8ue170006ERSF_, symObjAddr: 0xBF30, symBinAddr: 0x1000168E0, symSize: 0x14 }
  - { offsetInCU: 0x1D933, offset: 0x5425E, size: 0x8, addend: 0x0, symName: __ZNSt3__114priority_queueI5OrderNS_6vectorIS1_NS_9allocatorIS1_EEEE19SellOrderComparatorEC2B8ue170006Ev, symObjAddr: 0xBF44, symBinAddr: 0x1000168F4, symSize: 0x2C }
  - { offsetInCU: 0x1D95D, offset: 0x54288, size: 0x8, addend: 0x0, symName: __ZNSt3__112__hash_tableINS_17__hash_value_typeINS_12basic_stringIcNS_11char_traitsIcEENS_9allocatorIcEEEEP6TraderEENS_22__unordered_map_hasherIS7_SA_NS_4hashIS7_EENS_8equal_toIS7_EELb1EEENS_21__unordered_map_equalIS7_SA_SF_SD_Lb1EEENS5_ISA_EEE25__emplace_unique_key_argsIS7_JRKNS_21piecewise_construct_tENS_5tupleIJOS7_EEENSP_IJEEEEEENS_4pairINS_15__hash_iteratorIPNS_11__hash_nodeISA_PvEEEEbEERKT_DpOT0_, symObjAddr: 0xBF70, symBinAddr: 0x100016920, symSize: 0x4CC }
  - { offsetInCU: 0x1DA68, offset: 0x54393, size: 0x8, addend: 0x0, symName: __ZNSt3__112__hash_tableINS_17__hash_value_typeINS_12basic_stringIcNS_11char_traitsIcEENS_9allocatorIcEEEEP6TraderEENS_22__unordered_map_hasherIS7_SA_NS_4hashIS7_EENS_8equal_toIS7_EELb1EEENS_21__unordered_map_equalIS7_SA_SF_SD_Lb1EEENS5_ISA_EEE21__construct_node_hashIRKNS_21piecewise_construct_tEJNS_5tupleIJOS7_EEENSP_IJEEEEEENS_10unique_ptrINS_11__hash_nodeISA_PvEENS_22__hash_node_destructorINS5_ISW_EEEEEEmOT_DpOT0_, symObjAddr: 0xC5D0, symBinAddr: 0x100016E18, symSize: 0x150 }
  - { offsetInCU: 0x1DB09, offset: 0x54434, size: 0x8, addend: 0x0, symName: __ZNSt3__116allocator_traitsINS_9allocatorINS_11__hash_nodeINS_17__hash_value_typeINS_12basic_stringIcNS_11char_traitsIcEENS1_IcEEEEP6TraderEEPvEEEEE9constructB8ue170006INS_4pairIKS8_SA_EEJRKNS_21piecewise_construct_tENS_5tupleIJOS8_EEENSN_IJEEEEvEEvRSE_PT_DpOT0_, symObjAddr: 0xCB50, symBinAddr: 0x100016F68, symSize: 0x44 }
  - { offsetInCU: 0x1DB92, offset: 0x544BD, size: 0x8, addend: 0x0, symName: __ZNSt3__19allocatorINS_11__hash_nodeINS_17__hash_value_typeINS_12basic_stringIcNS_11char_traitsIcEENS0_IcEEEEP6TraderEEPvEEE9constructB8ue170006INS_4pairIKS7_S9_EEJRKNS_21piecewise_construct_tENS_5tupleIJOS7_EEENSL_IJEEEEEEvPT_DpOT0_, symObjAddr: 0xCD9C, symBinAddr: 0x100016FAC, symSize: 0x44 }
  - { offsetInCU: 0x1DC0E, offset: 0x54539, size: 0x8, addend: 0x0, symName: __ZNSt3__14pairIKNS_12basic_stringIcNS_11char_traitsIcEENS_9allocatorIcEEEEP6TraderEC1B8ue170006IJOS6_EJEEENS_21piecewise_construct_tENS_5tupleIJDpT_EEENSE_IJDpT0_EEE, symObjAddr: 0xCDE0, symBinAddr: 0x100016FF0, symSize: 0x44 }
  - { offsetInCU: 0x1DC75, offset: 0x545A0, size: 0x8, addend: 0x0, symName: __ZNSt3__14pairIKNS_12basic_stringIcNS_11char_traitsIcEENS_9allocatorIcEEEEP6TraderEC1B8ue170006IJOS6_EJEJLm0EEJEEENS_21piecewise_construct_tERNS_5tupleIJDpT_EEERNSE_IJDpT0_EEENS_15__tuple_indicesIJXspT1_EEEENSN_IJXspT2_EEEE, symObjAddr: 0xCE24, symBinAddr: 0x100017034, symSize: 0x3C }
  - { offsetInCU: 0x1DD05, offset: 0x54630, size: 0x8, addend: 0x0, symName: __ZNSt3__14pairIKNS_12basic_stringIcNS_11char_traitsIcEENS_9allocatorIcEEEEP6TraderEC2B8ue170006IJOS6_EJEJLm0EEJEEENS_21piecewise_construct_tERNS_5tupleIJDpT_EEERNSE_IJDpT0_EEENS_15__tuple_indicesIJXspT1_EEEENSN_IJXspT2_EEEE, symObjAddr: 0xCE60, symBinAddr: 0x100017070, symSize: 0x48 }
  - { offsetInCU: 0x1DD95, offset: 0x546C0, size: 0x8, addend: 0x0, symName: __ZNSt3__112basic_stringIcNS_11char_traitsIcEENS_9allocatorIcEEEC1B8ue170006EOS5_, symObjAddr: 0xCECC, symBinAddr: 0x1000170DC, symSize: 0x34 }
  - { offsetInCU: 0x1DDCE, offset: 0x546F9, size: 0x8, addend: 0x0, symName: __ZNSt3__112__tuple_leafILm0EONS_12basic_stringIcNS_11char_traitsIcEENS_9allocatorIcEEEELb0EE3getB8ue170006Ev, symObjAddr: 0xCF00, symBinAddr: 0x100017110, symSize: 0x18 }
  - { offsetInCU: 0x1DDF4, offset: 0x5471F, size: 0x8, addend: 0x0, symName: __ZNSt3__112basic_stringIcNS_11char_traitsIcEENS_9allocatorIcEEEC2B8ue170006EOS5_, symObjAddr: 0xCF18, symBinAddr: 0x100017128, symSize: 0x50 }
  - { offsetInCU: 0x1DE2D, offset: 0x54758, size: 0x8, addend: 0x0, symName: __ZNSt3__15tupleIJONS_12basic_stringIcNS_11char_traitsIcEENS_9allocatorIcEEEEEEC1B8ue170006IJS6_ELi0EEEDpOT_, symObjAddr: 0xD7F0, symBinAddr: 0x100017178, symSize: 0x34 }
  - { offsetInCU: 0x1DE77, offset: 0x547A2, size: 0x8, addend: 0x0, symName: __ZNSt3__15tupleIJONS_12basic_stringIcNS_11char_traitsIcEENS_9allocatorIcEEEEEEC2B8ue170006IJS6_ELi0EEEDpOT_, symObjAddr: 0xD824, symBinAddr: 0x1000171AC, symSize: 0x34 }
  - { offsetInCU: 0x1DEC1, offset: 0x547EC, size: 0x8, addend: 0x0, symName: __ZNSt3__112__tuple_implINS_15__tuple_indicesIJLm0EEEEJONS_12basic_stringIcNS_11char_traitsIcEENS_9allocatorIcEEEEEEC1B8ue170006IJLm0EEJS9_EJEJEJS8_EEENS1_IJXspT_EEEENS_13__tuple_typesIJDpT0_EEENS1_IJXspT1_EEEENSD_IJDpT2_EEEDpOT3_, symObjAddr: 0xD858, symBinAddr: 0x1000171E0, symSize: 0x34 }
  - { offsetInCU: 0x1DF56, offset: 0x54881, size: 0x8, addend: 0x0, symName: __ZNSt3__112__tuple_implINS_15__tuple_indicesIJLm0EEEEJONS_12basic_stringIcNS_11char_traitsIcEENS_9allocatorIcEEEEEEC2B8ue170006IJLm0EEJS9_EJEJEJS8_EEENS1_IJXspT_EEEENS_13__tuple_typesIJDpT0_EEENS1_IJXspT1_EEEENSD_IJDpT2_EEEDpOT3_, symObjAddr: 0xD88C, symBinAddr: 0x100017214, symSize: 0x34 }
  - { offsetInCU: 0x1DFEB, offset: 0x54916, size: 0x8, addend: 0x0, symName: __ZNSt3__112__tuple_leafILm0EONS_12basic_stringIcNS_11char_traitsIcEENS_9allocatorIcEEEELb0EEC2B8ue170006IS6_vEEOT_, symObjAddr: 0xD8C0, symBinAddr: 0x100017248, symSize: 0x20 }
  - { offsetInCU: 0x1E02E, offset: 0x54959, size: 0x8, addend: 0x0, symName: __ZNKSt3__16vectorI5OrderNS_9allocatorIS1_EEE5frontB8ue170006Ev, symObjAddr: 0xD8F4, symBinAddr: 0x100017268, symSize: 0x18 }
  - { offsetInCU: 0x1E054, offset: 0x5497F, size: 0x8, addend: 0x0, symName: __ZNSt3__16vectorI5OrderNS_9allocatorIS1_EEEC2B8ue170006Ev, symObjAddr: 0xD90C, symBinAddr: 0x100017280, symSize: 0x4C }
  - { offsetInCU: 0x1E07E, offset: 0x549A9, size: 0x8, addend: 0x0, symName: __ZNSt3__117__compressed_pairIP5OrderNS_9allocatorIS1_EEEC1B8ue170006IDnNS_18__default_init_tagEEEOT_OT0_, symObjAddr: 0xD958, symBinAddr: 0x1000172CC, symSize: 0x3C }
  - { offsetInCU: 0x1E0D6, offset: 0x54A01, size: 0x8, addend: 0x0, symName: __ZNSt3__117__compressed_pairIP5OrderNS_9allocatorIS1_EEEC2B8ue170006IDnNS_18__default_init_tagEEEOT_OT0_, symObjAddr: 0xD994, symBinAddr: 0x100017308, symSize: 0x40 }
  - { offsetInCU: 0x1E12E, offset: 0x54A59, size: 0x8, addend: 0x0, symName: __ZNSt3__122__compressed_pair_elemIP5OrderLi0ELb0EEC2B8ue170006IDnvEEOT_, symObjAddr: 0xD9D4, symBinAddr: 0x100017348, symSize: 0x1C }
  - { offsetInCU: 0x1E170, offset: 0x54A9B, size: 0x8, addend: 0x0, symName: __ZNSt3__122__compressed_pair_elemINS_9allocatorI5OrderEELi1ELb1EEC2B8ue170006ENS_18__default_init_tagE, symObjAddr: 0xD9F0, symBinAddr: 0x100017364, symSize: 0x2C }
  - { offsetInCU: 0x1E1A5, offset: 0x54AD0, size: 0x8, addend: 0x0, symName: __ZNSt3__19allocatorI5OrderEC2B8ue170006Ev, symObjAddr: 0xDA1C, symBinAddr: 0x100017390, symSize: 0x2C }
  - { offsetInCU: 0x1E1CF, offset: 0x54AFA, size: 0x8, addend: 0x0, symName: __ZNSt3__116__non_trivial_ifILb1ENS_9allocatorI5OrderEEEC2B8ue170006Ev, symObjAddr: 0xDA48, symBinAddr: 0x1000173BC, symSize: 0x14 }
  - { offsetInCU: 0x1E1F9, offset: 0x54B24, size: 0x8, addend: 0x0, symName: __ZNSt3__16vectorI5OrderNS_9allocatorIS1_EEE22__construct_one_at_endB8ue170006IJRKS1_EEEvDpOT_, symObjAddr: 0xDA5C, symBinAddr: 0x1000173D0, symSize: 0x90 }
  - { offsetInCU: 0x1E248, offset: 0x54B73, size: 0x8, addend: 0x0, symName: __ZNSt3__16vectorI5OrderNS_9allocatorIS1_EEE21__push_back_slow_pathIRKS1_EEvOT_, symObjAddr: 0xDAEC, symBinAddr: 0x100017460, symSize: 0xD8 }
  - { offsetInCU: 0x1E2BF, offset: 0x54BEA, size: 0x8, addend: 0x0, symName: __ZNSt3__16vectorI5OrderNS_9allocatorIS1_EEE21_ConstructTransactionC1B8ue170006ERS4_m, symObjAddr: 0xDBC4, symBinAddr: 0x100017538, symSize: 0x3C }
  - { offsetInCU: 0x1E307, offset: 0x54C32, size: 0x8, addend: 0x0, symName: __ZNSt3__116allocator_traitsINS_9allocatorI5OrderEEE9constructB8ue170006IS2_JRKS2_EvEEvRS3_PT_DpOT0_, symObjAddr: 0xDC00, symBinAddr: 0x100017574, symSize: 0x34 }
  - { offsetInCU: 0x1E35E, offset: 0x54C89, size: 0x8, addend: 0x0, symName: __ZNSt3__16vectorI5OrderNS_9allocatorIS1_EEE21_ConstructTransactionD1B8ue170006Ev, symObjAddr: 0xDC34, symBinAddr: 0x1000175A8, symSize: 0x2C }
  - { offsetInCU: 0x1E388, offset: 0x54CB3, size: 0x8, addend: 0x0, symName: __ZNSt3__16vectorI5OrderNS_9allocatorIS1_EEE21_ConstructTransactionC2B8ue170006ERS4_m, symObjAddr: 0xDC60, symBinAddr: 0x1000175D4, symSize: 0x4C }
  - { offsetInCU: 0x1E3D0, offset: 0x54CFB, size: 0x8, addend: 0x0, symName: __ZNSt3__19allocatorI5OrderE9constructB8ue170006IS1_JRKS1_EEEvPT_DpOT0_, symObjAddr: 0xDCAC, symBinAddr: 0x100017620, symSize: 0x30 }
  - { offsetInCU: 0x1E426, offset: 0x54D51, size: 0x8, addend: 0x0, symName: __ZNSt3__16vectorI5OrderNS_9allocatorIS1_EEE21_ConstructTransactionD2B8ue170006Ev, symObjAddr: 0xDCDC, symBinAddr: 0x100017650, symSize: 0x20 }
  - { offsetInCU: 0x1E450, offset: 0x54D7B, size: 0x8, addend: 0x0, symName: __ZNKSt3__16vectorI5OrderNS_9allocatorIS1_EEE11__recommendB8ue170006Em, symObjAddr: 0xDCFC, symBinAddr: 0x100017670, symSize: 0xB4 }
  - { offsetInCU: 0x1E4A5, offset: 0x54DD0, size: 0x8, addend: 0x0, symName: __ZNSt3__114__split_bufferI5OrderRNS_9allocatorIS1_EEEC1EmmS4_, symObjAddr: 0xDDB0, symBinAddr: 0x100017724, symSize: 0x44 }
  - { offsetInCU: 0x1E4FB, offset: 0x54E26, size: 0x8, addend: 0x0, symName: __ZNSt3__114__split_bufferI5OrderRNS_9allocatorIS1_EEED1Ev, symObjAddr: 0xDF04, symBinAddr: 0x100017878, symSize: 0x2C }
  - { offsetInCU: 0x1E527, offset: 0x54E52, size: 0x8, addend: 0x0, symName: __ZNKSt3__16vectorI5OrderNS_9allocatorIS1_EEE8max_sizeEv, symObjAddr: 0xDF30, symBinAddr: 0x1000178A4, symSize: 0x60 }
  - { offsetInCU: 0x1E54F, offset: 0x54E7A, size: 0x8, addend: 0x0, symName: __ZNKSt3__16vectorI5OrderNS_9allocatorIS1_EEE20__throw_length_errorB8ue170006Ev, symObjAddr: 0xDF90, symBinAddr: 0x100017904, symSize: 0x1C }
  - { offsetInCU: 0x1E57F, offset: 0x54EAA, size: 0x8, addend: 0x0, symName: __ZNSt3__116allocator_traitsINS_9allocatorI5OrderEEE8max_sizeB8ue170006IS3_vEEmRKS3_, symObjAddr: 0xDFD8, symBinAddr: 0x100017920, symSize: 0x24 }
  - { offsetInCU: 0x1E5AD, offset: 0x54ED8, size: 0x8, addend: 0x0, symName: __ZNKSt3__16vectorI5OrderNS_9allocatorIS1_EEE7__allocB8ue170006Ev, symObjAddr: 0xDFFC, symBinAddr: 0x100017944, symSize: 0x28 }
  - { offsetInCU: 0x1E5D3, offset: 0x54EFE, size: 0x8, addend: 0x0, symName: __ZNKSt3__19allocatorI5OrderE8max_sizeB8ue170006Ev, symObjAddr: 0xE08C, symBinAddr: 0x10001796C, symSize: 0x18 }
  - { offsetInCU: 0x1E5F9, offset: 0x54F24, size: 0x8, addend: 0x0, symName: __ZNKSt3__117__compressed_pairIP5OrderNS_9allocatorIS1_EEE6secondB8ue170006Ev, symObjAddr: 0xE0A4, symBinAddr: 0x100017984, symSize: 0x24 }
  - { offsetInCU: 0x1E61F, offset: 0x54F4A, size: 0x8, addend: 0x0, symName: __ZNKSt3__122__compressed_pair_elemINS_9allocatorI5OrderEELi1ELb1EE5__getB8ue170006Ev, symObjAddr: 0xE0C8, symBinAddr: 0x1000179A8, symSize: 0x14 }
  - { offsetInCU: 0x1E645, offset: 0x54F70, size: 0x8, addend: 0x0, symName: __ZNSt3__114__split_bufferI5OrderRNS_9allocatorIS1_EEEC2EmmS4_, symObjAddr: 0xE1C8, symBinAddr: 0x1000179BC, symSize: 0xE0 }
  - { offsetInCU: 0x1E6B8, offset: 0x54FE3, size: 0x8, addend: 0x0, symName: __ZNSt3__117__compressed_pairIP5OrderRNS_9allocatorIS1_EEEC1B8ue170006IDnS5_EEOT_OT0_, symObjAddr: 0xE2A8, symBinAddr: 0x100017A9C, symSize: 0x3C }
  - { offsetInCU: 0x1E710, offset: 0x5503B, size: 0x8, addend: 0x0, symName: __ZNSt3__114__split_bufferI5OrderRNS_9allocatorIS1_EEE7__allocB8ue170006Ev, symObjAddr: 0xE324, symBinAddr: 0x100017B18, symSize: 0x28 }
  - { offsetInCU: 0x1E736, offset: 0x55061, size: 0x8, addend: 0x0, symName: __ZNSt3__114__split_bufferI5OrderRNS_9allocatorIS1_EEE9__end_capB8ue170006Ev, symObjAddr: 0xE34C, symBinAddr: 0x100017B40, symSize: 0x28 }
  - { offsetInCU: 0x1E75C, offset: 0x55087, size: 0x8, addend: 0x0, symName: __ZNSt3__117__compressed_pairIP5OrderRNS_9allocatorIS1_EEEC2B8ue170006IDnS5_EEOT_OT0_, symObjAddr: 0xE374, symBinAddr: 0x100017B68, symSize: 0x48 }
  - { offsetInCU: 0x1E7B4, offset: 0x550DF, size: 0x8, addend: 0x0, symName: __ZNSt3__122__compressed_pair_elemIRNS_9allocatorI5OrderEELi1ELb0EEC2B8ue170006IS4_vEEOT_, symObjAddr: 0xE3BC, symBinAddr: 0x100017BB0, symSize: 0x20 }
  - { offsetInCU: 0x1E7F6, offset: 0x55121, size: 0x8, addend: 0x0, symName: __ZNSt3__19allocatorI5OrderE8allocateB8ue170006Em, symObjAddr: 0xE3DC, symBinAddr: 0x100017BD0, symSize: 0x5C }
  - { offsetInCU: 0x1E82A, offset: 0x55155, size: 0x8, addend: 0x0, symName: __ZNSt3__117__compressed_pairIP5OrderRNS_9allocatorIS1_EEE6secondB8ue170006Ev, symObjAddr: 0xE438, symBinAddr: 0x100017C2C, symSize: 0x28 }
  - { offsetInCU: 0x1E850, offset: 0x5517B, size: 0x8, addend: 0x0, symName: __ZNSt3__122__compressed_pair_elemIRNS_9allocatorI5OrderEELi1ELb0EE5__getB8ue170006Ev, symObjAddr: 0xE460, symBinAddr: 0x100017C54, symSize: 0x18 }
  - { offsetInCU: 0x1E876, offset: 0x551A1, size: 0x8, addend: 0x0, symName: __ZNSt3__117__compressed_pairIP5OrderRNS_9allocatorIS1_EEE5firstB8ue170006Ev, symObjAddr: 0xE478, symBinAddr: 0x100017C6C, symSize: 0x24 }
  - { offsetInCU: 0x1E89C, offset: 0x551C7, size: 0x8, addend: 0x0, symName: __ZNSt3__116reverse_iteratorIP5OrderEC1B8ue170006ES2_, symObjAddr: 0xE5C8, symBinAddr: 0x100017DBC, symSize: 0x34 }
  - { offsetInCU: 0x1E8D4, offset: 0x551FF, size: 0x8, addend: 0x0, symName: __ZNKSt3__116reverse_iteratorIP5OrderE4baseB8ue170006Ev, symObjAddr: 0xE5FC, symBinAddr: 0x100017DF0, symSize: 0x18 }
  - { offsetInCU: 0x1E8FA, offset: 0x55225, size: 0x8, addend: 0x0, symName: __ZNKSt3__16vectorI5OrderNS_9allocatorIS1_EEE14__annotate_newB8ue170006Em, symObjAddr: 0xE650, symBinAddr: 0x100017E44, symSize: 0xC8 }
  - { offsetInCU: 0x1E92F, offset: 0x5525A, size: 0x8, addend: 0x0, symName: __ZNSt3__129_AllocatorDestroyRangeReverseINS_9allocatorI5OrderEENS_16reverse_iteratorIPS2_EEEC1B8ue170006ERS3_RS6_S9_, symObjAddr: 0xE764, symBinAddr: 0x100017F58, symSize: 0x44 }
  - { offsetInCU: 0x1E98B, offset: 0x552B6, size: 0x8, addend: 0x0, symName: __ZNSt3__116allocator_traitsINS_9allocatorI5OrderEEE9constructB8ue170006IS2_JS2_EvEEvRS3_PT_DpOT0_, symObjAddr: 0xE7F0, symBinAddr: 0x100017FE4, symSize: 0x34 }
  - { offsetInCU: 0x1E9E2, offset: 0x5530D, size: 0x8, addend: 0x0, symName: __ZNKSt3__116reverse_iteratorIP5OrderEdeB8ue170006Ev, symObjAddr: 0xE848, symBinAddr: 0x10001803C, symSize: 0x28 }
  - { offsetInCU: 0x1EA17, offset: 0x55342, size: 0x8, addend: 0x0, symName: __ZNSt3__116reverse_iteratorIP5OrderEppB8ue170006Ev, symObjAddr: 0xE870, symBinAddr: 0x100018064, symSize: 0x20 }
  - { offsetInCU: 0x1EA3D, offset: 0x55368, size: 0x8, addend: 0x0, symName: __ZNSt3__128__exception_guard_exceptionsINS_29_AllocatorDestroyRangeReverseINS_9allocatorI5OrderEENS_16reverse_iteratorIPS3_EEEEE10__completeB8ue170006Ev, symObjAddr: 0xE890, symBinAddr: 0x100018084, symSize: 0x1C }
  - { offsetInCU: 0x1EA63, offset: 0x5538E, size: 0x8, addend: 0x0, symName: __ZNSt3__128__exception_guard_exceptionsINS_29_AllocatorDestroyRangeReverseINS_9allocatorI5OrderEENS_16reverse_iteratorIPS3_EEEEED1B8ue170006Ev, symObjAddr: 0xE8AC, symBinAddr: 0x1000180A0, symSize: 0x2C }
  - { offsetInCU: 0x1EA8D, offset: 0x553B8, size: 0x8, addend: 0x0, symName: __ZNSt3__128__exception_guard_exceptionsINS_29_AllocatorDestroyRangeReverseINS_9allocatorI5OrderEENS_16reverse_iteratorIPS3_EEEEEC1B8ue170006ES8_, symObjAddr: 0xE8D8, symBinAddr: 0x1000180CC, symSize: 0x34 }
  - { offsetInCU: 0x1EAC6, offset: 0x553F1, size: 0x8, addend: 0x0, symName: __ZNSt3__128__exception_guard_exceptionsINS_29_AllocatorDestroyRangeReverseINS_9allocatorI5OrderEENS_16reverse_iteratorIPS3_EEEEEC2B8ue170006ES8_, symObjAddr: 0xE90C, symBinAddr: 0x100018100, symSize: 0x30 }
  - { offsetInCU: 0x1EAFF, offset: 0x5542A, size: 0x8, addend: 0x0, symName: __ZNSt3__129_AllocatorDestroyRangeReverseINS_9allocatorI5OrderEENS_16reverse_iteratorIPS2_EEEC2B8ue170006ERS3_RS6_S9_, symObjAddr: 0xE93C, symBinAddr: 0x100018130, symSize: 0x38 }
  - { offsetInCU: 0x1EB56, offset: 0x55481, size: 0x8, addend: 0x0, symName: __ZNSt3__19allocatorI5OrderE9constructB8ue170006IS1_JS1_EEEvPT_DpOT0_, symObjAddr: 0xE974, symBinAddr: 0x100018168, symSize: 0x30 }
  - { offsetInCU: 0x1EBAC, offset: 0x554D7, size: 0x8, addend: 0x0, symName: __ZN5OrderC1EOS_, symObjAddr: 0xE9A4, symBinAddr: 0x100018198, symSize: 0x34 }
  - { offsetInCU: 0x1EBE1, offset: 0x5550C, size: 0x8, addend: 0x0, symName: __ZN5OrderC2EOS_, symObjAddr: 0xE9D8, symBinAddr: 0x1000181CC, symSize: 0x70 }
  - { offsetInCU: 0x1EC1B, offset: 0x55546, size: 0x8, addend: 0x0, symName: __ZNSt3__119__to_address_helperINS_16reverse_iteratorIP5OrderEEvE6__callB8ue170006ERKS4_, symObjAddr: 0xEA48, symBinAddr: 0x10001823C, symSize: 0x38 }
  - { offsetInCU: 0x1EC3E, offset: 0x55569, size: 0x8, addend: 0x0, symName: __ZNKSt3__116reverse_iteratorIP5OrderEptB8ue170006Ev, symObjAddr: 0xEA80, symBinAddr: 0x100018274, symSize: 0x24 }
  - { offsetInCU: 0x1EC64, offset: 0x5558F, size: 0x8, addend: 0x0, symName: __ZNSt3__128__exception_guard_exceptionsINS_29_AllocatorDestroyRangeReverseINS_9allocatorI5OrderEENS_16reverse_iteratorIPS3_EEEEED2B8ue170006Ev, symObjAddr: 0xEAA4, symBinAddr: 0x100018298, symSize: 0x50 }
  - { offsetInCU: 0x1EC8E, offset: 0x555B9, size: 0x8, addend: 0x0, symName: __ZNKSt3__129_AllocatorDestroyRangeReverseINS_9allocatorI5OrderEENS_16reverse_iteratorIPS2_EEEclB8ue170006Ev, symObjAddr: 0xEAF4, symBinAddr: 0x1000182E8, symSize: 0xB4 }
  - { offsetInCU: 0x1ECB5, offset: 0x555E0, size: 0x8, addend: 0x0, symName: __ZNSt3__116reverse_iteratorINS0_IP5OrderEEEC1B8ue170006ES3_, symObjAddr: 0xEC18, symBinAddr: 0x10001840C, symSize: 0x3C }
  - { offsetInCU: 0x1ECED, offset: 0x55618, size: 0x8, addend: 0x0, symName: __ZNSt3__116reverse_iteratorINS0_IP5OrderEEEppB8ue170006Ev, symObjAddr: 0xECD8, symBinAddr: 0x1000184CC, symSize: 0x30 }
  - { offsetInCU: 0x1ED13, offset: 0x5563E, size: 0x8, addend: 0x0, symName: __ZNKSt3__116reverse_iteratorINS0_IP5OrderEEE4baseB8ue170006Ev, symObjAddr: 0xED08, symBinAddr: 0x1000184FC, symSize: 0x24 }
  - { offsetInCU: 0x1ED3E, offset: 0x55669, size: 0x8, addend: 0x0, symName: __ZNSt3__119__to_address_helperINS_16reverse_iteratorINS1_IP5OrderEEEEvE6__callB8ue170006ERKS5_, symObjAddr: 0xED2C, symBinAddr: 0x100018520, symSize: 0x38 }
  - { offsetInCU: 0x1ED61, offset: 0x5568C, size: 0x8, addend: 0x0, symName: __ZNKSt3__116reverse_iteratorINS0_IP5OrderEEEptB8ue170006Ev, symObjAddr: 0xED64, symBinAddr: 0x100018558, symSize: 0x24 }
  - { offsetInCU: 0x1ED87, offset: 0x556B2, size: 0x8, addend: 0x0, symName: __ZNKSt3__116reverse_iteratorINS0_IP5OrderEEEdeB8ue170006Ev, symObjAddr: 0xED88, symBinAddr: 0x10001857C, symSize: 0x34 }
  - { offsetInCU: 0x1EDBC, offset: 0x556E7, size: 0x8, addend: 0x0, symName: __ZNSt3__116reverse_iteratorIP5OrderEmmB8ue170006Ev, symObjAddr: 0xEDBC, symBinAddr: 0x1000185B0, symSize: 0x20 }
  - { offsetInCU: 0x1EDE2, offset: 0x5570D, size: 0x8, addend: 0x0, symName: __ZNSt3__116reverse_iteratorINS0_IP5OrderEEEC2B8ue170006ES3_, symObjAddr: 0xEDDC, symBinAddr: 0x1000185D0, symSize: 0x2C }
  - { offsetInCU: 0x1EE1A, offset: 0x55745, size: 0x8, addend: 0x0, symName: __ZNSt3__116reverse_iteratorIP5OrderEC2B8ue170006ES2_, symObjAddr: 0xEE08, symBinAddr: 0x1000185FC, symSize: 0x28 }
  - { offsetInCU: 0x1EE52, offset: 0x5577D, size: 0x8, addend: 0x0, symName: __ZNSt3__114__split_bufferI5OrderRNS_9allocatorIS1_EEED2Ev, symObjAddr: 0xEE30, symBinAddr: 0x100018624, symSize: 0x8C }
  - { offsetInCU: 0x1EE7E, offset: 0x557A9, size: 0x8, addend: 0x0, symName: __ZNSt3__114__split_bufferI5OrderRNS_9allocatorIS1_EEE5clearB8ue170006Ev, symObjAddr: 0xEEBC, symBinAddr: 0x1000186B0, symSize: 0x28 }
  - { offsetInCU: 0x1EEA4, offset: 0x557CF, size: 0x8, addend: 0x0, symName: __ZNKSt3__114__split_bufferI5OrderRNS_9allocatorIS1_EEE8capacityB8ue170006Ev, symObjAddr: 0xEEE4, symBinAddr: 0x1000186D8, symSize: 0x40 }
  - { offsetInCU: 0x1EECA, offset: 0x557F5, size: 0x8, addend: 0x0, symName: __ZNSt3__114__split_bufferI5OrderRNS_9allocatorIS1_EEE17__destruct_at_endB8ue170006EPS1_, symObjAddr: 0xEF24, symBinAddr: 0x100018718, symSize: 0x2C }
  - { offsetInCU: 0x1EEFE, offset: 0x55829, size: 0x8, addend: 0x0, symName: __ZNSt3__114__split_bufferI5OrderRNS_9allocatorIS1_EEE17__destruct_at_endB8ue170006EPS1_NS_17integral_constantIbLb0EEE, symObjAddr: 0xEF50, symBinAddr: 0x100018744, symSize: 0x80 }
  - { offsetInCU: 0x1EF3F, offset: 0x5586A, size: 0x8, addend: 0x0, symName: __ZNKSt3__114__split_bufferI5OrderRNS_9allocatorIS1_EEE9__end_capB8ue170006Ev, symObjAddr: 0xEFD0, symBinAddr: 0x1000187C4, symSize: 0x28 }
  - { offsetInCU: 0x1EF65, offset: 0x55890, size: 0x8, addend: 0x0, symName: __ZNKSt3__117__compressed_pairIP5OrderRNS_9allocatorIS1_EEE5firstB8ue170006Ev, symObjAddr: 0xEFF8, symBinAddr: 0x1000187EC, symSize: 0x24 }
  - { offsetInCU: 0x1EF8B, offset: 0x558B6, size: 0x8, addend: 0x0, symName: __ZNKSt3__111__wrap_iterIP5OrderE4baseB8ue170006Ev, symObjAddr: 0xF228, symBinAddr: 0x100018A1C, symSize: 0x18 }
  - { offsetInCU: 0x1EFB1, offset: 0x558DC, size: 0x8, addend: 0x0, symName: __ZNSt3__18_IterOpsINS_17_ClassicAlgPolicyEE11__iter_moveB8ue170006IRNS_11__wrap_iterIP5OrderEEEENS_9enable_ifIXsr12is_referenceIDTdeclsr3stdE7declvalIRT_EEEEE5valueEDTclsr3stdE4movedeclsr3stdE7declvalISB_EEEEE4typeEOSA_, symObjAddr: 0xF240, symBinAddr: 0x100018A34, symSize: 0x28 }
  - { offsetInCU: 0x1EFDD, offset: 0x55908, size: 0x8, addend: 0x0, symName: __ZNSt3__111__wrap_iterIP5OrderEmmB8ue170006Ev, symObjAddr: 0xF3B0, symBinAddr: 0x100018BA4, symSize: 0x20 }
  - { offsetInCU: 0x1F003, offset: 0x5592E, size: 0x8, addend: 0x0, symName: __ZNKSt3__111__wrap_iterIP5OrderEdeB8ue170006Ev, symObjAddr: 0xF418, symBinAddr: 0x100018C0C, symSize: 0x18 }
  - { offsetInCU: 0x1F029, offset: 0x55954, size: 0x8, addend: 0x0, symName: __ZN5OrderaSEOS_, symObjAddr: 0xF430, symBinAddr: 0x100018C24, symSize: 0x70 }
  - { offsetInCU: 0x1F05A, offset: 0x55985, size: 0x8, addend: 0x0, symName: __ZNSt3__111__wrap_iterIP5OrderEppB8ue170006Ev, symObjAddr: 0xF4A0, symBinAddr: 0x100018C94, symSize: 0x20 }
  - { offsetInCU: 0x1F080, offset: 0x559AB, size: 0x8, addend: 0x0, symName: __ZNSt3__18_IterOpsINS_17_ClassicAlgPolicyEE25__validate_iter_referenceB8ue170006IRNS_11__wrap_iterIP5OrderEEEEvv, symObjAddr: 0xF650, symBinAddr: 0x100018E44, symSize: 0x4 }
  - { offsetInCU: 0x1F09E, offset: 0x559C9, size: 0x8, addend: 0x0, symName: __ZNSt3__111__wrap_iterIP5OrderEpLB8ue170006El, symObjAddr: 0xF654, symBinAddr: 0x100018E48, symSize: 0x30 }
  - { offsetInCU: 0x1F0D2, offset: 0x559FD, size: 0x8, addend: 0x0, symName: __ZN18BuyOrderComparatorclERK5OrderS2_, symObjAddr: 0xF684, symBinAddr: 0x100018E78, symSize: 0x90 }
  - { offsetInCU: 0x1F114, offset: 0x55A3F, size: 0x8, addend: 0x0, symName: __ZNKSt3__111__wrap_iterIP5OrderEplB8ue170006El, symObjAddr: 0xF714, symBinAddr: 0x100018F08, symSize: 0x3C }
  - { offsetInCU: 0x1F157, offset: 0x55A82, size: 0x8, addend: 0x0, symName: __ZNSt3__112basic_stringIcNS_11char_traitsIcEENS_9allocatorIcEEEaSB8ue170006EOS5_, symObjAddr: 0xF750, symBinAddr: 0x100018F44, symSize: 0x34 }
  - { offsetInCU: 0x1F18C, offset: 0x55AB7, size: 0x8, addend: 0x0, symName: __ZNSt3__112basic_stringIcNS_11char_traitsIcEENS_9allocatorIcEEE13__move_assignB8ue170006ERS5_NS_17integral_constantIbLb1EEE, symObjAddr: 0xF784, symBinAddr: 0x100018F78, symSize: 0xC8 }
  - { offsetInCU: 0x1F1CF, offset: 0x55AFA, size: 0x8, addend: 0x0, symName: __ZNSt3__116allocator_traitsINS_9allocatorIcEEE10deallocateB8ue170006ERS2_Pcm, symObjAddr: 0xF84C, symBinAddr: 0x100019040, symSize: 0x34 }
  - { offsetInCU: 0x1F211, offset: 0x55B3C, size: 0x8, addend: 0x0, symName: __ZNSt3__112basic_stringIcNS_11char_traitsIcEENS_9allocatorIcEEE7__allocB8ue170006Ev, symObjAddr: 0xF880, symBinAddr: 0x100019074, symSize: 0x24 }
  - { offsetInCU: 0x1F237, offset: 0x55B62, size: 0x8, addend: 0x0, symName: __ZNKSt3__112basic_stringIcNS_11char_traitsIcEENS_9allocatorIcEEE14__get_long_capB8ue170006Ev, symObjAddr: 0xF8CC, symBinAddr: 0x100019098, symSize: 0x30 }
  - { offsetInCU: 0x1F25D, offset: 0x55B88, size: 0x8, addend: 0x0, symName: __ZNSt3__112basic_stringIcNS_11char_traitsIcEENS_9allocatorIcEEE19__move_assign_allocB8ue170006ERS5_, symObjAddr: 0xF8FC, symBinAddr: 0x1000190C8, symSize: 0x2C }
  - { offsetInCU: 0x1F292, offset: 0x55BBD, size: 0x8, addend: 0x0, symName: __ZNSt3__19allocatorIcE10deallocateB8ue170006EPcm, symObjAddr: 0xF9EC, symBinAddr: 0x1000190F4, symSize: 0x40 }
  - { offsetInCU: 0x1F2D4, offset: 0x55BFF, size: 0x8, addend: 0x0, symName: __ZNSt3__117__compressed_pairINS_12basic_stringIcNS_11char_traitsIcEENS_9allocatorIcEEE5__repES5_E6secondB8ue170006Ev, symObjAddr: 0xFA2C, symBinAddr: 0x100019134, symSize: 0x24 }
  - { offsetInCU: 0x1F2FA, offset: 0x55C25, size: 0x8, addend: 0x0, symName: __ZNSt3__122__compressed_pair_elemINS_9allocatorIcEELi1ELb1EE5__getB8ue170006Ev, symObjAddr: 0xFA50, symBinAddr: 0x100019158, symSize: 0x14 }
  - { offsetInCU: 0x1F320, offset: 0x55C4B, size: 0x8, addend: 0x0, symName: __ZNSt3__112basic_stringIcNS_11char_traitsIcEENS_9allocatorIcEEE19__move_assign_allocB8ue170006ERS5_NS_17integral_constantIbLb1EEE, symObjAddr: 0xFA64, symBinAddr: 0x10001916C, symSize: 0x38 }
  - { offsetInCU: 0x1F361, offset: 0x55C8C, size: 0x8, addend: 0x0, symName: __ZN19SellOrderComparatorclERK5OrderS2_, symObjAddr: 0xFF4C, symBinAddr: 0x100019640, symSize: 0x90 }
  - { offsetInCU: 0x1F3A3, offset: 0x55CCE, size: 0x8, addend: 0x0, symName: __ZNSt3__16vectorI5OrderNS_9allocatorIS1_EEE11__make_iterB8ue170006EPS1_, symObjAddr: 0xFFDC, symBinAddr: 0x1000196D0, symSize: 0x30 }
  - { offsetInCU: 0x1F3D8, offset: 0x55D03, size: 0x8, addend: 0x0, symName: __ZNSt3__111__wrap_iterIP5OrderEC1B8ue170006ES2_, symObjAddr: 0x1000C, symBinAddr: 0x100019700, symSize: 0x34 }
  - { offsetInCU: 0x1F410, offset: 0x55D3B, size: 0x8, addend: 0x0, symName: __ZNSt3__111__wrap_iterIP5OrderEC2B8ue170006ES2_, symObjAddr: 0x10040, symBinAddr: 0x100019734, symSize: 0x20 }
  - { offsetInCU: 0x1F448, offset: 0x55D73, size: 0x8, addend: 0x0, symName: __ZNSt3__18_IterOpsINS_17_ClassicAlgPolicyEE9iter_swapB8ue170006IRNS_11__wrap_iterIP5OrderEES8_EEvOT_OT0_, symObjAddr: 0x10194, symBinAddr: 0x100019888, symSize: 0x44 }
  - { offsetInCU: 0x1F48B, offset: 0x55DB6, size: 0x8, addend: 0x0, symName: __ZNSt3__16vectorI5OrderNS_9allocatorIS1_EEEC2ERKS4_, symObjAddr: 0x10278, symBinAddr: 0x10001996C, symSize: 0x94 }
  - { offsetInCU: 0x1F4C6, offset: 0x55DF1, size: 0x8, addend: 0x0, symName: __ZNSt3__116allocator_traitsINS_9allocatorI5OrderEEE37select_on_container_copy_constructionB8ue170006IS3_vvEES3_RKS3_, symObjAddr: 0x1030C, symBinAddr: 0x100019A00, symSize: 0x10 }
  - { offsetInCU: 0x1F4FA, offset: 0x55E25, size: 0x8, addend: 0x0, symName: __ZNSt3__117__compressed_pairIP5OrderNS_9allocatorIS1_EEEC1B8ue170006IDnS4_EEOT_OT0_, symObjAddr: 0x1031C, symBinAddr: 0x100019A10, symSize: 0x3C }
  - { offsetInCU: 0x1F552, offset: 0x55E7D, size: 0x8, addend: 0x0, symName: __ZNSt3__16vectorI5OrderNS_9allocatorIS1_EEE16__init_with_sizeB8ue170006IPS1_S6_EEvT_T0_m, symObjAddr: 0x10358, symBinAddr: 0x100019A4C, symSize: 0xB8 }
  - { offsetInCU: 0x1F5C6, offset: 0x55EF1, size: 0x8, addend: 0x0, symName: __ZNSt3__117__compressed_pairIP5OrderNS_9allocatorIS1_EEEC2B8ue170006IDnS4_EEOT_OT0_, symObjAddr: 0x10410, symBinAddr: 0x100019B04, symSize: 0x44 }
  - { offsetInCU: 0x1F61E, offset: 0x55F49, size: 0x8, addend: 0x0, symName: __ZNSt3__122__compressed_pair_elemINS_9allocatorI5OrderEELi1ELb1EEC2B8ue170006IS3_vEEOT_, symObjAddr: 0x10454, symBinAddr: 0x100019B48, symSize: 0x18 }
  - { offsetInCU: 0x1F660, offset: 0x55F8B, size: 0x8, addend: 0x0, symName: __ZNSt3__16vectorI5OrderNS_9allocatorIS1_EEE11__vallocateB8ue170006Em, symObjAddr: 0x104AC, symBinAddr: 0x100019BA0, symSize: 0xB4 }
  - { offsetInCU: 0x1F6A4, offset: 0x55FCF, size: 0x8, addend: 0x0, symName: __ZNSt3__16vectorI5OrderNS_9allocatorIS1_EEE18__construct_at_endIPS1_S6_EEvT_T0_m, symObjAddr: 0x10560, symBinAddr: 0x100019C54, symSize: 0x8C }
  - { offsetInCU: 0x1F71A, offset: 0x56045, size: 0x8, addend: 0x0, symName: __ZNSt3__128__exception_guard_exceptionsINS_6vectorI5OrderNS_9allocatorIS2_EEE16__destroy_vectorEE10__completeB8ue170006Ev, symObjAddr: 0x105EC, symBinAddr: 0x100019CE0, symSize: 0x1C }
  - { offsetInCU: 0x1F740, offset: 0x5606B, size: 0x8, addend: 0x0, symName: __ZNSt3__128__exception_guard_exceptionsINS_6vectorI5OrderNS_9allocatorIS2_EEE16__destroy_vectorEED1B8ue170006Ev, symObjAddr: 0x10608, symBinAddr: 0x100019CFC, symSize: 0x2C }
  - { offsetInCU: 0x1F76A, offset: 0x56095, size: 0x8, addend: 0x0, symName: __ZNSt3__128__exception_guard_exceptionsINS_6vectorI5OrderNS_9allocatorIS2_EEE16__destroy_vectorEEC1B8ue170006ES6_, symObjAddr: 0x10634, symBinAddr: 0x100019D28, symSize: 0x34 }
  - { offsetInCU: 0x1F7A2, offset: 0x560CD, size: 0x8, addend: 0x0, symName: __ZNSt3__128__exception_guard_exceptionsINS_6vectorI5OrderNS_9allocatorIS2_EEE16__destroy_vectorEEC2B8ue170006ES6_, symObjAddr: 0x10668, symBinAddr: 0x100019D5C, symSize: 0x24 }
  - { offsetInCU: 0x1F7F8, offset: 0x56123, size: 0x8, addend: 0x0, symName: __ZNSt3__14pairIP5OrderS2_EC1B8ue170006IS2_S2_LPv0EEEOT_OT0_, symObjAddr: 0x108F8, symBinAddr: 0x100019FEC, symSize: 0x3C }
  - { offsetInCU: 0x1F856, offset: 0x56181, size: 0x8, addend: 0x0, symName: __ZNSt3__14pairIP5OrderS2_EC2B8ue170006IS2_S2_LPv0EEEOT_OT0_, symObjAddr: 0x10934, symBinAddr: 0x10001A028, symSize: 0x34 }
  - { offsetInCU: 0x1F8B4, offset: 0x561DF, size: 0x8, addend: 0x0, symName: __ZNSt3__129_AllocatorDestroyRangeReverseINS_9allocatorI5OrderEEPS2_EC1B8ue170006ERS3_RS4_S7_, symObjAddr: 0x109B4, symBinAddr: 0x10001A0A8, symSize: 0x44 }
  - { offsetInCU: 0x1F90B, offset: 0x56236, size: 0x8, addend: 0x0, symName: __ZNSt3__116allocator_traitsINS_9allocatorI5OrderEEE9constructB8ue170006IS2_JRS2_EvEEvRS3_PT_DpOT0_, symObjAddr: 0x109F8, symBinAddr: 0x10001A0EC, symSize: 0x34 }
  - { offsetInCU: 0x1F962, offset: 0x5628D, size: 0x8, addend: 0x0, symName: __ZNSt3__128__exception_guard_exceptionsINS_29_AllocatorDestroyRangeReverseINS_9allocatorI5OrderEEPS3_EEE10__completeB8ue170006Ev, symObjAddr: 0x10A2C, symBinAddr: 0x10001A120, symSize: 0x1C }
  - { offsetInCU: 0x1F988, offset: 0x562B3, size: 0x8, addend: 0x0, symName: __ZNSt3__128__exception_guard_exceptionsINS_29_AllocatorDestroyRangeReverseINS_9allocatorI5OrderEEPS3_EEED1B8ue170006Ev, symObjAddr: 0x10A48, symBinAddr: 0x10001A13C, symSize: 0x2C }
  - { offsetInCU: 0x1F9B2, offset: 0x562DD, size: 0x8, addend: 0x0, symName: __ZNSt3__128__exception_guard_exceptionsINS_29_AllocatorDestroyRangeReverseINS_9allocatorI5OrderEEPS3_EEEC1B8ue170006ES6_, symObjAddr: 0x10A74, symBinAddr: 0x10001A168, symSize: 0x34 }
  - { offsetInCU: 0x1F9EB, offset: 0x56316, size: 0x8, addend: 0x0, symName: __ZNSt3__128__exception_guard_exceptionsINS_29_AllocatorDestroyRangeReverseINS_9allocatorI5OrderEEPS3_EEEC2B8ue170006ES6_, symObjAddr: 0x10AA8, symBinAddr: 0x10001A19C, symSize: 0x30 }
  - { offsetInCU: 0x1FA24, offset: 0x5634F, size: 0x8, addend: 0x0, symName: __ZNSt3__129_AllocatorDestroyRangeReverseINS_9allocatorI5OrderEEPS2_EC2B8ue170006ERS3_RS4_S7_, symObjAddr: 0x10AD8, symBinAddr: 0x10001A1CC, symSize: 0x38 }
  - { offsetInCU: 0x1FA7B, offset: 0x563A6, size: 0x8, addend: 0x0, symName: __ZNSt3__19allocatorI5OrderE9constructB8ue170006IS1_JRS1_EEEvPT_DpOT0_, symObjAddr: 0x10B10, symBinAddr: 0x10001A204, symSize: 0x30 }
  - { offsetInCU: 0x1FAD1, offset: 0x563FC, size: 0x8, addend: 0x0, symName: __ZNSt3__128__exception_guard_exceptionsINS_29_AllocatorDestroyRangeReverseINS_9allocatorI5OrderEEPS3_EEED2B8ue170006Ev, symObjAddr: 0x10B40, symBinAddr: 0x10001A234, symSize: 0x50 }
  - { offsetInCU: 0x1FAFB, offset: 0x56426, size: 0x8, addend: 0x0, symName: __ZNKSt3__129_AllocatorDestroyRangeReverseINS_9allocatorI5OrderEEPS2_EclB8ue170006Ev, symObjAddr: 0x10B90, symBinAddr: 0x10001A284, symSize: 0x68 }
  - { offsetInCU: 0x1FB21, offset: 0x5644C, size: 0x8, addend: 0x0, symName: __ZNSt3__118__unwrap_iter_implIP5OrderLb1EE8__unwrapB8ue170006ES2_, symObjAddr: 0x10C68, symBinAddr: 0x10001A35C, symSize: 0x24 }
  - { offsetInCU: 0x1FB44, offset: 0x5646F, size: 0x8, addend: 0x0, symName: __ZNSt3__118__unwrap_iter_implIP5OrderLb1EE8__rewrapB8ue170006ES2_S2_, symObjAddr: 0x10C8C, symBinAddr: 0x10001A380, symSize: 0x58 }
  - { offsetInCU: 0x1FB75, offset: 0x564A0, size: 0x8, addend: 0x0, symName: __ZNSt3__128__exception_guard_exceptionsINS_6vectorI5OrderNS_9allocatorIS2_EEE16__destroy_vectorEED2B8ue170006Ev, symObjAddr: 0x10CE4, symBinAddr: 0x10001A3D8, symSize: 0x48 }
  - { offsetInCU: 0x1FB9F, offset: 0x564CA, size: 0x8, addend: 0x0, symName: __ZNSt3__16vectorI5OrderNS_9allocatorIS1_EEE17__destruct_at_endB8ue170006EPS1_, symObjAddr: 0x11870, symBinAddr: 0x10001A558, symSize: 0x4C }
  - { offsetInCU: 0x1FBE3, offset: 0x5650E, size: 0x8, addend: 0x0, symName: __ZNSt3__112__hash_tableINS_17__hash_value_typeINS_12basic_stringIcNS_11char_traitsIcEENS_9allocatorIcEEEEdEENS_22__unordered_map_hasherIS7_S8_NS_4hashIS7_EENS_8equal_toIS7_EELb1EEENS_21__unordered_map_equalIS7_S8_SD_SB_Lb1EEENS5_IS8_EEE5beginEv, symObjAddr: 0x12004, symBinAddr: 0x10001A5A4, symSize: 0x38 }
  - { offsetInCU: 0x1FC0B, offset: 0x56536, size: 0x8, addend: 0x0, symName: __ZNSt3__119__hash_map_iteratorINS_15__hash_iteratorIPNS_11__hash_nodeINS_17__hash_value_typeINS_12basic_stringIcNS_11char_traitsIcEENS_9allocatorIcEEEEdEEPvEEEEEC1B8ue170006ESE_, symObjAddr: 0x1203C, symBinAddr: 0x10001A5DC, symSize: 0x34 }
  - { offsetInCU: 0x1FC44, offset: 0x5656F, size: 0x8, addend: 0x0, symName: __ZNSt3__119__hash_map_iteratorINS_15__hash_iteratorIPNS_11__hash_nodeINS_17__hash_value_typeINS_12basic_stringIcNS_11char_traitsIcEENS_9allocatorIcEEEEdEEPvEEEEEC2B8ue170006ESE_, symObjAddr: 0x12070, symBinAddr: 0x10001A610, symSize: 0x20 }
  - { offsetInCU: 0x1FC7D, offset: 0x565A8, size: 0x8, addend: 0x0, symName: __ZNSt3__112__hash_tableINS_17__hash_value_typeINS_12basic_stringIcNS_11char_traitsIcEENS_9allocatorIcEEEEdEENS_22__unordered_map_hasherIS7_S8_NS_4hashIS7_EENS_8equal_toIS7_EELb1EEENS_21__unordered_map_equalIS7_S8_SD_SB_Lb1EEENS5_IS8_EEE3endEv, symObjAddr: 0x12090, symBinAddr: 0x10001A630, symSize: 0x2C }
  - { offsetInCU: 0x1FCA5, offset: 0x565D0, size: 0x8, addend: 0x0, symName: __ZNSt3__115__hash_iteratorIPNS_11__hash_nodeINS_17__hash_value_typeINS_12basic_stringIcNS_11char_traitsIcEENS_9allocatorIcEEEEdEEPvEEEppB8ue170006Ev, symObjAddr: 0x12120, symBinAddr: 0x10001A6C0, symSize: 0x20 }
  - { offsetInCU: 0xC24F, offset: 0x62B14, size: 0x8, addend: 0x0, symName: __ZN12OrderManager17updateTraderValueEP6TraderS1_diNSt3__112basic_stringIcNS2_11char_traitsIcEENS2_9allocatorIcEEEE, symObjAddr: 0x0, symBinAddr: 0x10001A6E0, symSize: 0x1C8 }
  - { offsetInCU: 0xC2CE, offset: 0x62B93, size: 0x8, addend: 0x0, symName: __ZN12OrderManager17CreateAndAddOrderENSt3__112basic_stringIcNS0_11char_traitsIcEENS0_9allocatorIcEEEEiS6_S6_ddP13StockExchange, symObjAddr: 0x24C, symBinAddr: 0x10001A8A8, symSize: 0x18C }
  - { offsetInCU: 0xB06D, offset: 0x6DCAE, size: 0x8, addend: 0x0, symName: __ZNSt3__13getB8ue170006ILm0EddEEONS_13tuple_elementIXT_ENS_4pairIT0_T1_EEE4typeEOS5_, symObjAddr: 0x290, symBinAddr: 0x10001ACC4, symSize: 0x24 }
  - { offsetInCU: 0xB0B7, offset: 0x6DCF8, size: 0x8, addend: 0x0, symName: __ZNSt3__13getB8ue170006ILm1EddEEONS_13tuple_elementIXT_ENS_4pairIT0_T1_EEE4typeEOS5_, symObjAddr: 0x2B4, symBinAddr: 0x10001ACE8, symSize: 0x24 }
  - { offsetInCU: 0xB17B, offset: 0x6DDBC, size: 0x8, addend: 0x0, symName: __ZNSt3__112__to_addressB8ue170006IdEEPT_S2_, symObjAddr: 0x8A4, symBinAddr: 0x10001B2CC, symSize: 0x14 }
  - { offsetInCU: 0xB1B0, offset: 0x6DDF1, size: 0x8, addend: 0x0, symName: __ZNSt3__119__allocate_at_leastB8ue170006INS_9allocatorIdEEEENS_19__allocation_resultINS_16allocator_traitsIT_E7pointerEEERS5_m, symObjAddr: 0x14B8, symBinAddr: 0x10001BB84, symSize: 0x40 }
  - { offsetInCU: 0xB1F3, offset: 0x6DE34, size: 0x8, addend: 0x0, symName: __ZNSt3__142__uninitialized_allocator_move_if_noexceptB8ue170006INS_9allocatorIdEENS_16reverse_iteratorIPdEES5_dvEET1_RT_T0_S9_S6_, symObjAddr: 0x1750, symBinAddr: 0x10001BD38, symSize: 0x78 }
  - { offsetInCU: 0xB271, offset: 0x6DEB2, size: 0x8, addend: 0x0, symName: __ZNSt3__14swapB8ue170006IPdEENS_9enable_ifIXaasr21is_move_constructibleIT_EE5valuesr18is_move_assignableIS3_EE5valueEvE4typeERS3_S6_, symObjAddr: 0x1814, symBinAddr: 0x10001BDFC, symSize: 0x3C }
  - { offsetInCU: 0xB2C3, offset: 0x6DF04, size: 0x8, addend: 0x0, symName: __ZNSt3__14moveB8ue170006INS_16reverse_iteratorIPdEES3_EET0_T_S5_S4_, symObjAddr: 0x18FC, symBinAddr: 0x10001BEE4, symSize: 0x78 }
  - { offsetInCU: 0xB31D, offset: 0x6DF5E, size: 0x8, addend: 0x0, symName: __ZNSt3__16__moveB8ue170006INS_17_ClassicAlgPolicyENS_16reverse_iteratorIPdEES4_S4_EENS_4pairIT0_T2_EES6_T1_S7_, symObjAddr: 0x1974, symBinAddr: 0x10001BF5C, symSize: 0x64 }
  - { offsetInCU: 0xB389, offset: 0x6DFCA, size: 0x8, addend: 0x0, symName: __ZNSt3__123__dispatch_copy_or_moveB8ue170006INS_17_ClassicAlgPolicyENS_11__move_loopIS1_EENS_14__move_trivialENS_16reverse_iteratorIPdEES7_S7_EENS_4pairIT2_T4_EES9_T3_SA_, symObjAddr: 0x19D8, symBinAddr: 0x10001BFC0, symSize: 0x64 }
  - { offsetInCU: 0xB407, offset: 0x6E048, size: 0x8, addend: 0x0, symName: __ZNSt3__121__unwrap_and_dispatchB8ue170006INS_10__overloadINS_11__move_loopINS_17_ClassicAlgPolicyEEENS_14__move_trivialEEENS_16reverse_iteratorIPdEES9_S9_Li0EEENS_4pairIT0_T2_EESB_T1_SC_, symObjAddr: 0x1A3C, symBinAddr: 0x10001C024, symSize: 0x12C }
  - { offsetInCU: 0xB499, offset: 0x6E0DA, size: 0x8, addend: 0x0, symName: __ZNSt3__114__unwrap_rangeB8ue170006INS_16reverse_iteratorIPdEES3_EENS_4pairIT0_S5_EET_S7_, symObjAddr: 0x1B68, symBinAddr: 0x10001C150, symSize: 0x84 }
  - { offsetInCU: 0xB60B, offset: 0x6E24C, size: 0x8, addend: 0x0, symName: __ZNSt3__113__unwrap_iterB8ue170006INS_16reverse_iteratorIPdEENS_18__unwrap_iter_implIS3_Lb0EEELi0EEEDTclsrT0_8__unwrapclsr3stdE7declvalIT_EEEES7_, symObjAddr: 0x1C8C, symBinAddr: 0x10001C274, symSize: 0x44 }
  - { offsetInCU: 0xB64F, offset: 0x6E290, size: 0x8, addend: 0x0, symName: __ZNSt3__19make_pairB8ue170006INS_16reverse_iteratorIPdEES3_EENS_4pairINS_18__unwrap_ref_decayIT_E4typeENS5_IT0_E4typeEEEOS6_OS9_, symObjAddr: 0x1CD0, symBinAddr: 0x10001C2B8, symSize: 0x38 }
  - { offsetInCU: 0xB69E, offset: 0x6E2DF, size: 0x8, addend: 0x0, symName: __ZNSt3__114__rewrap_rangeB8ue170006INS_16reverse_iteratorIPdEES3_EET_S4_T0_, symObjAddr: 0x1D08, symBinAddr: 0x10001C2F0, symSize: 0x5C }
  - { offsetInCU: 0xB6EA, offset: 0x6E32B, size: 0x8, addend: 0x0, symName: __ZNSt3__113__rewrap_iterB8ue170006INS_16reverse_iteratorIPdEES3_NS_18__unwrap_iter_implIS3_Lb0EEEEET_S6_T0_, symObjAddr: 0x1D64, symBinAddr: 0x10001C34C, symSize: 0x74 }
  - { offsetInCU: 0xB73F, offset: 0x6E380, size: 0x8, addend: 0x0, symName: __ZNSt3__1neB8ue170006IPdS1_EEbRKNS_16reverse_iteratorIT_EERKNS2_IT0_EE, symObjAddr: 0x1DD8, symBinAddr: 0x10001C3C0, symSize: 0x48 }
  - { offsetInCU: 0xBB33, offset: 0x6E774, size: 0x8, addend: 0x0, symName: __ZNSt3__16vectorIdNS_9allocatorIdEEE26__swap_out_circular_bufferERNS_14__split_bufferIdRS2_EE, symObjAddr: 0xF24, symBinAddr: 0x10001B824, symSize: 0x110 }
  - { offsetInCU: 0xE43C, offset: 0x7107D, size: 0x8, addend: 0x0, symName: __ZN6Action9FindPriceENSt3__112basic_stringIcNS0_11char_traitsIcEENS0_9allocatorIcEEEEP13StockExchange, symObjAddr: 0x0, symBinAddr: 0x10001AA34, symSize: 0x290 }
  - { offsetInCU: 0xE516, offset: 0x71157, size: 0x8, addend: 0x0, symName: __ZNSt3__16vectorIdNS_9allocatorIdEEEC1B8ue170006Ev, symObjAddr: 0x2D8, symBinAddr: 0x10001AD0C, symSize: 0x2C }
  - { offsetInCU: 0xE540, offset: 0x71181, size: 0x8, addend: 0x0, symName: __ZNSt3__16vectorIdNS_9allocatorIdEEE9push_backB8ue170006ERKd, symObjAddr: 0x304, symBinAddr: 0x10001AD38, symSize: 0x6C }
  - { offsetInCU: 0xE577, offset: 0x711B8, size: 0x8, addend: 0x0, symName: __ZNSt3__16vectorIdNS_9allocatorIdEEEixB8ue170006Em, symObjAddr: 0x370, symBinAddr: 0x10001ADA4, symSize: 0x24 }
  - { offsetInCU: 0xE5AE, offset: 0x711EF, size: 0x8, addend: 0x0, symName: __ZNSt3__16vectorIdNS_9allocatorIdEEED1B8ue170006Ev, symObjAddr: 0x394, symBinAddr: 0x10001ADC8, symSize: 0x2C }
  - { offsetInCU: 0xE5DE, offset: 0x7121F, size: 0x8, addend: 0x0, symName: __ZNSt3__110__get_pairILm0EE3getB8ue170006IddEEOT_ONS_4pairIS3_T0_EE, symObjAddr: 0x3C0, symBinAddr: 0x10001ADF4, symSize: 0x14 }
  - { offsetInCU: 0xE614, offset: 0x71255, size: 0x8, addend: 0x0, symName: __ZNSt3__110__get_pairILm1EE3getB8ue170006IddEEOT0_ONS_4pairIT_S3_EE, symObjAddr: 0x3D4, symBinAddr: 0x10001AE08, symSize: 0x18 }
  - { offsetInCU: 0xE649, offset: 0x7128A, size: 0x8, addend: 0x0, symName: __ZNSt3__16vectorIdNS_9allocatorIdEEEC2B8ue170006Ev, symObjAddr: 0x3EC, symBinAddr: 0x10001AE20, symSize: 0x4C }
  - { offsetInCU: 0xE67D, offset: 0x712BE, size: 0x8, addend: 0x0, symName: __ZNSt3__117__compressed_pairIPdNS_9allocatorIdEEEC1B8ue170006IDnNS_18__default_init_tagEEEOT_OT0_, symObjAddr: 0x438, symBinAddr: 0x10001AE6C, symSize: 0x3C }
  - { offsetInCU: 0xE6D5, offset: 0x71316, size: 0x8, addend: 0x0, symName: __ZNSt3__117__compressed_pairIPdNS_9allocatorIdEEEC2B8ue170006IDnNS_18__default_init_tagEEEOT_OT0_, symObjAddr: 0x480, symBinAddr: 0x10001AEA8, symSize: 0x40 }
  - { offsetInCU: 0xE72E, offset: 0x7136F, size: 0x8, addend: 0x0, symName: __ZNSt3__122__compressed_pair_elemIPdLi0ELb0EEC2B8ue170006IDnvEEOT_, symObjAddr: 0x4C0, symBinAddr: 0x10001AEE8, symSize: 0x1C }
  - { offsetInCU: 0xE76F, offset: 0x713B0, size: 0x8, addend: 0x0, symName: __ZNSt3__122__compressed_pair_elemINS_9allocatorIdEELi1ELb1EEC2B8ue170006ENS_18__default_init_tagE, symObjAddr: 0x4DC, symBinAddr: 0x10001AF04, symSize: 0x2C }
  - { offsetInCU: 0xE7A4, offset: 0x713E5, size: 0x8, addend: 0x0, symName: __ZNSt3__19allocatorIdEC2B8ue170006Ev, symObjAddr: 0x508, symBinAddr: 0x10001AF30, symSize: 0x2C }
  - { offsetInCU: 0xE7CF, offset: 0x71410, size: 0x8, addend: 0x0, symName: __ZNSt3__116__non_trivial_ifILb1ENS_9allocatorIdEEEC2B8ue170006Ev, symObjAddr: 0x534, symBinAddr: 0x10001AF5C, symSize: 0x14 }
  - { offsetInCU: 0xE7F8, offset: 0x71439, size: 0x8, addend: 0x0, symName: __ZNSt3__16vectorIdNS_9allocatorIdEEED2B8ue170006Ev, symObjAddr: 0x548, symBinAddr: 0x10001AF70, symSize: 0x44 }
  - { offsetInCU: 0xE822, offset: 0x71463, size: 0x8, addend: 0x0, symName: __ZNSt3__16vectorIdNS_9allocatorIdEEE16__destroy_vectorC1B8ue170006ERS3_, symObjAddr: 0x58C, symBinAddr: 0x10001AFB4, symSize: 0x34 }
  - { offsetInCU: 0xE85C, offset: 0x7149D, size: 0x8, addend: 0x0, symName: __ZNSt3__16vectorIdNS_9allocatorIdEEE16__destroy_vectorclB8ue170006Ev, symObjAddr: 0x5C0, symBinAddr: 0x10001AFE8, symSize: 0x90 }
  - { offsetInCU: 0xE882, offset: 0x714C3, size: 0x8, addend: 0x0, symName: __ZNSt3__16vectorIdNS_9allocatorIdEEE16__destroy_vectorC2B8ue170006ERS3_, symObjAddr: 0x650, symBinAddr: 0x10001B078, symSize: 0x20 }
  - { offsetInCU: 0xE8BB, offset: 0x714FC, size: 0x8, addend: 0x0, symName: __ZNSt3__16vectorIdNS_9allocatorIdEEE7__clearB8ue170006Ev, symObjAddr: 0x670, symBinAddr: 0x10001B098, symSize: 0x28 }
  - { offsetInCU: 0xE8E1, offset: 0x71522, size: 0x8, addend: 0x0, symName: __ZNKSt3__16vectorIdNS_9allocatorIdEEE17__annotate_deleteB8ue170006Ev, symObjAddr: 0x698, symBinAddr: 0x10001B0C0, symSize: 0xB8 }
  - { offsetInCU: 0xE907, offset: 0x71548, size: 0x8, addend: 0x0, symName: __ZNSt3__116allocator_traitsINS_9allocatorIdEEE10deallocateB8ue170006ERS2_Pdm, symObjAddr: 0x750, symBinAddr: 0x10001B178, symSize: 0x34 }
  - { offsetInCU: 0xE949, offset: 0x7158A, size: 0x8, addend: 0x0, symName: __ZNSt3__16vectorIdNS_9allocatorIdEEE7__allocB8ue170006Ev, symObjAddr: 0x784, symBinAddr: 0x10001B1AC, symSize: 0x28 }
  - { offsetInCU: 0xE96F, offset: 0x715B0, size: 0x8, addend: 0x0, symName: __ZNKSt3__16vectorIdNS_9allocatorIdEEE8capacityB8ue170006Ev, symObjAddr: 0x7AC, symBinAddr: 0x10001B1D4, symSize: 0x40 }
  - { offsetInCU: 0xE995, offset: 0x715D6, size: 0x8, addend: 0x0, symName: __ZNSt3__16vectorIdNS_9allocatorIdEEE22__base_destruct_at_endB8ue170006EPd, symObjAddr: 0x7EC, symBinAddr: 0x10001B214, symSize: 0x8C }
  - { offsetInCU: 0xE9D9, offset: 0x7161A, size: 0x8, addend: 0x0, symName: __ZNSt3__116allocator_traitsINS_9allocatorIdEEE7destroyB8ue170006IdvEEvRS2_PT_, symObjAddr: 0x878, symBinAddr: 0x10001B2A0, symSize: 0x2C }
  - { offsetInCU: 0xEA16, offset: 0x71657, size: 0x8, addend: 0x0, symName: __ZNSt3__19allocatorIdE7destroyB8ue170006EPd, symObjAddr: 0x8B8, symBinAddr: 0x10001B2E0, symSize: 0x14 }
  - { offsetInCU: 0xEA4A, offset: 0x7168B, size: 0x8, addend: 0x0, symName: __ZNKSt3__16vectorIdNS_9allocatorIdEEE31__annotate_contiguous_containerB8ue170006EPKvS5_S5_S5_, symObjAddr: 0x8CC, symBinAddr: 0x10001B2F4, symSize: 0x20 }
  - { offsetInCU: 0xEAA0, offset: 0x716E1, size: 0x8, addend: 0x0, symName: __ZNKSt3__16vectorIdNS_9allocatorIdEEE4dataB8ue170006Ev, symObjAddr: 0x8EC, symBinAddr: 0x10001B314, symSize: 0x28 }
  - { offsetInCU: 0xEAC6, offset: 0x71707, size: 0x8, addend: 0x0, symName: __ZNKSt3__16vectorIdNS_9allocatorIdEEE4sizeB8ue170006Ev, symObjAddr: 0x914, symBinAddr: 0x10001B33C, symSize: 0x28 }
  - { offsetInCU: 0xEAEC, offset: 0x7172D, size: 0x8, addend: 0x0, symName: __ZNSt3__19allocatorIdE10deallocateB8ue170006EPdm, symObjAddr: 0x93C, symBinAddr: 0x10001B364, symSize: 0x40 }
  - { offsetInCU: 0xEB2E, offset: 0x7176F, size: 0x8, addend: 0x0, symName: __ZNSt3__117__compressed_pairIPdNS_9allocatorIdEEE6secondB8ue170006Ev, symObjAddr: 0xAA4, symBinAddr: 0x10001B3A4, symSize: 0x24 }
  - { offsetInCU: 0xEB54, offset: 0x71795, size: 0x8, addend: 0x0, symName: __ZNSt3__122__compressed_pair_elemINS_9allocatorIdEELi1ELb1EE5__getB8ue170006Ev, symObjAddr: 0xAC8, symBinAddr: 0x10001B3C8, symSize: 0x14 }
  - { offsetInCU: 0xEB7A, offset: 0x717BB, size: 0x8, addend: 0x0, symName: __ZNKSt3__16vectorIdNS_9allocatorIdEEE9__end_capB8ue170006Ev, symObjAddr: 0xADC, symBinAddr: 0x10001B3DC, symSize: 0x28 }
  - { offsetInCU: 0xEBA0, offset: 0x717E1, size: 0x8, addend: 0x0, symName: __ZNKSt3__117__compressed_pairIPdNS_9allocatorIdEEE5firstB8ue170006Ev, symObjAddr: 0xB04, symBinAddr: 0x10001B404, symSize: 0x24 }
  - { offsetInCU: 0xEBC6, offset: 0x71807, size: 0x8, addend: 0x0, symName: __ZNKSt3__122__compressed_pair_elemIPdLi0ELb0EE5__getB8ue170006Ev, symObjAddr: 0xB28, symBinAddr: 0x10001B428, symSize: 0x14 }
  - { offsetInCU: 0xEBEC, offset: 0x7182D, size: 0x8, addend: 0x0, symName: __ZNSt3__16vectorIdNS_9allocatorIdEEE9__end_capB8ue170006Ev, symObjAddr: 0xB3C, symBinAddr: 0x10001B43C, symSize: 0x28 }
  - { offsetInCU: 0xEC12, offset: 0x71853, size: 0x8, addend: 0x0, symName: __ZNSt3__16vectorIdNS_9allocatorIdEEE22__construct_one_at_endB8ue170006IJRKdEEEvDpOT_, symObjAddr: 0xB64, symBinAddr: 0x10001B464, symSize: 0x90 }
  - { offsetInCU: 0xEC60, offset: 0x718A1, size: 0x8, addend: 0x0, symName: __ZNSt3__16vectorIdNS_9allocatorIdEEE21__push_back_slow_pathIRKdEEvOT_, symObjAddr: 0xBF4, symBinAddr: 0x10001B4F4, symSize: 0xD8 }
  - { offsetInCU: 0xECBF, offset: 0x71900, size: 0x8, addend: 0x0, symName: __ZNSt3__117__compressed_pairIPdNS_9allocatorIdEEE5firstB8ue170006Ev, symObjAddr: 0xCCC, symBinAddr: 0x10001B5CC, symSize: 0x24 }
  - { offsetInCU: 0xECE5, offset: 0x71926, size: 0x8, addend: 0x0, symName: __ZNSt3__122__compressed_pair_elemIPdLi0ELb0EE5__getB8ue170006Ev, symObjAddr: 0xCF0, symBinAddr: 0x10001B5F0, symSize: 0x14 }
  - { offsetInCU: 0xED23, offset: 0x71964, size: 0x8, addend: 0x0, symName: __ZNSt3__16vectorIdNS_9allocatorIdEEE21_ConstructTransactionC1B8ue170006ERS3_m, symObjAddr: 0xD04, symBinAddr: 0x10001B604, symSize: 0x3C }
  - { offsetInCU: 0xED6C, offset: 0x719AD, size: 0x8, addend: 0x0, symName: __ZNSt3__116allocator_traitsINS_9allocatorIdEEE9constructB8ue170006IdJRKdEvEEvRS2_PT_DpOT0_, symObjAddr: 0xD40, symBinAddr: 0x10001B640, symSize: 0x34 }
  - { offsetInCU: 0xEDC2, offset: 0x71A03, size: 0x8, addend: 0x0, symName: __ZNSt3__16vectorIdNS_9allocatorIdEEE21_ConstructTransactionD1B8ue170006Ev, symObjAddr: 0xD74, symBinAddr: 0x10001B674, symSize: 0x2C }
  - { offsetInCU: 0xEDED, offset: 0x71A2E, size: 0x8, addend: 0x0, symName: __ZNSt3__16vectorIdNS_9allocatorIdEEE21_ConstructTransactionC2B8ue170006ERS3_m, symObjAddr: 0xDA0, symBinAddr: 0x10001B6A0, symSize: 0x44 }
  - { offsetInCU: 0xEE35, offset: 0x71A76, size: 0x8, addend: 0x0, symName: __ZNSt3__19allocatorIdE9constructB8ue170006IdJRKdEEEvPT_DpOT0_, symObjAddr: 0xDE4, symBinAddr: 0x10001B6E4, symSize: 0x28 }
  - { offsetInCU: 0xEE8B, offset: 0x71ACC, size: 0x8, addend: 0x0, symName: __ZNSt3__16vectorIdNS_9allocatorIdEEE21_ConstructTransactionD2B8ue170006Ev, symObjAddr: 0xE0C, symBinAddr: 0x10001B70C, symSize: 0x20 }
  - { offsetInCU: 0xEEB4, offset: 0x71AF5, size: 0x8, addend: 0x0, symName: __ZNKSt3__16vectorIdNS_9allocatorIdEEE11__recommendB8ue170006Em, symObjAddr: 0xE2C, symBinAddr: 0x10001B72C, symSize: 0xB4 }
  - { offsetInCU: 0xEF0A, offset: 0x71B4B, size: 0x8, addend: 0x0, symName: __ZNSt3__114__split_bufferIdRNS_9allocatorIdEEEC1EmmS3_, symObjAddr: 0xEE0, symBinAddr: 0x10001B7E0, symSize: 0x44 }
  - { offsetInCU: 0xEF60, offset: 0x71BA1, size: 0x8, addend: 0x0, symName: __ZNSt3__114__split_bufferIdRNS_9allocatorIdEEED1Ev, symObjAddr: 0x1034, symBinAddr: 0x10001B934, symSize: 0x2C }
  - { offsetInCU: 0xEF8B, offset: 0x71BCC, size: 0x8, addend: 0x0, symName: __ZNKSt3__16vectorIdNS_9allocatorIdEEE8max_sizeEv, symObjAddr: 0x1060, symBinAddr: 0x10001B960, symSize: 0x60 }
  - { offsetInCU: 0xEFB4, offset: 0x71BF5, size: 0x8, addend: 0x0, symName: __ZNKSt3__16vectorIdNS_9allocatorIdEEE20__throw_length_errorB8ue170006Ev, symObjAddr: 0x10C0, symBinAddr: 0x10001B9C0, symSize: 0x1C }
  - { offsetInCU: 0xEFE4, offset: 0x71C25, size: 0x8, addend: 0x0, symName: __ZNSt3__116allocator_traitsINS_9allocatorIdEEE8max_sizeB8ue170006IS2_vEEmRKS2_, symObjAddr: 0x1134, symBinAddr: 0x10001B9DC, symSize: 0x24 }
  - { offsetInCU: 0xF012, offset: 0x71C53, size: 0x8, addend: 0x0, symName: __ZNKSt3__16vectorIdNS_9allocatorIdEEE7__allocB8ue170006Ev, symObjAddr: 0x1158, symBinAddr: 0x10001BA00, symSize: 0x28 }
  - { offsetInCU: 0xF038, offset: 0x71C79, size: 0x8, addend: 0x0, symName: __ZNKSt3__19allocatorIdE8max_sizeB8ue170006Ev, symObjAddr: 0x121C, symBinAddr: 0x10001BA28, symSize: 0x14 }
  - { offsetInCU: 0xF05E, offset: 0x71C9F, size: 0x8, addend: 0x0, symName: __ZNKSt3__117__compressed_pairIPdNS_9allocatorIdEEE6secondB8ue170006Ev, symObjAddr: 0x1230, symBinAddr: 0x10001BA3C, symSize: 0x24 }
  - { offsetInCU: 0xF084, offset: 0x71CC5, size: 0x8, addend: 0x0, symName: __ZNKSt3__122__compressed_pair_elemINS_9allocatorIdEELi1ELb1EE5__getB8ue170006Ev, symObjAddr: 0x1254, symBinAddr: 0x10001BA60, symSize: 0x14 }
  - { offsetInCU: 0xF0AA, offset: 0x71CEB, size: 0x8, addend: 0x0, symName: __ZNSt3__114__split_bufferIdRNS_9allocatorIdEEEC2EmmS3_, symObjAddr: 0x13A8, symBinAddr: 0x10001BA74, symSize: 0xD4 }
  - { offsetInCU: 0xF11C, offset: 0x71D5D, size: 0x8, addend: 0x0, symName: __ZNSt3__117__compressed_pairIPdRNS_9allocatorIdEEEC1B8ue170006IDnS4_EEOT_OT0_, symObjAddr: 0x147C, symBinAddr: 0x10001BB48, symSize: 0x3C }
  - { offsetInCU: 0xF175, offset: 0x71DB6, size: 0x8, addend: 0x0, symName: __ZNSt3__114__split_bufferIdRNS_9allocatorIdEEE7__allocB8ue170006Ev, symObjAddr: 0x14F8, symBinAddr: 0x10001BBC4, symSize: 0x28 }
  - { offsetInCU: 0xF19B, offset: 0x71DDC, size: 0x8, addend: 0x0, symName: __ZNSt3__114__split_bufferIdRNS_9allocatorIdEEE9__end_capB8ue170006Ev, symObjAddr: 0x1520, symBinAddr: 0x10001BBEC, symSize: 0x28 }
  - { offsetInCU: 0xF1C0, offset: 0x71E01, size: 0x8, addend: 0x0, symName: __ZNSt3__117__compressed_pairIPdRNS_9allocatorIdEEEC2B8ue170006IDnS4_EEOT_OT0_, symObjAddr: 0x1548, symBinAddr: 0x10001BC14, symSize: 0x48 }
  - { offsetInCU: 0xF219, offset: 0x71E5A, size: 0x8, addend: 0x0, symName: __ZNSt3__122__compressed_pair_elemIRNS_9allocatorIdEELi1ELb0EEC2B8ue170006IS3_vEEOT_, symObjAddr: 0x1590, symBinAddr: 0x10001BC5C, symSize: 0x20 }
  - { offsetInCU: 0xF25B, offset: 0x71E9C, size: 0x8, addend: 0x0, symName: __ZNSt3__19allocatorIdE8allocateB8ue170006Em, symObjAddr: 0x15B0, symBinAddr: 0x10001BC7C, symSize: 0x58 }
  - { offsetInCU: 0xF28F, offset: 0x71ED0, size: 0x8, addend: 0x0, symName: __ZNSt3__117__compressed_pairIPdRNS_9allocatorIdEEE6secondB8ue170006Ev, symObjAddr: 0x16EC, symBinAddr: 0x10001BCD4, symSize: 0x28 }
  - { offsetInCU: 0xF2B5, offset: 0x71EF6, size: 0x8, addend: 0x0, symName: __ZNSt3__122__compressed_pair_elemIRNS_9allocatorIdEELi1ELb0EE5__getB8ue170006Ev, symObjAddr: 0x1714, symBinAddr: 0x10001BCFC, symSize: 0x18 }
  - { offsetInCU: 0xF2DB, offset: 0x71F1C, size: 0x8, addend: 0x0, symName: __ZNSt3__117__compressed_pairIPdRNS_9allocatorIdEEE5firstB8ue170006Ev, symObjAddr: 0x172C, symBinAddr: 0x10001BD14, symSize: 0x24 }
  - { offsetInCU: 0xF300, offset: 0x71F41, size: 0x8, addend: 0x0, symName: __ZNSt3__116reverse_iteratorIPdEC1B8ue170006ES1_, symObjAddr: 0x17C8, symBinAddr: 0x10001BDB0, symSize: 0x34 }
  - { offsetInCU: 0xF339, offset: 0x71F7A, size: 0x8, addend: 0x0, symName: __ZNKSt3__116reverse_iteratorIPdE4baseB8ue170006Ev, symObjAddr: 0x17FC, symBinAddr: 0x10001BDE4, symSize: 0x18 }
  - { offsetInCU: 0xF35F, offset: 0x71FA0, size: 0x8, addend: 0x0, symName: __ZNKSt3__16vectorIdNS_9allocatorIdEEE14__annotate_newB8ue170006Em, symObjAddr: 0x1850, symBinAddr: 0x10001BE38, symSize: 0xAC }
  - { offsetInCU: 0xF3B7, offset: 0x71FF8, size: 0x8, addend: 0x0, symName: __ZNKSt3__111__move_loopINS_17_ClassicAlgPolicyEEclB8ue170006INS_16reverse_iteratorIPdEES6_S6_EENS_4pairIT_T1_EES8_T0_S9_, symObjAddr: 0x1BEC, symBinAddr: 0x10001C1D4, symSize: 0xA0 }
  - { offsetInCU: 0xF422, offset: 0x72063, size: 0x8, addend: 0x0, symName: __ZNSt3__18_IterOpsINS_17_ClassicAlgPolicyEE11__iter_moveB8ue170006IRNS_16reverse_iteratorIPdEEEENS_9enable_ifIXsr12is_referenceIDTdeclsr3stdE7declvalIRT_EEEEE5valueEDTclsr3stdE4movedeclsr3stdE7declvalISA_EEEEE4typeEOS9_, symObjAddr: 0x1E20, symBinAddr: 0x10001C408, symSize: 0x28 }
  - { offsetInCU: 0xF44E, offset: 0x7208F, size: 0x8, addend: 0x0, symName: __ZNKSt3__116reverse_iteratorIPdEdeB8ue170006Ev, symObjAddr: 0x1E48, symBinAddr: 0x10001C430, symSize: 0x28 }
  - { offsetInCU: 0xF483, offset: 0x720C4, size: 0x8, addend: 0x0, symName: __ZNSt3__116reverse_iteratorIPdEppB8ue170006Ev, symObjAddr: 0x1E70, symBinAddr: 0x10001C458, symSize: 0x20 }
  - { offsetInCU: 0xF4A9, offset: 0x720EA, size: 0x8, addend: 0x0, symName: __ZNSt3__18_IterOpsINS_17_ClassicAlgPolicyEE25__validate_iter_referenceB8ue170006IRNS_16reverse_iteratorIPdEEEEvv, symObjAddr: 0x1E90, symBinAddr: 0x10001C478, symSize: 0x4 }
  - { offsetInCU: 0xF4C7, offset: 0x72108, size: 0x8, addend: 0x0, symName: __ZNSt3__118__unwrap_iter_implINS_16reverse_iteratorIPdEELb0EE8__unwrapB8ue170006ES3_, symObjAddr: 0x1E94, symBinAddr: 0x10001C47C, symSize: 0x24 }
  - { offsetInCU: 0xF4EE, offset: 0x7212F, size: 0x8, addend: 0x0, symName: __ZNSt3__14pairINS_16reverse_iteratorIPdEES3_EC1B8ue170006IS3_S3_LPv0EEEOT_OT0_, symObjAddr: 0x1EB8, symBinAddr: 0x10001C4A0, symSize: 0x3C }
  - { offsetInCU: 0xF54D, offset: 0x7218E, size: 0x8, addend: 0x0, symName: __ZNSt3__14pairINS_16reverse_iteratorIPdEES3_EC2B8ue170006IS3_S3_LPv0EEEOT_OT0_, symObjAddr: 0x1EF4, symBinAddr: 0x10001C4DC, symSize: 0x34 }
  - { offsetInCU: 0xF5AB, offset: 0x721EC, size: 0x8, addend: 0x0, symName: __ZNSt3__118__unwrap_iter_implINS_16reverse_iteratorIPdEELb0EE8__rewrapB8ue170006ES3_S3_, symObjAddr: 0x1F28, symBinAddr: 0x10001C510, symSize: 0x2C }
  - { offsetInCU: 0xF5D9, offset: 0x7221A, size: 0x8, addend: 0x0, symName: __ZNSt3__116reverse_iteratorIPdEC2B8ue170006ES1_, symObjAddr: 0x1F54, symBinAddr: 0x10001C53C, symSize: 0x28 }
  - { offsetInCU: 0xF611, offset: 0x72252, size: 0x8, addend: 0x0, symName: __ZNSt3__114__split_bufferIdRNS_9allocatorIdEEED2Ev, symObjAddr: 0x1F7C, symBinAddr: 0x10001C564, symSize: 0x8C }
  - { offsetInCU: 0xF63D, offset: 0x7227E, size: 0x8, addend: 0x0, symName: __ZNSt3__114__split_bufferIdRNS_9allocatorIdEEE5clearB8ue170006Ev, symObjAddr: 0x2008, symBinAddr: 0x10001C5F0, symSize: 0x28 }
  - { offsetInCU: 0xF663, offset: 0x722A4, size: 0x8, addend: 0x0, symName: __ZNKSt3__114__split_bufferIdRNS_9allocatorIdEEE8capacityB8ue170006Ev, symObjAddr: 0x2030, symBinAddr: 0x10001C618, symSize: 0x40 }
  - { offsetInCU: 0xF689, offset: 0x722CA, size: 0x8, addend: 0x0, symName: __ZNSt3__114__split_bufferIdRNS_9allocatorIdEEE17__destruct_at_endB8ue170006EPd, symObjAddr: 0x2070, symBinAddr: 0x10001C658, symSize: 0x2C }
  - { offsetInCU: 0xF6BC, offset: 0x722FD, size: 0x8, addend: 0x0, symName: __ZNSt3__114__split_bufferIdRNS_9allocatorIdEEE17__destruct_at_endB8ue170006EPdNS_17integral_constantIbLb0EEE, symObjAddr: 0x209C, symBinAddr: 0x10001C684, symSize: 0x80 }
  - { offsetInCU: 0xF6FE, offset: 0x7233F, size: 0x8, addend: 0x0, symName: __ZNKSt3__114__split_bufferIdRNS_9allocatorIdEEE9__end_capB8ue170006Ev, symObjAddr: 0x211C, symBinAddr: 0x10001C704, symSize: 0x28 }
  - { offsetInCU: 0xF724, offset: 0x72365, size: 0x8, addend: 0x0, symName: __ZNKSt3__117__compressed_pairIPdRNS_9allocatorIdEEE5firstB8ue170006Ev, symObjAddr: 0x2144, symBinAddr: 0x10001C72C, symSize: 0x24 }
  - { offsetInCU: 0x5859, offset: 0x77C47, size: 0x8, addend: 0x0, symName: __ZNSt3__1neB8ue170006ERKNS_19__hash_map_iteratorINS_15__hash_iteratorIPNS_11__hash_nodeINS_17__hash_value_typeINS_12basic_stringIcNS_11char_traitsIcEENS_9allocatorIcEEEEiEEPvEEEEEESH_, symObjAddr: 0x27C, symBinAddr: 0x10001C998, symSize: 0x30 }
  - { offsetInCU: 0x5896, offset: 0x77C84, size: 0x8, addend: 0x0, symName: __ZNSt3__1rsB8ue170006IcNS_11char_traitsIcEEEERNS_13basic_istreamIT_T0_EES7_RS4_, symObjAddr: 0x594, symBinAddr: 0x10001CB9C, symSize: 0x190 }
  - { offsetInCU: 0x5919, offset: 0x77D07, size: 0x8, addend: 0x0, symName: __ZNSt3__1neB8ue170006ERKNS_15__hash_iteratorIPNS_11__hash_nodeINS_17__hash_value_typeINS_12basic_stringIcNS_11char_traitsIcEENS_9allocatorIcEEEEiEEPvEEEESF_, symObjAddr: 0x4980, symBinAddr: 0x10001D11C, symSize: 0x34 }
  - { offsetInCU: 0x5956, offset: 0x77D44, size: 0x8, addend: 0x0, symName: __ZNSt3__1eqB8ue170006ERKNS_15__hash_iteratorIPNS_11__hash_nodeINS_17__hash_value_typeINS_12basic_stringIcNS_11char_traitsIcEENS_9allocatorIcEEEEiEEPvEEEESF_, symObjAddr: 0x49B4, symBinAddr: 0x10001D150, symSize: 0x30 }
  - { offsetInCU: 0x8322, offset: 0x7A710, size: 0x8, addend: 0x0, symName: __ZN6TraderC2ENSt3__112basic_stringIcNS0_11char_traitsIcEENS0_9allocatorIcEEEEdNS0_13unordered_mapIS6_iNS0_4hashIS6_EENS0_8equal_toIS6_EENS4_INS0_4pairIKS6_iEEEEEE, symObjAddr: 0x0, symBinAddr: 0x10001C750, symSize: 0x80 }
  - { offsetInCU: 0x837A, offset: 0x7A768, size: 0x8, addend: 0x0, symName: __ZN6TraderC1ENSt3__112basic_stringIcNS0_11char_traitsIcEENS0_9allocatorIcEEEEdNS0_13unordered_mapIS6_iNS0_4hashIS6_EENS0_8equal_toIS6_EENS4_INS0_4pairIKS6_iEEEEEE, symObjAddr: 0xB4, symBinAddr: 0x10001C7D0, symSize: 0x44 }
  - { offsetInCU: 0x83D2, offset: 0x7A7C0, size: 0x8, addend: 0x0, symName: __ZN6Trader5getIDEv, symObjAddr: 0xF8, symBinAddr: 0x10001C814, symSize: 0x38 }
  - { offsetInCU: 0x83FA, offset: 0x7A7E8, size: 0x8, addend: 0x0, symName: __ZN6Trader10getBalanceEv, symObjAddr: 0x130, symBinAddr: 0x10001C84C, symSize: 0x18 }
  - { offsetInCU: 0x8422, offset: 0x7A810, size: 0x8, addend: 0x0, symName: __ZN6Trader7addCashEd, symObjAddr: 0x148, symBinAddr: 0x10001C864, symSize: 0x28 }
  - { offsetInCU: 0x8458, offset: 0x7A846, size: 0x8, addend: 0x0, symName: __ZN6Trader10deductCashEd, symObjAddr: 0x170, symBinAddr: 0x10001C88C, symSize: 0x78 }
  - { offsetInCU: 0x848E, offset: 0x7A87C, size: 0x8, addend: 0x0, symName: __ZN6Trader16getStockQuantityENSt3__112basic_stringIcNS0_11char_traitsIcEENS0_9allocatorIcEEEE, symObjAddr: 0x1E8, symBinAddr: 0x10001C904, symSize: 0x94 }
  - { offsetInCU: 0x84C5, offset: 0x7A8B3, size: 0x8, addend: 0x0, symName: __ZNSt3__113unordered_mapINS_12basic_stringIcNS_11char_traitsIcEENS_9allocatorIcEEEEiNS_4hashIS6_EENS_8equal_toIS6_EENS4_INS_4pairIKS6_iEEEEE4findB8ue170006ERSC_, symObjAddr: 0x2AC, symBinAddr: 0x10001C9C8, symSize: 0x40 }
  - { offsetInCU: 0x84FA, offset: 0x7A8E8, size: 0x8, addend: 0x0, symName: __ZNSt3__113unordered_mapINS_12basic_stringIcNS_11char_traitsIcEENS_9allocatorIcEEEEiNS_4hashIS6_EENS_8equal_toIS6_EENS4_INS_4pairIKS6_iEEEEE3endB8ue170006Ev, symObjAddr: 0x2EC, symBinAddr: 0x10001CA08, symSize: 0x38 }
  - { offsetInCU: 0x8520, offset: 0x7A90E, size: 0x8, addend: 0x0, symName: __ZN6Trader17canAffordPurchaseEd, symObjAddr: 0x3A4, symBinAddr: 0x10001CA40, symSize: 0x2C }
  - { offsetInCU: 0x8556, offset: 0x7A944, size: 0x8, addend: 0x0, symName: __ZN6Trader12canSellStockENSt3__112basic_stringIcNS0_11char_traitsIcEENS0_9allocatorIcEEEEi, symObjAddr: 0x3D0, symBinAddr: 0x10001CA6C, symSize: 0x48 }
  - { offsetInCU: 0x859B, offset: 0x7A989, size: 0x8, addend: 0x0, symName: __ZN6Trader20depositFundsIfNeededEd, symObjAddr: 0x418, symBinAddr: 0x10001CAB4, symSize: 0xE8 }
  - { offsetInCU: 0x85FD, offset: 0x7A9EB, size: 0x8, addend: 0x0, symName: __ZN6Trader8addStockENSt3__112basic_stringIcNS0_11char_traitsIcEENS0_9allocatorIcEEEEi, symObjAddr: 0x724, symBinAddr: 0x10001CD2C, symSize: 0xC0 }
  - { offsetInCU: 0x8642, offset: 0x7AA30, size: 0x8, addend: 0x0, symName: __ZN6Trader11removeStockENSt3__112basic_stringIcNS0_11char_traitsIcEENS0_9allocatorIcEEEEi, symObjAddr: 0x7E4, symBinAddr: 0x10001CDEC, symSize: 0xD4 }
  - { offsetInCU: 0x8687, offset: 0x7AA75, size: 0x8, addend: 0x0, symName: __ZNSt3__113unordered_mapINS_12basic_stringIcNS_11char_traitsIcEENS_9allocatorIcEEEEiNS_4hashIS6_EENS_8equal_toIS6_EENS4_INS_4pairIKS6_iEEEEE5eraseB8ue170006ERSC_, symObjAddr: 0x8B8, symBinAddr: 0x10001CEC0, symSize: 0x2C }
  - { offsetInCU: 0x86C6, offset: 0x7AAB4, size: 0x8, addend: 0x0, symName: __ZNSt3__112__hash_tableINS_17__hash_value_typeINS_12basic_stringIcNS_11char_traitsIcEENS_9allocatorIcEEEEiEENS_22__unordered_map_hasherIS7_S8_NS_4hashIS7_EENS_8equal_toIS7_EELb1EEENS_21__unordered_map_equalIS7_S8_SD_SB_Lb1EEENS5_IS8_EEE4findIS7_EENS_15__hash_iteratorIPNS_11__hash_nodeIS8_PvEEEERKT_, symObjAddr: 0x4750, symBinAddr: 0x10001CEEC, symSize: 0x1B0 }
  - { offsetInCU: 0x8750, offset: 0x7AB3E, size: 0x8, addend: 0x0, symName: __ZNSt3__119__hash_map_iteratorINS_15__hash_iteratorIPNS_11__hash_nodeINS_17__hash_value_typeINS_12basic_stringIcNS_11char_traitsIcEENS_9allocatorIcEEEEiEEPvEEEEEC1B8ue170006ESE_, symObjAddr: 0x4900, symBinAddr: 0x10001D09C, symSize: 0x34 }
  - { offsetInCU: 0x8789, offset: 0x7AB77, size: 0x8, addend: 0x0, symName: __ZNSt3__112__hash_tableINS_17__hash_value_typeINS_12basic_stringIcNS_11char_traitsIcEENS_9allocatorIcEEEEiEENS_22__unordered_map_hasherIS7_S8_NS_4hashIS7_EENS_8equal_toIS7_EELb1EEENS_21__unordered_map_equalIS7_S8_SD_SB_Lb1EEENS5_IS8_EEE3endEv, symObjAddr: 0x4934, symBinAddr: 0x10001D0D0, symSize: 0x2C }
  - { offsetInCU: 0x87B1, offset: 0x7AB9F, size: 0x8, addend: 0x0, symName: __ZNSt3__119__hash_map_iteratorINS_15__hash_iteratorIPNS_11__hash_nodeINS_17__hash_value_typeINS_12basic_stringIcNS_11char_traitsIcEENS_9allocatorIcEEEEiEEPvEEEEEC2B8ue170006ESE_, symObjAddr: 0x4960, symBinAddr: 0x10001D0FC, symSize: 0x20 }
  - { offsetInCU: 0x8877, offset: 0x7AC65, size: 0x8, addend: 0x0, symName: __ZNSt3__112__hash_tableINS_17__hash_value_typeINS_12basic_stringIcNS_11char_traitsIcEENS_9allocatorIcEEEEiEENS_22__unordered_map_hasherIS7_S8_NS_4hashIS7_EENS_8equal_toIS7_EELb1EEENS_21__unordered_map_equalIS7_S8_SD_SB_Lb1EEENS5_IS8_EEE14__erase_uniqueIS7_EEmRKT_, symObjAddr: 0x5ED4, symBinAddr: 0x10001D180, symSize: 0x98 }
  - { offsetInCU: 0x88C6, offset: 0x7ACB4, size: 0x8, addend: 0x0, symName: __ZNSt3__112__hash_tableINS_17__hash_value_typeINS_12basic_stringIcNS_11char_traitsIcEENS_9allocatorIcEEEEiEENS_22__unordered_map_hasherIS7_S8_NS_4hashIS7_EENS_8equal_toIS7_EELb1EEENS_21__unordered_map_equalIS7_S8_SD_SB_Lb1EEENS5_IS8_EEE5eraseENS_21__hash_const_iteratorIPNS_11__hash_nodeIS8_PvEEEE, symObjAddr: 0x5F6C, symBinAddr: 0x10001D218, symSize: 0x70 }
  - { offsetInCU: 0x891B, offset: 0x7AD09, size: 0x8, addend: 0x0, symName: __ZNSt3__121__hash_const_iteratorIPNS_11__hash_nodeINS_17__hash_value_typeINS_12basic_stringIcNS_11char_traitsIcEENS_9allocatorIcEEEEiEEPvEEEC1B8ue170006ERKNS_15__hash_iteratorISC_EE, symObjAddr: 0x5FDC, symBinAddr: 0x10001D288, symSize: 0x34 }
  - { offsetInCU: 0x8954, offset: 0x7AD42, size: 0x8, addend: 0x0, symName: __ZNSt3__115__hash_iteratorIPNS_11__hash_nodeINS_17__hash_value_typeINS_12basic_stringIcNS_11char_traitsIcEENS_9allocatorIcEEEEiEEPvEEEppB8ue170006Ev, symObjAddr: 0x6010, symBinAddr: 0x10001D2BC, symSize: 0x20 }
  - { offsetInCU: 0x897A, offset: 0x7AD68, size: 0x8, addend: 0x0, symName: __ZNSt3__112__hash_tableINS_17__hash_value_typeINS_12basic_stringIcNS_11char_traitsIcEENS_9allocatorIcEEEEiEENS_22__unordered_map_hasherIS7_S8_NS_4hashIS7_EENS_8equal_toIS7_EELb1EEENS_21__unordered_map_equalIS7_S8_SD_SB_Lb1EEENS5_IS8_EEE6removeENS_21__hash_const_iteratorIPNS_11__hash_nodeIS8_PvEEEE, symObjAddr: 0x6030, symBinAddr: 0x10001D2DC, symSize: 0x220 }
  - { offsetInCU: 0x8A0B, offset: 0x7ADF9, size: 0x8, addend: 0x0, symName: __ZNSt3__121__hash_const_iteratorIPNS_11__hash_nodeINS_17__hash_value_typeINS_12basic_stringIcNS_11char_traitsIcEENS_9allocatorIcEEEEiEEPvEEEC2B8ue170006ERKNS_15__hash_iteratorISC_EE, symObjAddr: 0x6250, symBinAddr: 0x10001D4FC, symSize: 0x24 }
...
